Archive member included to satisfy reference by file (symbol)

lib/MT3620_M4_Driver/libMT3620_M4_Driver.a(printf.c.obj)
                              CMakeFiles/azure-sphere-combo-cifar10-rtcore.dir/main.c.obj (printf_)
lib/MT3620_M4_Driver/libMT3620_M4_Driver.a(mhal_gpio.c.obj)
                              CMakeFiles/azure-sphere-combo-cifar10-rtcore.dir/D_/CareerHack2021/project/source/RTCORE_OS_HAL/src/os_hal_gpio.c.obj (mtk_mhal_gpio_get_input)
lib/MT3620_M4_Driver/libMT3620_M4_Driver.a(hdl_gpio.c.obj)
                              lib/MT3620_M4_Driver/libMT3620_M4_Driver.a(mhal_gpio.c.obj) (mtk_hdl_gpio_modify_reg)
lib/MT3620_M4_Driver/libMT3620_M4_Driver.a(mhal_uart.c.obj)
                              CMakeFiles/azure-sphere-combo-cifar10-rtcore.dir/D_/CareerHack2021/project/source/RTCORE_OS_HAL/src/os_hal_uart.c.obj (mtk_mhal_uart_enable_clk)
lib/MT3620_M4_Driver/libMT3620_M4_Driver.a(hdl_uart.c.obj)
                              lib/MT3620_M4_Driver/libMT3620_M4_Driver.a(mhal_uart.c.obj) (mtk_hdl_uart_cg_config)
lib/MT3620_M4_Driver/libMT3620_M4_Driver.a(mhal_mbox.c.obj)
                              CMakeFiles/azure-sphere-combo-cifar10-rtcore.dir/D_/CareerHack2021/project/source/RTCORE_OS_HAL/src/os_hal_mbox.c.obj (mtk_mhal_mbox_reset)
lib/MT3620_M4_Driver/libMT3620_M4_Driver.a(hdl_mbox.c.obj)
                              lib/MT3620_M4_Driver/libMT3620_M4_Driver.a(mhal_mbox.c.obj) (mtk_hdl_mbox_sem_post)
lib/MT3620_M4_Driver/libMT3620_M4_Driver.a(mhal_osai.c.obj)
                              lib/MT3620_M4_Driver/libMT3620_M4_Driver.a(hdl_gpio.c.obj) (osai_readl)
../../../../../../prebuilts/lib/libtensorflow-microlite.a(micro_error_reporter.o)
                              CMakeFiles/azure-sphere-combo-cifar10-rtcore.dir/D_/CareerHack2021/project/app/lib_src/emergency_detect/main.cc.obj (vtable for tflite::MicroErrorReporter)
../../../../../../prebuilts/lib/libtensorflow-microlite.a(micro_interpreter.o)
                              CMakeFiles/azure-sphere-combo-cifar10-rtcore.dir/D_/CareerHack2021/project/app/lib_src/emergency_detect/main.cc.obj (tflite::MicroInterpreter::~MicroInterpreter())
../../../../../../prebuilts/lib/libtensorflow-microlite.a(micro_string.o)
                              ../../../../../../prebuilts/lib/libtensorflow-microlite.a(micro_error_reporter.o) (MicroVsnprintf)
../../../../../../prebuilts/lib/libtensorflow-microlite.a(simple_memory_allocator.o)
                              ../../../../../../prebuilts/lib/libtensorflow-microlite.a(micro_interpreter.o) (tflite::SimpleMemoryAllocator::GetHead() const)
../../../../../../prebuilts/lib/libtensorflow-microlite.a(error_reporter.o)
                              CMakeFiles/azure-sphere-combo-cifar10-rtcore.dir/D_/CareerHack2021/project/app/lib_src/emergency_detect/main.cc.obj (tflite::ErrorReporter::Report(char const*, ...))
../../../../../../prebuilts/lib/libtensorflow-microlite.a(flatbuffer_conversions.o)
                              CMakeFiles/azure-sphere-combo-cifar10-rtcore.dir/D_/CareerHack2021/project/app/lib_src/emergency_detect/main.cc.obj (tflite::ParseOpData(tflite::Operator const*, tflite::BuiltinOperator, tflite::ErrorReporter*, tflite::BuiltinDataAllocator*, void**))
../../../../../../prebuilts/lib/libtensorflow-microlite.a(tensor_utils.o)
                              ../../../../../../prebuilts/lib/libtensorflow-microlite.a(micro_interpreter.o) (tflite::ResetVariableTensor(TfLiteTensor*))
../../../../../../prebuilts/lib/libtensorflow-microlite.a(dynamic_agent.o)
                              ../../../../../../prebuilts/lib/libtensorflow-microlite.a(micro_interpreter.o) (tflite::DynamicAgent::Init(TfLiteContext&, tflite::ErrorReporter*, unsigned char*, unsigned int))
../../../../../../prebuilts/lib/libtensorflow-microlite.a(dynamic_context.o)
                              ../../../../../../prebuilts/lib/libtensorflow-microlite.a(dynamic_agent.o) (IsFineGrainedOPSupport)
../../../../../../prebuilts/lib/libtensorflow-microlite.a(npu_platform.o)
                              ../../../../../../prebuilts/lib/libtensorflow-microlite.a(dynamic_agent.o) (LoadFromExternal)
../../../../../../prebuilts/lib/libtensorflow-microlite.a(fully_connected.o)
                              CMakeFiles/azure-sphere-combo-cifar10-rtcore.dir/D_/CareerHack2021/project/app/lib_src/emergency_detect/main.cc.obj (tflite::ops::micro::Register_FULLY_CONNECTED())
../../../../../../prebuilts/lib/libtensorflow-microlite.a(pooling.o)
                              CMakeFiles/azure-sphere-combo-cifar10-rtcore.dir/D_/CareerHack2021/project/app/lib_src/emergency_detect/main.cc.obj (tflite::ops::micro::Register_AVERAGE_POOL_2D())
../../../../../../prebuilts/lib/libtensorflow-microlite.a(reshape.o)
                              CMakeFiles/azure-sphere-combo-cifar10-rtcore.dir/D_/CareerHack2021/project/app/lib_src/emergency_detect/main.cc.obj (tflite::ops::micro::Register_RESHAPE())
../../../../../../prebuilts/lib/libtensorflow-microlite.a(softmax.o)
                              CMakeFiles/azure-sphere-combo-cifar10-rtcore.dir/D_/CareerHack2021/project/app/lib_src/emergency_detect/main.cc.obj (tflite::ops::micro::Register_SOFTMAX())
../../../../../../prebuilts/lib/libtensorflow-microlite.a(quantization_util.o)
                              ../../../../../../prebuilts/lib/libtensorflow-microlite.a(fully_connected.o) (tflite::QuantizeMultiplier(double, long*, int*))
../../../../../../prebuilts/lib/libtensorflow-microlite.a(kernel_util.o)
                              ../../../../../../prebuilts/lib/libtensorflow-microlite.a(fully_connected.o) (tflite::GetQuantizedConvolutionMultipler(TfLiteContext*, TfLiteTensor const*, TfLiteTensor const*, TfLiteTensor const*, TfLiteTensor*, double*))
../../../../../../prebuilts/lib/libtensorflow-microlite.a(conv.o)
                              CMakeFiles/azure-sphere-combo-cifar10-rtcore.dir/D_/CareerHack2021/project/app/lib_src/emergency_detect/main.cc.obj (tflite::ops::micro::Register_CONV_2D())
../../../../../../prebuilts/lib/libtensorflow-microlite.a(depthwise_conv.o)
                              CMakeFiles/azure-sphere-combo-cifar10-rtcore.dir/D_/CareerHack2021/project/app/lib_src/emergency_detect/main.cc.obj (tflite::ops::micro::Register_DEPTHWISE_CONV_2D())
../../../../../../prebuilts/lib/libtensorflow-microlite.a(debug_log.o)
                              ../../../../../../prebuilts/lib/libtensorflow-microlite.a(micro_error_reporter.o) (DebugLog)
../../../../../../prebuilts/lib/libtensorflow-microlite.a(memory_helpers.o)
                              ../../../../../../prebuilts/lib/libtensorflow-microlite.a(simple_memory_allocator.o) (tflite::AlignPointerUp(unsigned char*, unsigned int))
../../../../../../prebuilts/lib/libtensorflow-microlite.a(micro_allocator.o)
                              ../../../../../../prebuilts/lib/libtensorflow-microlite.a(micro_interpreter.o) (tflite::MicroAllocator::Create(unsigned char*, unsigned int, tflite::ErrorReporter*))
../../../../../../prebuilts/lib/libtensorflow-microlite.a(greedy_memory_planner.o)
                              ../../../../../../prebuilts/lib/libtensorflow-microlite.a(micro_allocator.o) (tflite::GreedyMemoryPlanner::~GreedyMemoryPlanner())
../../../../../../prebuilts/lib/libtensorflow-microlite.a(common.o)
                              ../../../../../../prebuilts/lib/libtensorflow-microlite.a(micro_allocator.o) (TfLiteIntArrayGetSizeInBytes)
../../../../../../prebuilts/lib/libtensorflow-microlite.a(op_resolver.o)
                              ../../../../../../prebuilts/lib/libtensorflow-microlite.a(micro_allocator.o) (tflite::GetRegistrationFromOpCode(tflite::OperatorCode const*, tflite::OpResolver const&, tflite::ErrorReporter*, TfLiteRegistration const**))
../../../../../../prebuilts/lib/libcmsis.a(arm_convolve_wrapper_s8.o)
                              ../../../../../../prebuilts/lib/libtensorflow-microlite.a(conv.o) (arm_convolve_wrapper_s8)
../../../../../../prebuilts/lib/libcmsis.a(arm_depthwise_conv_s8.o)
                              ../../../../../../prebuilts/lib/libtensorflow-microlite.a(depthwise_conv.o) (arm_depthwise_conv_s8)
../../../../../../prebuilts/lib/libcmsis.a(arm_depthwise_conv_s8_opt.o)
                              ../../../../../../prebuilts/lib/libtensorflow-microlite.a(depthwise_conv.o) (arm_depthwise_conv_s8_opt)
../../../../../../prebuilts/lib/libcmsis.a(arm_depthwise_conv_u8_basic_ver1.o)
                              ../../../../../../prebuilts/lib/libtensorflow-microlite.a(depthwise_conv.o) (arm_depthwise_conv_u8_basic_ver1)
../../../../../../prebuilts/lib/libcmsis.a(arm_fully_connected_s8.o)
                              ../../../../../../prebuilts/lib/libtensorflow-microlite.a(fully_connected.o) (arm_fully_connected_s8)
../../../../../../prebuilts/lib/libcmsis.a(arm_nn_vec_mat_mult_t_s8.o)
                              ../../../../../../prebuilts/lib/libcmsis.a(arm_fully_connected_s8.o) (arm_nn_vec_mat_mult_t_s8)
../../../../../../prebuilts/lib/libcmsis.a(arm_q7_to_q15_with_offset.o)
                              ../../../../../../prebuilts/lib/libcmsis.a(arm_depthwise_conv_s8_opt.o) (arm_q7_to_q15_with_offset)
../../../../../../prebuilts/lib/libcmsis.a(arm_avgpool_s8.o)
                              ../../../../../../prebuilts/lib/libtensorflow-microlite.a(pooling.o) (arm_avgpool_s8)
../../../../../../prebuilts/lib/libcmsis.a(arm_max_pool_s8_opt.o)
                              ../../../../../../prebuilts/lib/libtensorflow-microlite.a(pooling.o) (arm_max_pool_s8_opt)
../../../../../../prebuilts/lib/libcmsis.a(arm_softmax_s8.o)
                              ../../../../../../prebuilts/lib/libtensorflow-microlite.a(softmax.o) (arm_softmax_s8)
../../../../../../prebuilts/lib/libcmsis.a(arm_convolve_1x1_s8_fast.o)
                              ../../../../../../prebuilts/lib/libcmsis.a(arm_convolve_wrapper_s8.o) (arm_convolve_1x1_s8_fast)
../../../../../../prebuilts/lib/libcmsis.a(arm_convolve_1_x_n_s8.o)
                              ../../../../../../prebuilts/lib/libcmsis.a(arm_convolve_wrapper_s8.o) (arm_convolve_1_x_n_s8)
../../../../../../prebuilts/lib/libcmsis.a(arm_convolve_s8.o)
                              ../../../../../../prebuilts/lib/libcmsis.a(arm_convolve_wrapper_s8.o) (arm_convolve_s8)
../../../../../../prebuilts/lib/libcmsis.a(arm_nn_mat_mult_kernel_s8_s16.o)
                              ../../../../../../prebuilts/lib/libcmsis.a(arm_convolve_s8.o) (arm_nn_mat_mult_kernel_s8_s16)
../../../../../../prebuilts/lib/libcmsis.a(arm_nn_accumulate_q7_to_q15.o)
                              ../../../../../../prebuilts/lib/libcmsis.a(arm_avgpool_s8.o) (arm_nn_accumulate_q7_to_q15)
../../../../../../prebuilts/lib/libcmsis.a(arm_nn_mat_mult_nt_t_s8.o)
                              ../../../../../../prebuilts/lib/libcmsis.a(arm_convolve_1x1_s8_fast.o) (arm_nn_mat_mult_nt_t_s8)
../../../../../../prebuilts/lib/libcmsis.a(arm_q7_to_q15_no_shift.o)
                              ../../../../../../prebuilts/lib/libcmsis.a(arm_avgpool_s8.o) (arm_q7_to_q15_no_shift)
c:/progra~2/microsoft visual studio/2019/community/linux/gcc_arm/bin/../lib/gcc/arm-none-eabi/8.2.1/../../../../arm-none-eabi/lib/thumb/v7e-m+fp/hard\libstdc++_nano.a(guard.o)
                              CMakeFiles/azure-sphere-combo-cifar10-rtcore.dir/D_/CareerHack2021/project/app/lib_src/emergency_detect/main.cc.obj (__cxa_guard_acquire)
c:/progra~2/microsoft visual studio/2019/community/linux/gcc_arm/bin/../lib/gcc/arm-none-eabi/8.2.1/../../../../arm-none-eabi/lib/thumb/v7e-m+fp/hard\libstdc++_nano.a(del_op.o)
                              CMakeFiles/azure-sphere-combo-cifar10-rtcore.dir/D_/CareerHack2021/project/app/lib_src/emergency_detect/main.cc.obj (operator delete(void*))
c:/progra~2/microsoft visual studio/2019/community/linux/gcc_arm/bin/../lib/gcc/arm-none-eabi/8.2.1/../../../../arm-none-eabi/lib/thumb/v7e-m+fp/hard\libstdc++_nano.a(pure.o)
                              CMakeFiles/azure-sphere-combo-cifar10-rtcore.dir/D_/CareerHack2021/project/app/lib_src/emergency_detect/main.cc.obj (__cxa_pure_virtual)
c:/progra~2/microsoft visual studio/2019/community/linux/gcc_arm/bin/../lib/gcc/arm-none-eabi/8.2.1/../../../../arm-none-eabi/lib/thumb/v7e-m+fp/hard\libstdc++_nano.a(eh_terminate.o)
                              c:/progra~2/microsoft visual studio/2019/community/linux/gcc_arm/bin/../lib/gcc/arm-none-eabi/8.2.1/../../../../arm-none-eabi/lib/thumb/v7e-m+fp/hard\libstdc++_nano.a(pure.o) (std::terminate())
c:/progra~2/microsoft visual studio/2019/community/linux/gcc_arm/bin/../lib/gcc/arm-none-eabi/8.2.1/../../../../arm-none-eabi/lib/thumb/v7e-m+fp/hard\libstdc++_nano.a(atexit_arm.o)
                              CMakeFiles/azure-sphere-combo-cifar10-rtcore.dir/D_/CareerHack2021/project/app/lib_src/emergency_detect/main.cc.obj (__aeabi_atexit)
c:/progra~2/microsoft visual studio/2019/community/linux/gcc_arm/bin/../lib/gcc/arm-none-eabi/8.2.1/../../../../arm-none-eabi/lib/thumb/v7e-m+fp/hard\libstdc++_nano.a(eh_term_handler.o)
                              c:/progra~2/microsoft visual studio/2019/community/linux/gcc_arm/bin/../lib/gcc/arm-none-eabi/8.2.1/../../../../arm-none-eabi/lib/thumb/v7e-m+fp/hard\libstdc++_nano.a(eh_terminate.o) (__cxxabiv1::__terminate_handler)
c:/progra~2/microsoft visual studio/2019/community/linux/gcc_arm/bin/../lib/gcc/arm-none-eabi/8.2.1/../../../../arm-none-eabi/lib/thumb/v7e-m+fp/hard\libstdc++_nano.a(eh_unex_handler.o)
                              c:/progra~2/microsoft visual studio/2019/community/linux/gcc_arm/bin/../lib/gcc/arm-none-eabi/8.2.1/../../../../arm-none-eabi/lib/thumb/v7e-m+fp/hard\libstdc++_nano.a(eh_terminate.o) (__cxxabiv1::__unexpected_handler)
c:/progra~2/microsoft visual studio/2019/community/linux/gcc_arm/bin/../lib/gcc/arm-none-eabi/8.2.1/thumb/v7e-m+fp/hard\libgcc.a(_arm_addsubdf3.o)
                              lib/MT3620_M4_Driver/libMT3620_M4_Driver.a(printf.c.obj) (__aeabi_dsub)
c:/progra~2/microsoft visual studio/2019/community/linux/gcc_arm/bin/../lib/gcc/arm-none-eabi/8.2.1/thumb/v7e-m+fp/hard\libgcc.a(_arm_muldivdf3.o)
                              lib/MT3620_M4_Driver/libMT3620_M4_Driver.a(printf.c.obj) (__aeabi_dmul)
c:/progra~2/microsoft visual studio/2019/community/linux/gcc_arm/bin/../lib/gcc/arm-none-eabi/8.2.1/thumb/v7e-m+fp/hard\libgcc.a(_arm_cmpdf2.o)
                              lib/MT3620_M4_Driver/libMT3620_M4_Driver.a(printf.c.obj) (__aeabi_dcmpeq)
c:/progra~2/microsoft visual studio/2019/community/linux/gcc_arm/bin/../lib/gcc/arm-none-eabi/8.2.1/thumb/v7e-m+fp/hard\libgcc.a(_arm_fixdfsi.o)
                              lib/MT3620_M4_Driver/libMT3620_M4_Driver.a(printf.c.obj) (__aeabi_d2iz)
c:/progra~2/microsoft visual studio/2019/community/linux/gcc_arm/bin/../lib/gcc/arm-none-eabi/8.2.1/thumb/v7e-m+fp/hard\libgcc.a(_arm_fixunsdfsi.o)
                              lib/MT3620_M4_Driver/libMT3620_M4_Driver.a(printf.c.obj) (__aeabi_d2uiz)
c:/progra~2/microsoft visual studio/2019/community/linux/gcc_arm/bin/../lib/gcc/arm-none-eabi/8.2.1/thumb/v7e-m+fp/hard\libgcc.a(_arm_truncdfsf2.o)
                              ../../../../../../prebuilts/lib/libtensorflow-microlite.a(micro_string.o) (__aeabi_d2f)
c:/progra~2/microsoft visual studio/2019/community/linux/gcc_arm/bin/../lib/gcc/arm-none-eabi/8.2.1/thumb/v7e-m+fp/hard\libgcc.a(_aeabi_uldivmod.o)
                              lib/MT3620_M4_Driver/libMT3620_M4_Driver.a(printf.c.obj) (__aeabi_uldivmod)
c:/progra~2/microsoft visual studio/2019/community/linux/gcc_arm/bin/../lib/gcc/arm-none-eabi/8.2.1/thumb/v7e-m+fp/hard\libgcc.a(_fixdfdi.o)
                              ../../../../../../prebuilts/lib/libtensorflow-microlite.a(quantization_util.o) (__aeabi_d2lz)
c:/progra~2/microsoft visual studio/2019/community/linux/gcc_arm/bin/../lib/gcc/arm-none-eabi/8.2.1/thumb/v7e-m+fp/hard\libgcc.a(_fixunsdfdi.o)
                              c:/progra~2/microsoft visual studio/2019/community/linux/gcc_arm/bin/../lib/gcc/arm-none-eabi/8.2.1/thumb/v7e-m+fp/hard\libgcc.a(_fixdfdi.o) (__aeabi_d2ulz)
c:/progra~2/microsoft visual studio/2019/community/linux/gcc_arm/bin/../lib/gcc/arm-none-eabi/8.2.1/thumb/v7e-m+fp/hard\libgcc.a(_udivmoddi4.o)
                              c:/progra~2/microsoft visual studio/2019/community/linux/gcc_arm/bin/../lib/gcc/arm-none-eabi/8.2.1/thumb/v7e-m+fp/hard\libgcc.a(_aeabi_uldivmod.o) (__udivmoddi4)
c:/progra~2/microsoft visual studio/2019/community/linux/gcc_arm/bin/../lib/gcc/arm-none-eabi/8.2.1/thumb/v7e-m+fp/hard\libgcc.a(_dvmd_tls.o)
                              c:/progra~2/microsoft visual studio/2019/community/linux/gcc_arm/bin/../lib/gcc/arm-none-eabi/8.2.1/thumb/v7e-m+fp/hard\libgcc.a(_aeabi_uldivmod.o) (__aeabi_ldiv0)
lib/MT3620_M4_Driver/lib/MT3620_M4_BSP/libMT3620_M4_BSP.a(nvic.c.obj)
                              CMakeFiles/azure-sphere-combo-cifar10-rtcore.dir/D_/CareerHack2021/project/source/RTCORE_OS_HAL/src/os_hal_mbox.c.obj (NVIC_Register)
lib/MT3620_M4_Driver/lib/MT3620_M4_BSP/libMT3620_M4_BSP.a(cirq_common.c.obj)
                              lib/MT3620_M4_Driver/lib/MT3620_M4_BSP/libMT3620_M4_BSP.a(nvic.c.obj) (cirq_gpio_irq_ctl_set_edge2lvl)
lib/MT3620_M4_Driver/lib/MT3620_M4_BSP/libMT3620_M4_BSP.a(vector_table.c.obj)
                              lib/MT3620_M4_Driver/lib/MT3620_M4_BSP/libMT3620_M4_BSP.a(nvic.c.obj) (__isr_vector)
lib/MT3620_M4_Driver/lib/MT3620_M4_BSP/libMT3620_M4_BSP.a(startup_mt3620.s.obj)
                              lib/MT3620_M4_Driver/lib/MT3620_M4_BSP/libMT3620_M4_BSP.a(vector_table.c.obj) (Reset_Handler)
lib/MT3620_M4_Driver/MT3620_M4_BSP/FreeRTOS/libMT3620_M4_FreeRTOS.a(queue.c.obj)
                              CMakeFiles/azure-sphere-combo-cifar10-rtcore.dir/main.c.obj (xQueueGenericCreate)
lib/MT3620_M4_Driver/MT3620_M4_BSP/FreeRTOS/libMT3620_M4_FreeRTOS.a(tasks.c.obj)
                              CMakeFiles/azure-sphere-combo-cifar10-rtcore.dir/main.c.obj (xTaskCreate)
lib/MT3620_M4_Driver/MT3620_M4_BSP/FreeRTOS/libMT3620_M4_FreeRTOS.a(timers.c.obj)
                              lib/MT3620_M4_Driver/MT3620_M4_BSP/FreeRTOS/libMT3620_M4_FreeRTOS.a(tasks.c.obj) (xTimerCreateTimerTask)
lib/MT3620_M4_Driver/MT3620_M4_BSP/FreeRTOS/libMT3620_M4_FreeRTOS.a(heap_4.c.obj)
                              lib/MT3620_M4_Driver/MT3620_M4_BSP/FreeRTOS/libMT3620_M4_FreeRTOS.a(queue.c.obj) (pvPortMalloc)
lib/MT3620_M4_Driver/MT3620_M4_BSP/FreeRTOS/libMT3620_M4_FreeRTOS.a(port.c.obj)
                              lib/MT3620_M4_Driver/MT3620_M4_BSP/FreeRTOS/libMT3620_M4_FreeRTOS.a(tasks.c.obj) (pxPortInitialiseStack)
lib/MT3620_M4_Driver/MT3620_M4_BSP/FreeRTOS/libMT3620_M4_FreeRTOS.a(list.c.obj)
                              lib/MT3620_M4_Driver/MT3620_M4_BSP/FreeRTOS/libMT3620_M4_FreeRTOS.a(queue.c.obj) (vListInitialise)
c:/progra~2/microsoft visual studio/2019/community/linux/gcc_arm/bin/../lib/gcc/arm-none-eabi/8.2.1/../../../../arm-none-eabi/lib/thumb/v7e-m+fp/hard\libm.a(lib_a-s_floor.o)
                              ../../../../../../prebuilts/lib/libtensorflow-microlite.a(quantization_util.o) (floor)
c:/progra~2/microsoft visual studio/2019/community/linux/gcc_arm/bin/../lib/gcc/arm-none-eabi/8.2.1/../../../../arm-none-eabi/lib/thumb/v7e-m+fp/hard\libm.a(lib_a-s_frexp.o)
                              ../../../../../../prebuilts/lib/libtensorflow-microlite.a(quantization_util.o) (frexp)
c:/progra~2/microsoft visual studio/2019/community/linux/gcc_arm/bin/../lib/gcc/arm-none-eabi/8.2.1/../../../../arm-none-eabi/lib/thumb/v7e-m+fp/hard\libm.a(lib_a-s_round.o)
                              ../../../../../../prebuilts/lib/libtensorflow-microlite.a(quantization_util.o) (round)
c:/progra~2/microsoft visual studio/2019/community/linux/gcc_arm/bin/../lib/gcc/arm-none-eabi/8.2.1/../../../../arm-none-eabi/lib/thumb/v7e-m+fp/hard\libm.a(lib_a-wf_exp.o)
                              ../../../../../../prebuilts/lib/libtensorflow-microlite.a(softmax.o) (expf)
c:/progra~2/microsoft visual studio/2019/community/linux/gcc_arm/bin/../lib/gcc/arm-none-eabi/8.2.1/../../../../arm-none-eabi/lib/thumb/v7e-m+fp/hard\libm.a(lib_a-wf_log.o)
                              ../../../../../../prebuilts/lib/libtensorflow-microlite.a(quantization_util.o) (logf)
c:/progra~2/microsoft visual studio/2019/community/linux/gcc_arm/bin/../lib/gcc/arm-none-eabi/8.2.1/../../../../arm-none-eabi/lib/thumb/v7e-m+fp/hard\libm.a(lib_a-ef_exp.o)
                              c:/progra~2/microsoft visual studio/2019/community/linux/gcc_arm/bin/../lib/gcc/arm-none-eabi/8.2.1/../../../../arm-none-eabi/lib/thumb/v7e-m+fp/hard\libm.a(lib_a-wf_exp.o) (__ieee754_expf)
c:/progra~2/microsoft visual studio/2019/community/linux/gcc_arm/bin/../lib/gcc/arm-none-eabi/8.2.1/../../../../arm-none-eabi/lib/thumb/v7e-m+fp/hard\libm.a(lib_a-ef_log.o)
                              c:/progra~2/microsoft visual studio/2019/community/linux/gcc_arm/bin/../lib/gcc/arm-none-eabi/8.2.1/../../../../arm-none-eabi/lib/thumb/v7e-m+fp/hard\libm.a(lib_a-wf_log.o) (__ieee754_logf)
c:/progra~2/microsoft visual studio/2019/community/linux/gcc_arm/bin/../lib/gcc/arm-none-eabi/8.2.1/../../../../arm-none-eabi/lib/thumb/v7e-m+fp/hard\libm.a(lib_a-s_lib_ver.o)
                              c:/progra~2/microsoft visual studio/2019/community/linux/gcc_arm/bin/../lib/gcc/arm-none-eabi/8.2.1/../../../../arm-none-eabi/lib/thumb/v7e-m+fp/hard\libm.a(lib_a-wf_exp.o) (__fdlib_version)
c:/progra~2/microsoft visual studio/2019/community/linux/gcc_arm/bin/../lib/gcc/arm-none-eabi/8.2.1/../../../../arm-none-eabi/lib/thumb/v7e-m+fp/hard\libm.a(lib_a-s_matherr.o)
                              c:/progra~2/microsoft visual studio/2019/community/linux/gcc_arm/bin/../lib/gcc/arm-none-eabi/8.2.1/../../../../arm-none-eabi/lib/thumb/v7e-m+fp/hard\libm.a(lib_a-wf_exp.o) (matherr)
c:/progra~2/microsoft visual studio/2019/community/linux/gcc_arm/bin/../lib/gcc/arm-none-eabi/8.2.1/../../../../arm-none-eabi/lib/thumb/v7e-m+fp/hard\libm.a(lib_a-s_nan.o)
                              c:/progra~2/microsoft visual studio/2019/community/linux/gcc_arm/bin/../lib/gcc/arm-none-eabi/8.2.1/../../../../arm-none-eabi/lib/thumb/v7e-m+fp/hard\libm.a(lib_a-wf_log.o) (nan)
c:/progra~2/microsoft visual studio/2019/community/linux/gcc_arm/bin/../lib/gcc/arm-none-eabi/8.2.1/../../../../arm-none-eabi/lib/thumb/v7e-m+fp/hard\libm.a(lib_a-sf_finite.o)
                              c:/progra~2/microsoft visual studio/2019/community/linux/gcc_arm/bin/../lib/gcc/arm-none-eabi/8.2.1/../../../../arm-none-eabi/lib/thumb/v7e-m+fp/hard\libm.a(lib_a-wf_exp.o) (finitef)
c:/progra~2/microsoft visual studio/2019/community/linux/gcc_arm/bin/../lib/gcc/arm-none-eabi/8.2.1/../../../../arm-none-eabi/lib/thumb/v7e-m+fp/hard\libc_nano.a(lib_a-abort.o)
                              ../../../../../../prebuilts/lib/libtensorflow-microlite.a(fully_connected.o) (abort)
c:/progra~2/microsoft visual studio/2019/community/linux/gcc_arm/bin/../lib/gcc/arm-none-eabi/8.2.1/../../../../arm-none-eabi/lib/thumb/v7e-m+fp/hard\libc_nano.a(lib_a-cxa_atexit.o)
                              c:/progra~2/microsoft visual studio/2019/community/linux/gcc_arm/bin/../lib/gcc/arm-none-eabi/8.2.1/../../../../arm-none-eabi/lib/thumb/v7e-m+fp/hard\libstdc++_nano.a(atexit_arm.o) (__cxa_atexit)
c:/progra~2/microsoft visual studio/2019/community/linux/gcc_arm/bin/../lib/gcc/arm-none-eabi/8.2.1/../../../../arm-none-eabi/lib/thumb/v7e-m+fp/hard\libc_nano.a(lib_a-errno.o)
                              c:/progra~2/microsoft visual studio/2019/community/linux/gcc_arm/bin/../lib/gcc/arm-none-eabi/8.2.1/../../../../arm-none-eabi/lib/thumb/v7e-m+fp/hard\libm.a(lib_a-wf_exp.o) (__errno)
c:/progra~2/microsoft visual studio/2019/community/linux/gcc_arm/bin/../lib/gcc/arm-none-eabi/8.2.1/../../../../arm-none-eabi/lib/thumb/v7e-m+fp/hard\libc_nano.a(lib_a-impure.o)
                              c:/progra~2/microsoft visual studio/2019/community/linux/gcc_arm/bin/../lib/gcc/arm-none-eabi/8.2.1/../../../../arm-none-eabi/lib/thumb/v7e-m+fp/hard\libc_nano.a(lib_a-errno.o) (_impure_ptr)
c:/progra~2/microsoft visual studio/2019/community/linux/gcc_arm/bin/../lib/gcc/arm-none-eabi/8.2.1/../../../../arm-none-eabi/lib/thumb/v7e-m+fp/hard\libc_nano.a(lib_a-malloc.o)
                              c:/progra~2/microsoft visual studio/2019/community/linux/gcc_arm/bin/../lib/gcc/arm-none-eabi/8.2.1/../../../../arm-none-eabi/lib/thumb/v7e-m+fp/hard\libstdc++_nano.a(del_op.o) (free)
c:/progra~2/microsoft visual studio/2019/community/linux/gcc_arm/bin/../lib/gcc/arm-none-eabi/8.2.1/../../../../arm-none-eabi/lib/thumb/v7e-m+fp/hard\libc_nano.a(lib_a-memcpy-stub.o)
                              CMakeFiles/azure-sphere-combo-cifar10-rtcore.dir/main.c.obj (memcpy)
c:/progra~2/microsoft visual studio/2019/community/linux/gcc_arm/bin/../lib/gcc/arm-none-eabi/8.2.1/../../../../arm-none-eabi/lib/thumb/v7e-m+fp/hard\libc_nano.a(lib_a-memmove.o)
                              ../../../../../../prebuilts/lib/libcmsis.a(arm_max_pool_s8_opt.o) (memmove)
c:/progra~2/microsoft visual studio/2019/community/linux/gcc_arm/bin/../lib/gcc/arm-none-eabi/8.2.1/../../../../arm-none-eabi/lib/thumb/v7e-m+fp/hard\libc_nano.a(lib_a-memset.o)
                              lib/MT3620_M4_Driver/libMT3620_M4_Driver.a(mhal_uart.c.obj) (memset)
c:/progra~2/microsoft visual studio/2019/community/linux/gcc_arm/bin/../lib/gcc/arm-none-eabi/8.2.1/../../../../arm-none-eabi/lib/thumb/v7e-m+fp/hard\libc_nano.a(lib_a-nano-freer.o)
                              c:/progra~2/microsoft visual studio/2019/community/linux/gcc_arm/bin/../lib/gcc/arm-none-eabi/8.2.1/../../../../arm-none-eabi/lib/thumb/v7e-m+fp/hard\libc_nano.a(lib_a-malloc.o) (_free_r)
c:/progra~2/microsoft visual studio/2019/community/linux/gcc_arm/bin/../lib/gcc/arm-none-eabi/8.2.1/../../../../arm-none-eabi/lib/thumb/v7e-m+fp/hard\libc_nano.a(lib_a-nano-mallocr.o)
                              c:/progra~2/microsoft visual studio/2019/community/linux/gcc_arm/bin/../lib/gcc/arm-none-eabi/8.2.1/../../../../arm-none-eabi/lib/thumb/v7e-m+fp/hard\libc_nano.a(lib_a-malloc.o) (_malloc_r)
c:/progra~2/microsoft visual studio/2019/community/linux/gcc_arm/bin/../lib/gcc/arm-none-eabi/8.2.1/../../../../arm-none-eabi/lib/thumb/v7e-m+fp/hard\libc_nano.a(lib_a-on_exit_args.o)
                              c:/progra~2/microsoft visual studio/2019/community/linux/gcc_arm/bin/../lib/gcc/arm-none-eabi/8.2.1/../../../../arm-none-eabi/lib/thumb/v7e-m+fp/hard\libc_nano.a(lib_a-cxa_atexit.o) (__on_exit_args)
c:/progra~2/microsoft visual studio/2019/community/linux/gcc_arm/bin/../lib/gcc/arm-none-eabi/8.2.1/../../../../arm-none-eabi/lib/thumb/v7e-m+fp/hard\libc_nano.a(lib_a-sbrkr.o)
                              c:/progra~2/microsoft visual studio/2019/community/linux/gcc_arm/bin/../lib/gcc/arm-none-eabi/8.2.1/../../../../arm-none-eabi/lib/thumb/v7e-m+fp/hard\libc_nano.a(lib_a-nano-mallocr.o) (_sbrk_r)
c:/progra~2/microsoft visual studio/2019/community/linux/gcc_arm/bin/../lib/gcc/arm-none-eabi/8.2.1/../../../../arm-none-eabi/lib/thumb/v7e-m+fp/hard\libc_nano.a(lib_a-signal.o)
                              c:/progra~2/microsoft visual studio/2019/community/linux/gcc_arm/bin/../lib/gcc/arm-none-eabi/8.2.1/../../../../arm-none-eabi/lib/thumb/v7e-m+fp/hard\libc_nano.a(lib_a-abort.o) (raise)
c:/progra~2/microsoft visual studio/2019/community/linux/gcc_arm/bin/../lib/gcc/arm-none-eabi/8.2.1/../../../../arm-none-eabi/lib/thumb/v7e-m+fp/hard\libc_nano.a(lib_a-signalr.o)
                              c:/progra~2/microsoft visual studio/2019/community/linux/gcc_arm/bin/../lib/gcc/arm-none-eabi/8.2.1/../../../../arm-none-eabi/lib/thumb/v7e-m+fp/hard\libc_nano.a(lib_a-signal.o) (_kill_r)
c:/progra~2/microsoft visual studio/2019/community/linux/gcc_arm/bin/../lib/gcc/arm-none-eabi/8.2.1/../../../../arm-none-eabi/lib/thumb/v7e-m+fp/hard\libc_nano.a(lib_a-strcmp.o)
                              CMakeFiles/azure-sphere-combo-cifar10-rtcore.dir/D_/CareerHack2021/project/app/lib_src/emergency_detect/main.cc.obj (strcmp)
c:/progra~2/microsoft visual studio/2019/community/linux/gcc_arm/bin/../lib/gcc/arm-none-eabi/8.2.1/../../../../arm-none-eabi/lib/thumb/v7e-m+fp/hard\libc_nano.a(lib_a-mlock.o)
                              c:/progra~2/microsoft visual studio/2019/community/linux/gcc_arm/bin/../lib/gcc/arm-none-eabi/8.2.1/../../../../arm-none-eabi/lib/thumb/v7e-m+fp/hard\libc_nano.a(lib_a-nano-freer.o) (__malloc_lock)
c:/progra~2/microsoft visual studio/2019/community/linux/gcc_arm/bin/../lib/gcc/arm-none-eabi/8.2.1/../../../../arm-none-eabi/lib/thumb/v7e-m+fp/hard\libc_nano.a(lib_a-reent.o)
                              c:/progra~2/microsoft visual studio/2019/community/linux/gcc_arm/bin/../lib/gcc/arm-none-eabi/8.2.1/../../../../arm-none-eabi/lib/thumb/v7e-m+fp/hard\libc_nano.a(lib_a-sbrkr.o) (errno)
c:/progra~2/microsoft visual studio/2019/community/linux/gcc_arm/bin/../lib/gcc/arm-none-eabi/8.2.1/../../../../arm-none-eabi/lib/thumb/v7e-m+fp/hard\libc_nano.a(lib_a-lock.o)
                              c:/progra~2/microsoft visual studio/2019/community/linux/gcc_arm/bin/../lib/gcc/arm-none-eabi/8.2.1/../../../../arm-none-eabi/lib/thumb/v7e-m+fp/hard\libc_nano.a(lib_a-mlock.o) (__retarget_lock_acquire_recursive)
c:/progra~2/microsoft visual studio/2019/community/linux/gcc_arm/bin/../lib/gcc/arm-none-eabi/8.2.1/../../../../arm-none-eabi/lib/thumb/v7e-m+fp/hard\libnosys.a(getpid.o)
                              c:/progra~2/microsoft visual studio/2019/community/linux/gcc_arm/bin/../lib/gcc/arm-none-eabi/8.2.1/../../../../arm-none-eabi/lib/thumb/v7e-m+fp/hard\libc_nano.a(lib_a-signalr.o) (_getpid)
c:/progra~2/microsoft visual studio/2019/community/linux/gcc_arm/bin/../lib/gcc/arm-none-eabi/8.2.1/../../../../arm-none-eabi/lib/thumb/v7e-m+fp/hard\libnosys.a(kill.o)
                              c:/progra~2/microsoft visual studio/2019/community/linux/gcc_arm/bin/../lib/gcc/arm-none-eabi/8.2.1/../../../../arm-none-eabi/lib/thumb/v7e-m+fp/hard\libc_nano.a(lib_a-signalr.o) (_kill)
c:/progra~2/microsoft visual studio/2019/community/linux/gcc_arm/bin/../lib/gcc/arm-none-eabi/8.2.1/../../../../arm-none-eabi/lib/thumb/v7e-m+fp/hard\libnosys.a(sbrk.o)
                              c:/progra~2/microsoft visual studio/2019/community/linux/gcc_arm/bin/../lib/gcc/arm-none-eabi/8.2.1/../../../../arm-none-eabi/lib/thumb/v7e-m+fp/hard\libc_nano.a(lib_a-sbrkr.o) (_sbrk)
c:/progra~2/microsoft visual studio/2019/community/linux/gcc_arm/bin/../lib/gcc/arm-none-eabi/8.2.1/../../../../arm-none-eabi/lib/thumb/v7e-m+fp/hard\libnosys.a(_exit.o)
                              c:/progra~2/microsoft visual studio/2019/community/linux/gcc_arm/bin/../lib/gcc/arm-none-eabi/8.2.1/../../../../arm-none-eabi/lib/thumb/v7e-m+fp/hard\libc_nano.a(lib_a-abort.o) (_exit)

Allocating common symbols
Common symbol       size              file

__lock___atexit_recursive_mutex
                    0x1               c:/progra~2/microsoft visual studio/2019/community/linux/gcc_arm/bin/../lib/gcc/arm-none-eabi/8.2.1/../../../../arm-none-eabi/lib/thumb/v7e-m+fp/hard\libc_nano.a(lib_a-lock.o)
__lock___arc4random_mutex
                    0x1               c:/progra~2/microsoft visual studio/2019/community/linux/gcc_arm/bin/../lib/gcc/arm-none-eabi/8.2.1/../../../../arm-none-eabi/lib/thumb/v7e-m+fp/hard\libc_nano.a(lib_a-lock.o)
errno               0x4               c:/progra~2/microsoft visual studio/2019/community/linux/gcc_arm/bin/../lib/gcc/arm-none-eabi/8.2.1/../../../../arm-none-eabi/lib/thumb/v7e-m+fp/hard\libc_nano.a(lib_a-reent.o)
__lock___env_recursive_mutex
                    0x1               c:/progra~2/microsoft visual studio/2019/community/linux/gcc_arm/bin/../lib/gcc/arm-none-eabi/8.2.1/../../../../arm-none-eabi/lib/thumb/v7e-m+fp/hard\libc_nano.a(lib_a-lock.o)
__lock___sinit_recursive_mutex
                    0x1               c:/progra~2/microsoft visual studio/2019/community/linux/gcc_arm/bin/../lib/gcc/arm-none-eabi/8.2.1/../../../../arm-none-eabi/lib/thumb/v7e-m+fp/hard\libc_nano.a(lib_a-lock.o)
__lock___malloc_recursive_mutex
                    0x1               c:/progra~2/microsoft visual studio/2019/community/linux/gcc_arm/bin/../lib/gcc/arm-none-eabi/8.2.1/../../../../arm-none-eabi/lib/thumb/v7e-m+fp/hard\libc_nano.a(lib_a-lock.o)
__lock___at_quick_exit_mutex
                    0x1               c:/progra~2/microsoft visual studio/2019/community/linux/gcc_arm/bin/../lib/gcc/arm-none-eabi/8.2.1/../../../../arm-none-eabi/lib/thumb/v7e-m+fp/hard\libc_nano.a(lib_a-lock.o)
__lock___dd_hash_mutex
                    0x1               c:/progra~2/microsoft visual studio/2019/community/linux/gcc_arm/bin/../lib/gcc/arm-none-eabi/8.2.1/../../../../arm-none-eabi/lib/thumb/v7e-m+fp/hard\libc_nano.a(lib_a-lock.o)
__lock___tz_mutex   0x1               c:/progra~2/microsoft visual studio/2019/community/linux/gcc_arm/bin/../lib/gcc/arm-none-eabi/8.2.1/../../../../arm-none-eabi/lib/thumb/v7e-m+fp/hard\libc_nano.a(lib_a-lock.o)
__lock___sfp_recursive_mutex
                    0x1               c:/progra~2/microsoft visual studio/2019/community/linux/gcc_arm/bin/../lib/gcc/arm-none-eabi/8.2.1/../../../../arm-none-eabi/lib/thumb/v7e-m+fp/hard\libc_nano.a(lib_a-lock.o)

Discarded input sections

 .text          0x00000000      0x144 CMakeFiles/azure-sphere-combo-cifar10-rtcore.dir/D_/CareerHack2021/project/source/RTCORE_OS_HAL/src/os_hal_gpio.c.obj
 .data          0x00000000       0x50 CMakeFiles/azure-sphere-combo-cifar10-rtcore.dir/D_/CareerHack2021/project/source/RTCORE_OS_HAL/src/os_hal_gpio.c.obj
 .bss           0x00000000        0x0 CMakeFiles/azure-sphere-combo-cifar10-rtcore.dir/D_/CareerHack2021/project/source/RTCORE_OS_HAL/src/os_hal_gpio.c.obj
 .debug_info    0x00000000     0x1001 CMakeFiles/azure-sphere-combo-cifar10-rtcore.dir/D_/CareerHack2021/project/source/RTCORE_OS_HAL/src/os_hal_gpio.c.obj
 .debug_abbrev  0x00000000      0x236 CMakeFiles/azure-sphere-combo-cifar10-rtcore.dir/D_/CareerHack2021/project/source/RTCORE_OS_HAL/src/os_hal_gpio.c.obj
 .debug_loc     0x00000000      0x280 CMakeFiles/azure-sphere-combo-cifar10-rtcore.dir/D_/CareerHack2021/project/source/RTCORE_OS_HAL/src/os_hal_gpio.c.obj
 .debug_aranges
                0x00000000       0x20 CMakeFiles/azure-sphere-combo-cifar10-rtcore.dir/D_/CareerHack2021/project/source/RTCORE_OS_HAL/src/os_hal_gpio.c.obj
 .debug_line    0x00000000      0x224 CMakeFiles/azure-sphere-combo-cifar10-rtcore.dir/D_/CareerHack2021/project/source/RTCORE_OS_HAL/src/os_hal_gpio.c.obj
 .debug_str     0x00000000      0xf5e CMakeFiles/azure-sphere-combo-cifar10-rtcore.dir/D_/CareerHack2021/project/source/RTCORE_OS_HAL/src/os_hal_gpio.c.obj
 .comment       0x00000000       0x76 CMakeFiles/azure-sphere-combo-cifar10-rtcore.dir/D_/CareerHack2021/project/source/RTCORE_OS_HAL/src/os_hal_gpio.c.obj
 .debug_frame   0x00000000      0x130 CMakeFiles/azure-sphere-combo-cifar10-rtcore.dir/D_/CareerHack2021/project/source/RTCORE_OS_HAL/src/os_hal_gpio.c.obj
 .ARM.attributes
                0x00000000       0x34 CMakeFiles/azure-sphere-combo-cifar10-rtcore.dir/D_/CareerHack2021/project/source/RTCORE_OS_HAL/src/os_hal_gpio.c.obj
 .data          0x00000000        0x0 CMakeFiles/azure-sphere-combo-cifar10-rtcore.dir/D_/CareerHack2021/project/source/RTCORE_OS_HAL/src/os_hal_mbox_shared_mem.c.obj
 .bss           0x00000000        0x0 CMakeFiles/azure-sphere-combo-cifar10-rtcore.dir/D_/CareerHack2021/project/source/RTCORE_OS_HAL/src/os_hal_mbox_shared_mem.c.obj
 .text          0x00000000        0x0 CMakeFiles/azure-sphere-combo-cifar10-rtcore.dir/D_/CareerHack2021/project/app/lib_src/emergency_detect/emergency-detect.cc.obj
 .data          0x00000000        0x0 CMakeFiles/azure-sphere-combo-cifar10-rtcore.dir/D_/CareerHack2021/project/app/lib_src/emergency_detect/emergency-detect.cc.obj
 .bss           0x00000000        0x0 CMakeFiles/azure-sphere-combo-cifar10-rtcore.dir/D_/CareerHack2021/project/app/lib_src/emergency_detect/emergency-detect.cc.obj
 .group         0x00000000       0x14 CMakeFiles/azure-sphere-combo-cifar10-rtcore.dir/D_/CareerHack2021/project/app/lib_src/emergency_detect/main.cc.obj
 .group         0x00000000        0x8 CMakeFiles/azure-sphere-combo-cifar10-rtcore.dir/D_/CareerHack2021/project/app/lib_src/emergency_detect/main.cc.obj
 .group         0x00000000        0xc CMakeFiles/azure-sphere-combo-cifar10-rtcore.dir/D_/CareerHack2021/project/app/lib_src/emergency_detect/main.cc.obj
 .group         0x00000000        0xc CMakeFiles/azure-sphere-combo-cifar10-rtcore.dir/D_/CareerHack2021/project/app/lib_src/emergency_detect/main.cc.obj
 .group         0x00000000        0xc CMakeFiles/azure-sphere-combo-cifar10-rtcore.dir/D_/CareerHack2021/project/app/lib_src/emergency_detect/main.cc.obj
 .group         0x00000000        0xc CMakeFiles/azure-sphere-combo-cifar10-rtcore.dir/D_/CareerHack2021/project/app/lib_src/emergency_detect/main.cc.obj
 .group         0x00000000       0x14 CMakeFiles/azure-sphere-combo-cifar10-rtcore.dir/D_/CareerHack2021/project/app/lib_src/emergency_detect/main.cc.obj
 .group         0x00000000        0x8 CMakeFiles/azure-sphere-combo-cifar10-rtcore.dir/D_/CareerHack2021/project/app/lib_src/emergency_detect/main.cc.obj
 .group         0x00000000        0x8 CMakeFiles/azure-sphere-combo-cifar10-rtcore.dir/D_/CareerHack2021/project/app/lib_src/emergency_detect/main.cc.obj
 .group         0x00000000       0x14 CMakeFiles/azure-sphere-combo-cifar10-rtcore.dir/D_/CareerHack2021/project/app/lib_src/emergency_detect/main.cc.obj
 .group         0x00000000       0x14 CMakeFiles/azure-sphere-combo-cifar10-rtcore.dir/D_/CareerHack2021/project/app/lib_src/emergency_detect/main.cc.obj
 .group         0x00000000        0x8 CMakeFiles/azure-sphere-combo-cifar10-rtcore.dir/D_/CareerHack2021/project/app/lib_src/emergency_detect/main.cc.obj
 .group         0x00000000        0x8 CMakeFiles/azure-sphere-combo-cifar10-rtcore.dir/D_/CareerHack2021/project/app/lib_src/emergency_detect/main.cc.obj
 .group         0x00000000        0xc CMakeFiles/azure-sphere-combo-cifar10-rtcore.dir/D_/CareerHack2021/project/app/lib_src/emergency_detect/main.cc.obj
 .group         0x00000000        0xc CMakeFiles/azure-sphere-combo-cifar10-rtcore.dir/D_/CareerHack2021/project/app/lib_src/emergency_detect/main.cc.obj
 .group         0x00000000        0xc CMakeFiles/azure-sphere-combo-cifar10-rtcore.dir/D_/CareerHack2021/project/app/lib_src/emergency_detect/main.cc.obj
 .group         0x00000000        0xc CMakeFiles/azure-sphere-combo-cifar10-rtcore.dir/D_/CareerHack2021/project/app/lib_src/emergency_detect/main.cc.obj
 .group         0x00000000        0xc CMakeFiles/azure-sphere-combo-cifar10-rtcore.dir/D_/CareerHack2021/project/app/lib_src/emergency_detect/main.cc.obj
 .group         0x00000000        0xc CMakeFiles/azure-sphere-combo-cifar10-rtcore.dir/D_/CareerHack2021/project/app/lib_src/emergency_detect/main.cc.obj
 .group         0x00000000        0xc CMakeFiles/azure-sphere-combo-cifar10-rtcore.dir/D_/CareerHack2021/project/app/lib_src/emergency_detect/main.cc.obj
 .group         0x00000000        0xc CMakeFiles/azure-sphere-combo-cifar10-rtcore.dir/D_/CareerHack2021/project/app/lib_src/emergency_detect/main.cc.obj
 .group         0x00000000        0xc CMakeFiles/azure-sphere-combo-cifar10-rtcore.dir/D_/CareerHack2021/project/app/lib_src/emergency_detect/main.cc.obj
 .group         0x00000000        0x8 CMakeFiles/azure-sphere-combo-cifar10-rtcore.dir/D_/CareerHack2021/project/app/lib_src/emergency_detect/main.cc.obj
 .group         0x00000000        0x8 CMakeFiles/azure-sphere-combo-cifar10-rtcore.dir/D_/CareerHack2021/project/app/lib_src/emergency_detect/main.cc.obj
 .group         0x00000000        0xc CMakeFiles/azure-sphere-combo-cifar10-rtcore.dir/D_/CareerHack2021/project/app/lib_src/emergency_detect/main.cc.obj
 .group         0x00000000        0xc CMakeFiles/azure-sphere-combo-cifar10-rtcore.dir/D_/CareerHack2021/project/app/lib_src/emergency_detect/main.cc.obj
 .group         0x00000000        0x8 CMakeFiles/azure-sphere-combo-cifar10-rtcore.dir/D_/CareerHack2021/project/app/lib_src/emergency_detect/main.cc.obj
 .group         0x00000000        0xc CMakeFiles/azure-sphere-combo-cifar10-rtcore.dir/D_/CareerHack2021/project/app/lib_src/emergency_detect/main.cc.obj
 .group         0x00000000       0x14 CMakeFiles/azure-sphere-combo-cifar10-rtcore.dir/D_/CareerHack2021/project/app/lib_src/emergency_detect/main.cc.obj
 .group         0x00000000        0xc CMakeFiles/azure-sphere-combo-cifar10-rtcore.dir/D_/CareerHack2021/project/app/lib_src/emergency_detect/main.cc.obj
 .group         0x00000000        0xc CMakeFiles/azure-sphere-combo-cifar10-rtcore.dir/D_/CareerHack2021/project/app/lib_src/emergency_detect/main.cc.obj
 .group         0x00000000        0xc CMakeFiles/azure-sphere-combo-cifar10-rtcore.dir/D_/CareerHack2021/project/app/lib_src/emergency_detect/main.cc.obj
 .group         0x00000000        0x8 CMakeFiles/azure-sphere-combo-cifar10-rtcore.dir/D_/CareerHack2021/project/app/lib_src/emergency_detect/main.cc.obj
 .group         0x00000000        0xc CMakeFiles/azure-sphere-combo-cifar10-rtcore.dir/D_/CareerHack2021/project/app/lib_src/emergency_detect/main.cc.obj
 .group         0x00000000        0x8 CMakeFiles/azure-sphere-combo-cifar10-rtcore.dir/D_/CareerHack2021/project/app/lib_src/emergency_detect/main.cc.obj
 .text          0x00000000        0x0 CMakeFiles/azure-sphere-combo-cifar10-rtcore.dir/D_/CareerHack2021/project/app/lib_src/emergency_detect/main.cc.obj
 .data          0x00000000        0x0 CMakeFiles/azure-sphere-combo-cifar10-rtcore.dir/D_/CareerHack2021/project/app/lib_src/emergency_detect/main.cc.obj
 .bss           0x00000000        0x0 CMakeFiles/azure-sphere-combo-cifar10-rtcore.dir/D_/CareerHack2021/project/app/lib_src/emergency_detect/main.cc.obj
 .rodata._ZStL19piecewise_construct
                0x00000000        0x1 CMakeFiles/azure-sphere-combo-cifar10-rtcore.dir/D_/CareerHack2021/project/app/lib_src/emergency_detect/main.cc.obj
 .text._ZL20__gthread_key_deletei
                0x00000000       0x16 CMakeFiles/azure-sphere-combo-cifar10-rtcore.dir/D_/CareerHack2021/project/app/lib_src/emergency_detect/main.cc.obj
 .rodata._ZN9__gnu_cxxL21__default_lock_policyE
                0x00000000        0x1 CMakeFiles/azure-sphere-combo-cifar10-rtcore.dir/D_/CareerHack2021/project/app/lib_src/emergency_detect/main.cc.obj
 .rodata._ZStL13allocator_arg
                0x00000000        0x1 CMakeFiles/azure-sphere-combo-cifar10-rtcore.dir/D_/CareerHack2021/project/app/lib_src/emergency_detect/main.cc.obj
 .rodata._ZStL6ignore
                0x00000000        0x1 CMakeFiles/azure-sphere-combo-cifar10-rtcore.dir/D_/CareerHack2021/project/app/lib_src/emergency_detect/main.cc.obj
 .data._ZN11flatbuffers25flatbuffer_version_stringE
                0x00000000        0x4 CMakeFiles/azure-sphere-combo-cifar10-rtcore.dir/D_/CareerHack2021/project/app/lib_src/emergency_detect/main.cc.obj
 .rodata._ZL17tensor_arena_size
                0x00000000        0x4 CMakeFiles/azure-sphere-combo-cifar10-rtcore.dir/D_/CareerHack2021/project/app/lib_src/emergency_detect/main.cc.obj
 .rodata._ZL27emergency_detect_input_size
                0x00000000        0x4 CMakeFiles/azure-sphere-combo-cifar10-rtcore.dir/D_/CareerHack2021/project/app/lib_src/emergency_detect/main.cc.obj
 .data          0x00000000        0x0 lib/MT3620_M4_Driver/libMT3620_M4_Driver.a(printf.c.obj)
 .bss           0x00000000        0x0 lib/MT3620_M4_Driver/libMT3620_M4_Driver.a(printf.c.obj)
 .text          0x00000000      0xd20 lib/MT3620_M4_Driver/libMT3620_M4_Driver.a(mhal_gpio.c.obj)
 .data          0x00000000        0x0 lib/MT3620_M4_Driver/libMT3620_M4_Driver.a(mhal_gpio.c.obj)
 .bss           0x00000000        0x0 lib/MT3620_M4_Driver/libMT3620_M4_Driver.a(mhal_gpio.c.obj)
 .rodata        0x00000000       0x9c lib/MT3620_M4_Driver/libMT3620_M4_Driver.a(mhal_gpio.c.obj)
 .debug_info    0x00000000     0x15cd lib/MT3620_M4_Driver/libMT3620_M4_Driver.a(mhal_gpio.c.obj)
 .debug_abbrev  0x00000000      0x2ac lib/MT3620_M4_Driver/libMT3620_M4_Driver.a(mhal_gpio.c.obj)
 .debug_loc     0x00000000      0x4ba lib/MT3620_M4_Driver/libMT3620_M4_Driver.a(mhal_gpio.c.obj)
 .debug_aranges
                0x00000000       0x20 lib/MT3620_M4_Driver/libMT3620_M4_Driver.a(mhal_gpio.c.obj)
 .debug_line    0x00000000      0x6d4 lib/MT3620_M4_Driver/libMT3620_M4_Driver.a(mhal_gpio.c.obj)
 .debug_str     0x00000000      0xf93 lib/MT3620_M4_Driver/libMT3620_M4_Driver.a(mhal_gpio.c.obj)
 .comment       0x00000000       0x76 lib/MT3620_M4_Driver/libMT3620_M4_Driver.a(mhal_gpio.c.obj)
 .debug_frame   0x00000000      0x24c lib/MT3620_M4_Driver/libMT3620_M4_Driver.a(mhal_gpio.c.obj)
 .ARM.attributes
                0x00000000       0x34 lib/MT3620_M4_Driver/libMT3620_M4_Driver.a(mhal_gpio.c.obj)
 .text          0x00000000       0xf2 lib/MT3620_M4_Driver/libMT3620_M4_Driver.a(hdl_gpio.c.obj)
 .data          0x00000000        0x0 lib/MT3620_M4_Driver/libMT3620_M4_Driver.a(hdl_gpio.c.obj)
 .bss           0x00000000        0x0 lib/MT3620_M4_Driver/libMT3620_M4_Driver.a(hdl_gpio.c.obj)
 .debug_info    0x00000000      0xb54 lib/MT3620_M4_Driver/libMT3620_M4_Driver.a(hdl_gpio.c.obj)
 .debug_abbrev  0x00000000      0x1f8 lib/MT3620_M4_Driver/libMT3620_M4_Driver.a(hdl_gpio.c.obj)
 .debug_loc     0x00000000      0x140 lib/MT3620_M4_Driver/libMT3620_M4_Driver.a(hdl_gpio.c.obj)
 .debug_aranges
                0x00000000       0x20 lib/MT3620_M4_Driver/libMT3620_M4_Driver.a(hdl_gpio.c.obj)
 .debug_line    0x00000000      0x1ec lib/MT3620_M4_Driver/libMT3620_M4_Driver.a(hdl_gpio.c.obj)
 .debug_str     0x00000000      0x648 lib/MT3620_M4_Driver/libMT3620_M4_Driver.a(hdl_gpio.c.obj)
 .comment       0x00000000       0x76 lib/MT3620_M4_Driver/libMT3620_M4_Driver.a(hdl_gpio.c.obj)
 .debug_frame   0x00000000       0xa0 lib/MT3620_M4_Driver/libMT3620_M4_Driver.a(hdl_gpio.c.obj)
 .ARM.attributes
                0x00000000       0x34 lib/MT3620_M4_Driver/libMT3620_M4_Driver.a(hdl_gpio.c.obj)
 .data          0x00000000        0x0 lib/MT3620_M4_Driver/libMT3620_M4_Driver.a(mhal_uart.c.obj)
 .bss           0x00000000        0x0 lib/MT3620_M4_Driver/libMT3620_M4_Driver.a(mhal_uart.c.obj)
 .data          0x00000000        0x0 lib/MT3620_M4_Driver/libMT3620_M4_Driver.a(hdl_uart.c.obj)
 .bss           0x00000000        0x0 lib/MT3620_M4_Driver/libMT3620_M4_Driver.a(hdl_uart.c.obj)
 .data          0x00000000        0x0 lib/MT3620_M4_Driver/libMT3620_M4_Driver.a(mhal_mbox.c.obj)
 .bss           0x00000000        0x0 lib/MT3620_M4_Driver/libMT3620_M4_Driver.a(mhal_mbox.c.obj)
 .data          0x00000000        0x0 lib/MT3620_M4_Driver/libMT3620_M4_Driver.a(hdl_mbox.c.obj)
 .bss           0x00000000        0x0 lib/MT3620_M4_Driver/libMT3620_M4_Driver.a(hdl_mbox.c.obj)
 .data          0x00000000        0x0 lib/MT3620_M4_Driver/libMT3620_M4_Driver.a(mhal_osai.c.obj)
 .bss           0x00000000        0x0 lib/MT3620_M4_Driver/libMT3620_M4_Driver.a(mhal_osai.c.obj)
 .group         0x00000000        0x8 ../../../../../../prebuilts/lib/libtensorflow-microlite.a(micro_error_reporter.o)
 .group         0x00000000        0x8 ../../../../../../prebuilts/lib/libtensorflow-microlite.a(micro_error_reporter.o)
 .group         0x00000000        0x8 ../../../../../../prebuilts/lib/libtensorflow-microlite.a(micro_error_reporter.o)
 .group         0x00000000        0x8 ../../../../../../prebuilts/lib/libtensorflow-microlite.a(micro_error_reporter.o)
 .group         0x00000000        0x8 ../../../../../../prebuilts/lib/libtensorflow-microlite.a(micro_error_reporter.o)
 .text          0x00000000        0x0 ../../../../../../prebuilts/lib/libtensorflow-microlite.a(micro_error_reporter.o)
 .data          0x00000000        0x0 ../../../../../../prebuilts/lib/libtensorflow-microlite.a(micro_error_reporter.o)
 .bss           0x00000000        0x0 ../../../../../../prebuilts/lib/libtensorflow-microlite.a(micro_error_reporter.o)
 .text._ZN6tflite13ErrorReporterD2Ev
                0x00000000        0xc ../../../../../../prebuilts/lib/libtensorflow-microlite.a(micro_error_reporter.o)
 .text._ZN6tflite18MicroErrorReporterD2Ev
                0x00000000        0xc ../../../../../../prebuilts/lib/libtensorflow-microlite.a(micro_error_reporter.o)
 .text._ZN6tflite18MicroErrorReporterD0Ev
                0x00000000        0xc ../../../../../../prebuilts/lib/libtensorflow-microlite.a(micro_error_reporter.o)
 .text._ZN6tflite13ErrorReporterD0Ev
                0x00000000       0x14 ../../../../../../prebuilts/lib/libtensorflow-microlite.a(micro_error_reporter.o)
 .rodata._ZTVN6tflite13ErrorReporterE
                0x00000000       0x18 ../../../../../../prebuilts/lib/libtensorflow-microlite.a(micro_error_reporter.o)
 .group         0x00000000        0x8 ../../../../../../prebuilts/lib/libtensorflow-microlite.a(micro_interpreter.o)
 .group         0x00000000        0x8 ../../../../../../prebuilts/lib/libtensorflow-microlite.a(micro_interpreter.o)
 .group         0x00000000        0x8 ../../../../../../prebuilts/lib/libtensorflow-microlite.a(micro_interpreter.o)
 .group         0x00000000        0x8 ../../../../../../prebuilts/lib/libtensorflow-microlite.a(micro_interpreter.o)
 .text          0x00000000        0x0 ../../../../../../prebuilts/lib/libtensorflow-microlite.a(micro_interpreter.o)
 .data          0x00000000        0x0 ../../../../../../prebuilts/lib/libtensorflow-microlite.a(micro_interpreter.o)
 .bss           0x00000000        0x0 ../../../../../../prebuilts/lib/libtensorflow-microlite.a(micro_interpreter.o)
 .text._ZNK11flatbuffers5Table22GetOptionalFieldOffsetEt
                0x00000000       0x12 ../../../../../../prebuilts/lib/libtensorflow-microlite.a(micro_interpreter.o)
 .text._ZN6tflite16MicroInterpreterC2EPKNS_5ModelEPKNS_15MicroOpResolverEPNS_14MicroAllocatorEPNS_13ErrorReporterEPNS_8ProfilerE
                0x00000000       0x44 ../../../../../../prebuilts/lib/libtensorflow-microlite.a(micro_interpreter.o)
 .text._ZN6tflite16MicroInterpreter23CorrectTensorEndiannessEP12TfLiteTensor
                0x00000000        0x2 ../../../../../../prebuilts/lib/libtensorflow-microlite.a(micro_interpreter.o)
 .text._ZN6tflite16MicroInterpreter6tensorEj
                0x00000000       0x24 ../../../../../../prebuilts/lib/libtensorflow-microlite.a(micro_interpreter.o)
 .text._ZN6tflite16MicroInterpreter20ResetVariableTensorsEv
                0x00000000       0x3c ../../../../../../prebuilts/lib/libtensorflow-microlite.a(micro_interpreter.o)
 .data._ZN11flatbuffers25flatbuffer_version_stringE
                0x00000000        0x4 ../../../../../../prebuilts/lib/libtensorflow-microlite.a(micro_interpreter.o)
 .text          0x00000000        0x0 ../../../../../../prebuilts/lib/libtensorflow-microlite.a(micro_string.o)
 .data          0x00000000        0x0 ../../../../../../prebuilts/lib/libtensorflow-microlite.a(micro_string.o)
 .bss           0x00000000        0x0 ../../../../../../prebuilts/lib/libtensorflow-microlite.a(micro_string.o)
 .text.MicroSnprintf
                0x00000000       0x1a ../../../../../../prebuilts/lib/libtensorflow-microlite.a(micro_string.o)
 .text          0x00000000        0x0 ../../../../../../prebuilts/lib/libtensorflow-microlite.a(simple_memory_allocator.o)
 .data          0x00000000        0x0 ../../../../../../prebuilts/lib/libtensorflow-microlite.a(simple_memory_allocator.o)
 .bss           0x00000000        0x0 ../../../../../../prebuilts/lib/libtensorflow-microlite.a(simple_memory_allocator.o)
 .text._ZN6tflite21SimpleMemoryAllocatorC2EPNS_13ErrorReporterEPhj
                0x00000000       0x18 ../../../../../../prebuilts/lib/libtensorflow-microlite.a(simple_memory_allocator.o)
 .text._ZNK6tflite21SimpleMemoryAllocator16GetHeadUsedBytesEv
                0x00000000        0x8 ../../../../../../prebuilts/lib/libtensorflow-microlite.a(simple_memory_allocator.o)
 .text._ZNK6tflite21SimpleMemoryAllocator16GetTailUsedBytesEv
                0x00000000        0x8 ../../../../../../prebuilts/lib/libtensorflow-microlite.a(simple_memory_allocator.o)
 .text._ZNK6tflite21SimpleMemoryAllocator12GetUsedBytesEv
                0x00000000       0x10 ../../../../../../prebuilts/lib/libtensorflow-microlite.a(simple_memory_allocator.o)
 .text._ZNK6tflite21SimpleMemoryAllocator13GetBufferSizeEv
                0x00000000        0x8 ../../../../../../prebuilts/lib/libtensorflow-microlite.a(simple_memory_allocator.o)
 .data._ZN11flatbuffers25flatbuffer_version_stringE
                0x00000000        0x4 ../../../../../../prebuilts/lib/libtensorflow-microlite.a(simple_memory_allocator.o)
 .text          0x00000000        0x0 ../../../../../../prebuilts/lib/libtensorflow-microlite.a(error_reporter.o)
 .data          0x00000000        0x0 ../../../../../../prebuilts/lib/libtensorflow-microlite.a(error_reporter.o)
 .bss           0x00000000        0x0 ../../../../../../prebuilts/lib/libtensorflow-microlite.a(error_reporter.o)
 .group         0x00000000        0x8 ../../../../../../prebuilts/lib/libtensorflow-microlite.a(flatbuffer_conversions.o)
 .group         0x00000000        0x8 ../../../../../../prebuilts/lib/libtensorflow-microlite.a(flatbuffer_conversions.o)
 .group         0x00000000        0x8 ../../../../../../prebuilts/lib/libtensorflow-microlite.a(flatbuffer_conversions.o)
 .group         0x00000000        0x8 ../../../../../../prebuilts/lib/libtensorflow-microlite.a(flatbuffer_conversions.o)
 .group         0x00000000        0x8 ../../../../../../prebuilts/lib/libtensorflow-microlite.a(flatbuffer_conversions.o)
 .group         0x00000000        0x8 ../../../../../../prebuilts/lib/libtensorflow-microlite.a(flatbuffer_conversions.o)
 .group         0x00000000        0x8 ../../../../../../prebuilts/lib/libtensorflow-microlite.a(flatbuffer_conversions.o)
 .text          0x00000000        0x0 ../../../../../../prebuilts/lib/libtensorflow-microlite.a(flatbuffer_conversions.o)
 .data          0x00000000        0x0 ../../../../../../prebuilts/lib/libtensorflow-microlite.a(flatbuffer_conversions.o)
 .bss           0x00000000        0x0 ../../../../../../prebuilts/lib/libtensorflow-microlite.a(flatbuffer_conversions.o)
 .text._ZNK11flatbuffers5Table22GetOptionalFieldOffsetEt
                0x00000000       0x12 ../../../../../../prebuilts/lib/libtensorflow-microlite.a(flatbuffer_conversions.o)
 .text._ZN6tflite15ParseDequantizeEPKNS_8OperatorENS_15BuiltinOperatorEPNS_13ErrorReporterEPNS_20BuiltinDataAllocatorEPPv
                0x00000000        0x4 ../../../../../../prebuilts/lib/libtensorflow-microlite.a(flatbuffer_conversions.o)
 .text._ZN6tflite13ParseQuantizeEPKNS_8OperatorENS_15BuiltinOperatorEPNS_13ErrorReporterEPNS_20BuiltinDataAllocatorEPPv
                0x00000000        0x4 ../../../../../../prebuilts/lib/libtensorflow-microlite.a(flatbuffer_conversions.o)
 .data._ZN11flatbuffers25flatbuffer_version_stringE
                0x00000000        0x4 ../../../../../../prebuilts/lib/libtensorflow-microlite.a(flatbuffer_conversions.o)
 .text          0x00000000        0x0 ../../../../../../prebuilts/lib/libtensorflow-microlite.a(tensor_utils.o)
 .data          0x00000000        0x0 ../../../../../../prebuilts/lib/libtensorflow-microlite.a(tensor_utils.o)
 .bss           0x00000000        0x0 ../../../../../../prebuilts/lib/libtensorflow-microlite.a(tensor_utils.o)
 .text          0x00000000        0x0 ../../../../../../prebuilts/lib/libtensorflow-microlite.a(dynamic_agent.o)
 .data          0x00000000        0x0 ../../../../../../prebuilts/lib/libtensorflow-microlite.a(dynamic_agent.o)
 .bss           0x00000000        0x0 ../../../../../../prebuilts/lib/libtensorflow-microlite.a(dynamic_agent.o)
 .text._ZN6tflite12DynamicAgent17EnableDynamicLoadEv
                0x00000000        0x8 ../../../../../../prebuilts/lib/libtensorflow-microlite.a(dynamic_agent.o)
 .text._ZN6tflite12DynamicAgent18DisableDynamicLoadEv
                0x00000000       0x18 ../../../../../../prebuilts/lib/libtensorflow-microlite.a(dynamic_agent.o)
 .text._ZN6tflite12DynamicAgent19IsFineGrainedOpcodeEl
                0x00000000       0x1c ../../../../../../prebuilts/lib/libtensorflow-microlite.a(dynamic_agent.o)
 .text._ZN6tflite12DynamicAgent20SetFineGrainedEnableEb
                0x00000000        0x6 ../../../../../../prebuilts/lib/libtensorflow-microlite.a(dynamic_agent.o)
 .text._ZN6tflite12DynamicAgent15SetSizeOrientedEb
                0x00000000        0x6 ../../../../../../prebuilts/lib/libtensorflow-microlite.a(dynamic_agent.o)
 .text._ZN6tflite12DynamicAgent19SetDynamicArenaSizeEj
                0x00000000       0x12 ../../../../../../prebuilts/lib/libtensorflow-microlite.a(dynamic_agent.o)
 .text._ZN6tflite12DynamicAgent18SetFineGrainedSizeEj
                0x00000000        0xe ../../../../../../prebuilts/lib/libtensorflow-microlite.a(dynamic_agent.o)
 .text._ZN6tflite12DynamicAgent14SetCacheEnableEb
                0x00000000        0x8 ../../../../../../prebuilts/lib/libtensorflow-microlite.a(dynamic_agent.o)
 .text._ZN6tflite12DynamicAgent11PrintConfigEv
                0x00000000       0x7c ../../../../../../prebuilts/lib/libtensorflow-microlite.a(dynamic_agent.o)
 .data._ZN11flatbuffers25flatbuffer_version_stringE
                0x00000000        0x4 ../../../../../../prebuilts/lib/libtensorflow-microlite.a(dynamic_agent.o)
 .text          0x00000000        0x0 ../../../../../../prebuilts/lib/libtensorflow-microlite.a(dynamic_context.o)
 .data          0x00000000        0x0 ../../../../../../prebuilts/lib/libtensorflow-microlite.a(dynamic_context.o)
 .bss           0x00000000        0x0 ../../../../../../prebuilts/lib/libtensorflow-microlite.a(dynamic_context.o)
 .text          0x00000000        0x0 ../../../../../../prebuilts/lib/libtensorflow-microlite.a(npu_platform.o)
 .data          0x00000000        0x0 ../../../../../../prebuilts/lib/libtensorflow-microlite.a(npu_platform.o)
 .bss           0x00000000        0x0 ../../../../../../prebuilts/lib/libtensorflow-microlite.a(npu_platform.o)
 .text.PlatMemoryCopy
                0x00000000        0x4 ../../../../../../prebuilts/lib/libtensorflow-microlite.a(npu_platform.o)
 .text          0x00000000        0x0 ../../../../../../prebuilts/lib/libtensorflow-microlite.a(fully_connected.o)
 .data          0x00000000        0x0 ../../../../../../prebuilts/lib/libtensorflow-microlite.a(fully_connected.o)
 .bss           0x00000000        0x0 ../../../../../../prebuilts/lib/libtensorflow-microlite.a(fully_connected.o)
 .data._ZN11flatbuffers25flatbuffer_version_stringE
                0x00000000        0x4 ../../../../../../prebuilts/lib/libtensorflow-microlite.a(fully_connected.o)
 .text          0x00000000        0x0 ../../../../../../prebuilts/lib/libtensorflow-microlite.a(pooling.o)
 .data          0x00000000        0x0 ../../../../../../prebuilts/lib/libtensorflow-microlite.a(pooling.o)
 .bss           0x00000000        0x0 ../../../../../../prebuilts/lib/libtensorflow-microlite.a(pooling.o)
 .data._ZN11flatbuffers25flatbuffer_version_stringE
                0x00000000        0x4 ../../../../../../prebuilts/lib/libtensorflow-microlite.a(pooling.o)
 .text          0x00000000        0x0 ../../../../../../prebuilts/lib/libtensorflow-microlite.a(reshape.o)
 .data          0x00000000        0x0 ../../../../../../prebuilts/lib/libtensorflow-microlite.a(reshape.o)
 .bss           0x00000000        0x0 ../../../../../../prebuilts/lib/libtensorflow-microlite.a(reshape.o)
 .data._ZN11flatbuffers25flatbuffer_version_stringE
                0x00000000        0x4 ../../../../../../prebuilts/lib/libtensorflow-microlite.a(reshape.o)
 .group         0x00000000        0x8 ../../../../../../prebuilts/lib/libtensorflow-microlite.a(softmax.o)
 .group         0x00000000        0x8 ../../../../../../prebuilts/lib/libtensorflow-microlite.a(softmax.o)
 .group         0x00000000        0x8 ../../../../../../prebuilts/lib/libtensorflow-microlite.a(softmax.o)
 .text          0x00000000        0x0 ../../../../../../prebuilts/lib/libtensorflow-microlite.a(softmax.o)
 .data          0x00000000        0x0 ../../../../../../prebuilts/lib/libtensorflow-microlite.a(softmax.o)
 .bss           0x00000000        0x0 ../../../../../../prebuilts/lib/libtensorflow-microlite.a(softmax.o)
 .data._ZN11flatbuffers25flatbuffer_version_stringE
                0x00000000        0x4 ../../../../../../prebuilts/lib/libtensorflow-microlite.a(softmax.o)
 .text          0x00000000        0x0 ../../../../../../prebuilts/lib/libtensorflow-microlite.a(quantization_util.o)
 .data          0x00000000        0x0 ../../../../../../prebuilts/lib/libtensorflow-microlite.a(quantization_util.o)
 .bss           0x00000000        0x0 ../../../../../../prebuilts/lib/libtensorflow-microlite.a(quantization_util.o)
 .text._ZN6tflite32QuantizeMultiplierGreaterThanOneEdPlPi
                0x00000000       0xa0 ../../../../../../prebuilts/lib/libtensorflow-microlite.a(quantization_util.o)
 .text._ZN6tflite35QuantizeMultiplierSmallerThanOneExpEdPlPi
                0x00000000       0xb0 ../../../../../../prebuilts/lib/libtensorflow-microlite.a(quantization_util.o)
 .text._ZN6tflite12IntegerFrExpEdPi
                0x00000000      0x108 ../../../../../../prebuilts/lib/libtensorflow-microlite.a(quantization_util.o)
 .text._ZN6tflite26DoubleFromFractionAndShiftExi
                0x00000000      0x114 ../../../../../../prebuilts/lib/libtensorflow-microlite.a(quantization_util.o)
 .text._ZN6tflite21IntegerDoubleMultiplyEdd
                0x00000000      0x2e0 ../../../../../../prebuilts/lib/libtensorflow-microlite.a(quantization_util.o)
 .text._ZN6tflite20IntegerDoubleCompareEdd
                0x00000000      0x1e8 ../../../../../../prebuilts/lib/libtensorflow-microlite.a(quantization_util.o)
 .text._ZN6tflite30PreprocessLogSoftmaxScalingExpEddiPlPiS0_S1_
                0x00000000      0x1c0 ../../../../../../prebuilts/lib/libtensorflow-microlite.a(quantization_util.o)
 .text._ZN6tflite22NudgeQuantizationRangeEffiiPfS0_S0_
                0x00000000       0xa0 ../../../../../../prebuilts/lib/libtensorflow-microlite.a(quantization_util.o)
 .text._ZN6tflite17FakeQuantizeArrayEfffPKfPff
                0x00000000       0x98 ../../../../../../prebuilts/lib/libtensorflow-microlite.a(quantization_util.o)
 .text._ZN6tflite11CheckedLog2EfPi
                0x00000000       0x60 ../../../../../../prebuilts/lib/libtensorflow-microlite.a(quantization_util.o)
 .text._ZN6tflite23QuantizeMultiplierArrayEPKdjPlPi
                0x00000000       0xa8 ../../../../../../prebuilts/lib/libtensorflow-microlite.a(quantization_util.o)
 .text          0x00000000        0x0 ../../../../../../prebuilts/lib/libtensorflow-microlite.a(kernel_util.o)
 .data          0x00000000        0x0 ../../../../../../prebuilts/lib/libtensorflow-microlite.a(kernel_util.o)
 .bss           0x00000000        0x0 ../../../../../../prebuilts/lib/libtensorflow-microlite.a(kernel_util.o)
 .text._ZN6tflite32GetQuantizedConvolutionMultiplerEP13TfLiteContextPK12TfLiteTensorS4_PS2_Pd
                0x00000000       0x68 ../../../../../../prebuilts/lib/libtensorflow-microlite.a(kernel_util.o)
 .text._ZN6tflite37PopulateConvolutionQuantizationParamsEP13TfLiteContextPK12TfLiteTensorS4_S4_PS2_RK21TfLiteFusedActivationPlPiS9_S9_S9_SA_
                0x00000000      0x318 ../../../../../../prebuilts/lib/libtensorflow-microlite.a(kernel_util.o)
 .text._ZN6tflite14HaveSameShapesEPK12TfLiteTensorS2_
                0x00000000       0x14 ../../../../../../prebuilts/lib/libtensorflow-microlite.a(kernel_util.o)
 .data._ZN11flatbuffers25flatbuffer_version_stringE
                0x00000000        0x4 ../../../../../../prebuilts/lib/libtensorflow-microlite.a(kernel_util.o)
 .text          0x00000000        0x0 ../../../../../../prebuilts/lib/libtensorflow-microlite.a(conv.o)
 .data          0x00000000        0x0 ../../../../../../prebuilts/lib/libtensorflow-microlite.a(conv.o)
 .bss           0x00000000        0x0 ../../../../../../prebuilts/lib/libtensorflow-microlite.a(conv.o)
 .text._ZN6tflite3ops5micro4conv15CalculateOpDataEP13TfLiteContextP10TfLiteNodeP16TfLiteConvParamsiiiiii10TfLiteTypePNS2_6OpDataE
                0x00000000      0x220 ../../../../../../prebuilts/lib/libtensorflow-microlite.a(conv.o)
 .data._ZN11flatbuffers25flatbuffer_version_stringE
                0x00000000        0x4 ../../../../../../prebuilts/lib/libtensorflow-microlite.a(conv.o)
 .text          0x00000000        0x0 ../../../../../../prebuilts/lib/libtensorflow-microlite.a(depthwise_conv.o)
 .data          0x00000000        0x0 ../../../../../../prebuilts/lib/libtensorflow-microlite.a(depthwise_conv.o)
 .bss           0x00000000        0x0 ../../../../../../prebuilts/lib/libtensorflow-microlite.a(depthwise_conv.o)
 .data._ZN11flatbuffers25flatbuffer_version_stringE
                0x00000000        0x4 ../../../../../../prebuilts/lib/libtensorflow-microlite.a(depthwise_conv.o)
 .text          0x00000000        0x0 ../../../../../../prebuilts/lib/libtensorflow-microlite.a(debug_log.o)
 .data          0x00000000        0x0 ../../../../../../prebuilts/lib/libtensorflow-microlite.a(debug_log.o)
 .bss           0x00000000        0x0 ../../../../../../prebuilts/lib/libtensorflow-microlite.a(debug_log.o)
 .text          0x00000000        0x0 ../../../../../../prebuilts/lib/libtensorflow-microlite.a(memory_helpers.o)
 .data          0x00000000        0x0 ../../../../../../prebuilts/lib/libtensorflow-microlite.a(memory_helpers.o)
 .bss           0x00000000        0x0 ../../../../../../prebuilts/lib/libtensorflow-microlite.a(memory_helpers.o)
 .data._ZN11flatbuffers25flatbuffer_version_stringE
                0x00000000        0x4 ../../../../../../prebuilts/lib/libtensorflow-microlite.a(memory_helpers.o)
 .group         0x00000000        0x8 ../../../../../../prebuilts/lib/libtensorflow-microlite.a(micro_allocator.o)
 .group         0x00000000        0x8 ../../../../../../prebuilts/lib/libtensorflow-microlite.a(micro_allocator.o)
 .group         0x00000000        0x8 ../../../../../../prebuilts/lib/libtensorflow-microlite.a(micro_allocator.o)
 .group         0x00000000        0x8 ../../../../../../prebuilts/lib/libtensorflow-microlite.a(micro_allocator.o)
 .group         0x00000000        0x8 ../../../../../../prebuilts/lib/libtensorflow-microlite.a(micro_allocator.o)
 .group         0x00000000        0x8 ../../../../../../prebuilts/lib/libtensorflow-microlite.a(micro_allocator.o)
 .group         0x00000000        0x8 ../../../../../../prebuilts/lib/libtensorflow-microlite.a(micro_allocator.o)
 .group         0x00000000        0x8 ../../../../../../prebuilts/lib/libtensorflow-microlite.a(micro_allocator.o)
 .group         0x00000000        0x8 ../../../../../../prebuilts/lib/libtensorflow-microlite.a(micro_allocator.o)
 .group         0x00000000        0x8 ../../../../../../prebuilts/lib/libtensorflow-microlite.a(micro_allocator.o)
 .group         0x00000000        0x8 ../../../../../../prebuilts/lib/libtensorflow-microlite.a(micro_allocator.o)
 .group         0x00000000        0x8 ../../../../../../prebuilts/lib/libtensorflow-microlite.a(micro_allocator.o)
 .text          0x00000000        0x0 ../../../../../../prebuilts/lib/libtensorflow-microlite.a(micro_allocator.o)
 .data          0x00000000        0x0 ../../../../../../prebuilts/lib/libtensorflow-microlite.a(micro_allocator.o)
 .bss           0x00000000        0x0 ../../../../../../prebuilts/lib/libtensorflow-microlite.a(micro_allocator.o)
 .text._ZNK11flatbuffers5Table22GetOptionalFieldOffsetEt
                0x00000000       0x12 ../../../../../../prebuilts/lib/libtensorflow-microlite.a(micro_allocator.o)
 .text._ZN6tflite14MicroAllocatorC2EPNS_21SimpleMemoryAllocatorEPNS_13ErrorReporterE
                0x00000000       0x18 ../../../../../../prebuilts/lib/libtensorflow-microlite.a(micro_allocator.o)
 .text._ZNK6tflite14MicroAllocator10used_bytesEv
                0x00000000        0x6 ../../../../../../prebuilts/lib/libtensorflow-microlite.a(micro_allocator.o)
 .text._ZNK6tflite14MicroAllocator14error_reporterEv
                0x00000000        0x4 ../../../../../../prebuilts/lib/libtensorflow-microlite.a(micro_allocator.o)
 .text._ZN11flatbuffers5Table10GetPointerIPKNS_6VectorIlEEEET_t
                0x00000000       0x12 ../../../../../../prebuilts/lib/libtensorflow-microlite.a(micro_allocator.o)
 .rodata._ZZN6tflite24EnumNamesBuiltinOperatorEvE5names
                0x00000000      0x200 ../../../../../../prebuilts/lib/libtensorflow-microlite.a(micro_allocator.o)
 .data._ZN11flatbuffers25flatbuffer_version_stringE
                0x00000000        0x4 ../../../../../../prebuilts/lib/libtensorflow-microlite.a(micro_allocator.o)
 .group         0x00000000        0x8 ../../../../../../prebuilts/lib/libtensorflow-microlite.a(greedy_memory_planner.o)
 .group         0x00000000        0x8 ../../../../../../prebuilts/lib/libtensorflow-microlite.a(greedy_memory_planner.o)
 .group         0x00000000        0x8 ../../../../../../prebuilts/lib/libtensorflow-microlite.a(greedy_memory_planner.o)
 .text          0x00000000        0x0 ../../../../../../prebuilts/lib/libtensorflow-microlite.a(greedy_memory_planner.o)
 .data          0x00000000        0x0 ../../../../../../prebuilts/lib/libtensorflow-microlite.a(greedy_memory_planner.o)
 .bss           0x00000000        0x0 ../../../../../../prebuilts/lib/libtensorflow-microlite.a(greedy_memory_planner.o)
 .text._ZN6tflite19GreedyMemoryPlanner15PrintMemoryPlanEPNS_13ErrorReporterE
                0x00000000      0x120 ../../../../../../prebuilts/lib/libtensorflow-microlite.a(greedy_memory_planner.o)
 .text._ZN6tflite19GreedyMemoryPlanner19DoAnyBuffersOverlapEPNS_13ErrorReporterE
                0x00000000       0xa8 ../../../../../../prebuilts/lib/libtensorflow-microlite.a(greedy_memory_planner.o)
 .text          0x00000000        0x0 ../../../../../../prebuilts/lib/libtensorflow-microlite.a(common.o)
 .data          0x00000000        0x0 ../../../../../../prebuilts/lib/libtensorflow-microlite.a(common.o)
 .bss           0x00000000        0x0 ../../../../../../prebuilts/lib/libtensorflow-microlite.a(common.o)
 .text.TfLiteIntArrayEqualsArray
                0x00000000       0x34 ../../../../../../prebuilts/lib/libtensorflow-microlite.a(common.o)
 .text.TfLiteIntArrayEqual
                0x00000000       0x1c ../../../../../../prebuilts/lib/libtensorflow-microlite.a(common.o)
 .text.TfLiteDelegateCreate
                0x00000000       0x10 ../../../../../../prebuilts/lib/libtensorflow-microlite.a(common.o)
 .group         0x00000000        0x8 ../../../../../../prebuilts/lib/libtensorflow-microlite.a(op_resolver.o)
 .group         0x00000000        0x8 ../../../../../../prebuilts/lib/libtensorflow-microlite.a(op_resolver.o)
 .text          0x00000000        0x0 ../../../../../../prebuilts/lib/libtensorflow-microlite.a(op_resolver.o)
 .data          0x00000000        0x0 ../../../../../../prebuilts/lib/libtensorflow-microlite.a(op_resolver.o)
 .bss           0x00000000        0x0 ../../../../../../prebuilts/lib/libtensorflow-microlite.a(op_resolver.o)
 .text._ZNK11flatbuffers5Table22GetOptionalFieldOffsetEt
                0x00000000       0x12 ../../../../../../prebuilts/lib/libtensorflow-microlite.a(op_resolver.o)
 .rodata._ZZN6tflite24EnumNamesBuiltinOperatorEvE5names
                0x00000000      0x200 ../../../../../../prebuilts/lib/libtensorflow-microlite.a(op_resolver.o)
 .data._ZN11flatbuffers25flatbuffer_version_stringE
                0x00000000        0x4 ../../../../../../prebuilts/lib/libtensorflow-microlite.a(op_resolver.o)
 .text          0x00000000        0x0 ../../../../../../prebuilts/lib/libcmsis.a(arm_convolve_wrapper_s8.o)
 .data          0x00000000        0x0 ../../../../../../prebuilts/lib/libcmsis.a(arm_convolve_wrapper_s8.o)
 .bss           0x00000000        0x0 ../../../../../../prebuilts/lib/libcmsis.a(arm_convolve_wrapper_s8.o)
 .text          0x00000000        0x0 ../../../../../../prebuilts/lib/libcmsis.a(arm_depthwise_conv_s8.o)
 .data          0x00000000        0x0 ../../../../../../prebuilts/lib/libcmsis.a(arm_depthwise_conv_s8.o)
 .bss           0x00000000        0x0 ../../../../../../prebuilts/lib/libcmsis.a(arm_depthwise_conv_s8.o)
 .text          0x00000000        0x0 ../../../../../../prebuilts/lib/libcmsis.a(arm_depthwise_conv_s8_opt.o)
 .data          0x00000000        0x0 ../../../../../../prebuilts/lib/libcmsis.a(arm_depthwise_conv_s8_opt.o)
 .bss           0x00000000        0x0 ../../../../../../prebuilts/lib/libcmsis.a(arm_depthwise_conv_s8_opt.o)
 .text          0x00000000        0x0 ../../../../../../prebuilts/lib/libcmsis.a(arm_depthwise_conv_u8_basic_ver1.o)
 .data          0x00000000        0x0 ../../../../../../prebuilts/lib/libcmsis.a(arm_depthwise_conv_u8_basic_ver1.o)
 .bss           0x00000000        0x0 ../../../../../../prebuilts/lib/libcmsis.a(arm_depthwise_conv_u8_basic_ver1.o)
 .text          0x00000000        0x0 ../../../../../../prebuilts/lib/libcmsis.a(arm_fully_connected_s8.o)
 .data          0x00000000        0x0 ../../../../../../prebuilts/lib/libcmsis.a(arm_fully_connected_s8.o)
 .bss           0x00000000        0x0 ../../../../../../prebuilts/lib/libcmsis.a(arm_fully_connected_s8.o)
 .text          0x00000000        0x0 ../../../../../../prebuilts/lib/libcmsis.a(arm_nn_vec_mat_mult_t_s8.o)
 .data          0x00000000        0x0 ../../../../../../prebuilts/lib/libcmsis.a(arm_nn_vec_mat_mult_t_s8.o)
 .bss           0x00000000        0x0 ../../../../../../prebuilts/lib/libcmsis.a(arm_nn_vec_mat_mult_t_s8.o)
 .text          0x00000000        0x0 ../../../../../../prebuilts/lib/libcmsis.a(arm_q7_to_q15_with_offset.o)
 .data          0x00000000        0x0 ../../../../../../prebuilts/lib/libcmsis.a(arm_q7_to_q15_with_offset.o)
 .bss           0x00000000        0x0 ../../../../../../prebuilts/lib/libcmsis.a(arm_q7_to_q15_with_offset.o)
 .text          0x00000000        0x0 ../../../../../../prebuilts/lib/libcmsis.a(arm_avgpool_s8.o)
 .data          0x00000000        0x0 ../../../../../../prebuilts/lib/libcmsis.a(arm_avgpool_s8.o)
 .bss           0x00000000        0x0 ../../../../../../prebuilts/lib/libcmsis.a(arm_avgpool_s8.o)
 .text          0x00000000        0x0 ../../../../../../prebuilts/lib/libcmsis.a(arm_max_pool_s8_opt.o)
 .data          0x00000000        0x0 ../../../../../../prebuilts/lib/libcmsis.a(arm_max_pool_s8_opt.o)
 .bss           0x00000000        0x0 ../../../../../../prebuilts/lib/libcmsis.a(arm_max_pool_s8_opt.o)
 .text          0x00000000        0x0 ../../../../../../prebuilts/lib/libcmsis.a(arm_softmax_s8.o)
 .data          0x00000000        0x0 ../../../../../../prebuilts/lib/libcmsis.a(arm_softmax_s8.o)
 .bss           0x00000000        0x0 ../../../../../../prebuilts/lib/libcmsis.a(arm_softmax_s8.o)
 .text          0x00000000        0x0 ../../../../../../prebuilts/lib/libcmsis.a(arm_convolve_1x1_s8_fast.o)
 .data          0x00000000        0x0 ../../../../../../prebuilts/lib/libcmsis.a(arm_convolve_1x1_s8_fast.o)
 .bss           0x00000000        0x0 ../../../../../../prebuilts/lib/libcmsis.a(arm_convolve_1x1_s8_fast.o)
 .text          0x00000000        0x0 ../../../../../../prebuilts/lib/libcmsis.a(arm_convolve_1_x_n_s8.o)
 .data          0x00000000        0x0 ../../../../../../prebuilts/lib/libcmsis.a(arm_convolve_1_x_n_s8.o)
 .bss           0x00000000        0x0 ../../../../../../prebuilts/lib/libcmsis.a(arm_convolve_1_x_n_s8.o)
 .text          0x00000000        0x0 ../../../../../../prebuilts/lib/libcmsis.a(arm_convolve_s8.o)
 .data          0x00000000        0x0 ../../../../../../prebuilts/lib/libcmsis.a(arm_convolve_s8.o)
 .bss           0x00000000        0x0 ../../../../../../prebuilts/lib/libcmsis.a(arm_convolve_s8.o)
 .text          0x00000000        0x0 ../../../../../../prebuilts/lib/libcmsis.a(arm_nn_mat_mult_kernel_s8_s16.o)
 .data          0x00000000        0x0 ../../../../../../prebuilts/lib/libcmsis.a(arm_nn_mat_mult_kernel_s8_s16.o)
 .bss           0x00000000        0x0 ../../../../../../prebuilts/lib/libcmsis.a(arm_nn_mat_mult_kernel_s8_s16.o)
 .text          0x00000000        0x0 ../../../../../../prebuilts/lib/libcmsis.a(arm_nn_accumulate_q7_to_q15.o)
 .data          0x00000000        0x0 ../../../../../../prebuilts/lib/libcmsis.a(arm_nn_accumulate_q7_to_q15.o)
 .bss           0x00000000        0x0 ../../../../../../prebuilts/lib/libcmsis.a(arm_nn_accumulate_q7_to_q15.o)
 .text          0x00000000        0x0 ../../../../../../prebuilts/lib/libcmsis.a(arm_nn_mat_mult_nt_t_s8.o)
 .data          0x00000000        0x0 ../../../../../../prebuilts/lib/libcmsis.a(arm_nn_mat_mult_nt_t_s8.o)
 .bss           0x00000000        0x0 ../../../../../../prebuilts/lib/libcmsis.a(arm_nn_mat_mult_nt_t_s8.o)
 .text          0x00000000        0x0 ../../../../../../prebuilts/lib/libcmsis.a(arm_q7_to_q15_no_shift.o)
 .data          0x00000000        0x0 ../../../../../../prebuilts/lib/libcmsis.a(arm_q7_to_q15_no_shift.o)
 .bss           0x00000000        0x0 ../../../../../../prebuilts/lib/libcmsis.a(arm_q7_to_q15_no_shift.o)
 .text          0x00000000        0x0 c:/progra~2/microsoft visual studio/2019/community/linux/gcc_arm/bin/../lib/gcc/arm-none-eabi/8.2.1/../../../../arm-none-eabi/lib/thumb/v7e-m+fp/hard\libstdc++_nano.a(guard.o)
 .data          0x00000000        0x0 c:/progra~2/microsoft visual studio/2019/community/linux/gcc_arm/bin/../lib/gcc/arm-none-eabi/8.2.1/../../../../arm-none-eabi/lib/thumb/v7e-m+fp/hard\libstdc++_nano.a(guard.o)
 .bss           0x00000000        0x0 c:/progra~2/microsoft visual studio/2019/community/linux/gcc_arm/bin/../lib/gcc/arm-none-eabi/8.2.1/../../../../arm-none-eabi/lib/thumb/v7e-m+fp/hard\libstdc++_nano.a(guard.o)
 .text.__cxa_guard_abort
                0x00000000        0x6 c:/progra~2/microsoft visual studio/2019/community/linux/gcc_arm/bin/../lib/gcc/arm-none-eabi/8.2.1/../../../../arm-none-eabi/lib/thumb/v7e-m+fp/hard\libstdc++_nano.a(guard.o)
 .text          0x00000000        0x0 c:/progra~2/microsoft visual studio/2019/community/linux/gcc_arm/bin/../lib/gcc/arm-none-eabi/8.2.1/../../../../arm-none-eabi/lib/thumb/v7e-m+fp/hard\libstdc++_nano.a(del_op.o)
 .data          0x00000000        0x0 c:/progra~2/microsoft visual studio/2019/community/linux/gcc_arm/bin/../lib/gcc/arm-none-eabi/8.2.1/../../../../arm-none-eabi/lib/thumb/v7e-m+fp/hard\libstdc++_nano.a(del_op.o)
 .bss           0x00000000        0x0 c:/progra~2/microsoft visual studio/2019/community/linux/gcc_arm/bin/../lib/gcc/arm-none-eabi/8.2.1/../../../../arm-none-eabi/lib/thumb/v7e-m+fp/hard\libstdc++_nano.a(del_op.o)
 .text          0x00000000        0x0 c:/progra~2/microsoft visual studio/2019/community/linux/gcc_arm/bin/../lib/gcc/arm-none-eabi/8.2.1/../../../../arm-none-eabi/lib/thumb/v7e-m+fp/hard\libstdc++_nano.a(pure.o)
 .data          0x00000000        0x0 c:/progra~2/microsoft visual studio/2019/community/linux/gcc_arm/bin/../lib/gcc/arm-none-eabi/8.2.1/../../../../arm-none-eabi/lib/thumb/v7e-m+fp/hard\libstdc++_nano.a(pure.o)
 .bss           0x00000000        0x0 c:/progra~2/microsoft visual studio/2019/community/linux/gcc_arm/bin/../lib/gcc/arm-none-eabi/8.2.1/../../../../arm-none-eabi/lib/thumb/v7e-m+fp/hard\libstdc++_nano.a(pure.o)
 .text.__cxa_deleted_virtual
                0x00000000        0x6 c:/progra~2/microsoft visual studio/2019/community/linux/gcc_arm/bin/../lib/gcc/arm-none-eabi/8.2.1/../../../../arm-none-eabi/lib/thumb/v7e-m+fp/hard\libstdc++_nano.a(pure.o)
 .text          0x00000000        0x0 c:/progra~2/microsoft visual studio/2019/community/linux/gcc_arm/bin/../lib/gcc/arm-none-eabi/8.2.1/../../../../arm-none-eabi/lib/thumb/v7e-m+fp/hard\libstdc++_nano.a(eh_terminate.o)
 .data          0x00000000        0x0 c:/progra~2/microsoft visual studio/2019/community/linux/gcc_arm/bin/../lib/gcc/arm-none-eabi/8.2.1/../../../../arm-none-eabi/lib/thumb/v7e-m+fp/hard\libstdc++_nano.a(eh_terminate.o)
 .bss           0x00000000        0x0 c:/progra~2/microsoft visual studio/2019/community/linux/gcc_arm/bin/../lib/gcc/arm-none-eabi/8.2.1/../../../../arm-none-eabi/lib/thumb/v7e-m+fp/hard\libstdc++_nano.a(eh_terminate.o)
 .text._ZSt13set_terminatePFvvE
                0x00000000       0x20 c:/progra~2/microsoft visual studio/2019/community/linux/gcc_arm/bin/../lib/gcc/arm-none-eabi/8.2.1/../../../../arm-none-eabi/lib/thumb/v7e-m+fp/hard\libstdc++_nano.a(eh_terminate.o)
 .text._ZN10__cxxabiv112__unexpectedEPFvvE
                0x00000000        0x8 c:/progra~2/microsoft visual studio/2019/community/linux/gcc_arm/bin/../lib/gcc/arm-none-eabi/8.2.1/../../../../arm-none-eabi/lib/thumb/v7e-m+fp/hard\libstdc++_nano.a(eh_terminate.o)
 .text._ZSt14set_unexpectedPFvvE
                0x00000000       0x20 c:/progra~2/microsoft visual studio/2019/community/linux/gcc_arm/bin/../lib/gcc/arm-none-eabi/8.2.1/../../../../arm-none-eabi/lib/thumb/v7e-m+fp/hard\libstdc++_nano.a(eh_terminate.o)
 .text._ZSt14get_unexpectedv
                0x00000000       0x10 c:/progra~2/microsoft visual studio/2019/community/linux/gcc_arm/bin/../lib/gcc/arm-none-eabi/8.2.1/../../../../arm-none-eabi/lib/thumb/v7e-m+fp/hard\libstdc++_nano.a(eh_terminate.o)
 .text._ZSt10unexpectedv
                0x00000000        0xa c:/progra~2/microsoft visual studio/2019/community/linux/gcc_arm/bin/../lib/gcc/arm-none-eabi/8.2.1/../../../../arm-none-eabi/lib/thumb/v7e-m+fp/hard\libstdc++_nano.a(eh_terminate.o)
 .text          0x00000000        0x0 c:/progra~2/microsoft visual studio/2019/community/linux/gcc_arm/bin/../lib/gcc/arm-none-eabi/8.2.1/../../../../arm-none-eabi/lib/thumb/v7e-m+fp/hard\libstdc++_nano.a(atexit_arm.o)
 .data          0x00000000        0x0 c:/progra~2/microsoft visual studio/2019/community/linux/gcc_arm/bin/../lib/gcc/arm-none-eabi/8.2.1/../../../../arm-none-eabi/lib/thumb/v7e-m+fp/hard\libstdc++_nano.a(atexit_arm.o)
 .bss           0x00000000        0x0 c:/progra~2/microsoft visual studio/2019/community/linux/gcc_arm/bin/../lib/gcc/arm-none-eabi/8.2.1/../../../../arm-none-eabi/lib/thumb/v7e-m+fp/hard\libstdc++_nano.a(atexit_arm.o)
 .text          0x00000000        0x0 c:/progra~2/microsoft visual studio/2019/community/linux/gcc_arm/bin/../lib/gcc/arm-none-eabi/8.2.1/../../../../arm-none-eabi/lib/thumb/v7e-m+fp/hard\libstdc++_nano.a(eh_term_handler.o)
 .data          0x00000000        0x0 c:/progra~2/microsoft visual studio/2019/community/linux/gcc_arm/bin/../lib/gcc/arm-none-eabi/8.2.1/../../../../arm-none-eabi/lib/thumb/v7e-m+fp/hard\libstdc++_nano.a(eh_term_handler.o)
 .bss           0x00000000        0x0 c:/progra~2/microsoft visual studio/2019/community/linux/gcc_arm/bin/../lib/gcc/arm-none-eabi/8.2.1/../../../../arm-none-eabi/lib/thumb/v7e-m+fp/hard\libstdc++_nano.a(eh_term_handler.o)
 .text          0x00000000        0x0 c:/progra~2/microsoft visual studio/2019/community/linux/gcc_arm/bin/../lib/gcc/arm-none-eabi/8.2.1/../../../../arm-none-eabi/lib/thumb/v7e-m+fp/hard\libstdc++_nano.a(eh_unex_handler.o)
 .data          0x00000000        0x0 c:/progra~2/microsoft visual studio/2019/community/linux/gcc_arm/bin/../lib/gcc/arm-none-eabi/8.2.1/../../../../arm-none-eabi/lib/thumb/v7e-m+fp/hard\libstdc++_nano.a(eh_unex_handler.o)
 .bss           0x00000000        0x0 c:/progra~2/microsoft visual studio/2019/community/linux/gcc_arm/bin/../lib/gcc/arm-none-eabi/8.2.1/../../../../arm-none-eabi/lib/thumb/v7e-m+fp/hard\libstdc++_nano.a(eh_unex_handler.o)
 .data._ZN10__cxxabiv120__unexpected_handlerE
                0x00000000        0x4 c:/progra~2/microsoft visual studio/2019/community/linux/gcc_arm/bin/../lib/gcc/arm-none-eabi/8.2.1/../../../../arm-none-eabi/lib/thumb/v7e-m+fp/hard\libstdc++_nano.a(eh_unex_handler.o)
 .ARM.attributes
                0x00000000       0x32 c:/progra~2/microsoft visual studio/2019/community/linux/gcc_arm/bin/../lib/gcc/arm-none-eabi/8.2.1/../../../../arm-none-eabi/lib/thumb/v7e-m+fp/hard\libstdc++_nano.a(eh_unex_handler.o)
 .data          0x00000000        0x0 c:/progra~2/microsoft visual studio/2019/community/linux/gcc_arm/bin/../lib/gcc/arm-none-eabi/8.2.1/thumb/v7e-m+fp/hard\libgcc.a(_arm_addsubdf3.o)
 .bss           0x00000000        0x0 c:/progra~2/microsoft visual studio/2019/community/linux/gcc_arm/bin/../lib/gcc/arm-none-eabi/8.2.1/thumb/v7e-m+fp/hard\libgcc.a(_arm_addsubdf3.o)
 .data          0x00000000        0x0 c:/progra~2/microsoft visual studio/2019/community/linux/gcc_arm/bin/../lib/gcc/arm-none-eabi/8.2.1/thumb/v7e-m+fp/hard\libgcc.a(_arm_muldivdf3.o)
 .bss           0x00000000        0x0 c:/progra~2/microsoft visual studio/2019/community/linux/gcc_arm/bin/../lib/gcc/arm-none-eabi/8.2.1/thumb/v7e-m+fp/hard\libgcc.a(_arm_muldivdf3.o)
 .data          0x00000000        0x0 c:/progra~2/microsoft visual studio/2019/community/linux/gcc_arm/bin/../lib/gcc/arm-none-eabi/8.2.1/thumb/v7e-m+fp/hard\libgcc.a(_arm_cmpdf2.o)
 .bss           0x00000000        0x0 c:/progra~2/microsoft visual studio/2019/community/linux/gcc_arm/bin/../lib/gcc/arm-none-eabi/8.2.1/thumb/v7e-m+fp/hard\libgcc.a(_arm_cmpdf2.o)
 .data          0x00000000        0x0 c:/progra~2/microsoft visual studio/2019/community/linux/gcc_arm/bin/../lib/gcc/arm-none-eabi/8.2.1/thumb/v7e-m+fp/hard\libgcc.a(_arm_fixdfsi.o)
 .bss           0x00000000        0x0 c:/progra~2/microsoft visual studio/2019/community/linux/gcc_arm/bin/../lib/gcc/arm-none-eabi/8.2.1/thumb/v7e-m+fp/hard\libgcc.a(_arm_fixdfsi.o)
 .data          0x00000000        0x0 c:/progra~2/microsoft visual studio/2019/community/linux/gcc_arm/bin/../lib/gcc/arm-none-eabi/8.2.1/thumb/v7e-m+fp/hard\libgcc.a(_arm_fixunsdfsi.o)
 .bss           0x00000000        0x0 c:/progra~2/microsoft visual studio/2019/community/linux/gcc_arm/bin/../lib/gcc/arm-none-eabi/8.2.1/thumb/v7e-m+fp/hard\libgcc.a(_arm_fixunsdfsi.o)
 .data          0x00000000        0x0 c:/progra~2/microsoft visual studio/2019/community/linux/gcc_arm/bin/../lib/gcc/arm-none-eabi/8.2.1/thumb/v7e-m+fp/hard\libgcc.a(_arm_truncdfsf2.o)
 .bss           0x00000000        0x0 c:/progra~2/microsoft visual studio/2019/community/linux/gcc_arm/bin/../lib/gcc/arm-none-eabi/8.2.1/thumb/v7e-m+fp/hard\libgcc.a(_arm_truncdfsf2.o)
 .data          0x00000000        0x0 c:/progra~2/microsoft visual studio/2019/community/linux/gcc_arm/bin/../lib/gcc/arm-none-eabi/8.2.1/thumb/v7e-m+fp/hard\libgcc.a(_aeabi_uldivmod.o)
 .bss           0x00000000        0x0 c:/progra~2/microsoft visual studio/2019/community/linux/gcc_arm/bin/../lib/gcc/arm-none-eabi/8.2.1/thumb/v7e-m+fp/hard\libgcc.a(_aeabi_uldivmod.o)
 .data          0x00000000        0x0 c:/progra~2/microsoft visual studio/2019/community/linux/gcc_arm/bin/../lib/gcc/arm-none-eabi/8.2.1/thumb/v7e-m+fp/hard\libgcc.a(_fixdfdi.o)
 .bss           0x00000000        0x0 c:/progra~2/microsoft visual studio/2019/community/linux/gcc_arm/bin/../lib/gcc/arm-none-eabi/8.2.1/thumb/v7e-m+fp/hard\libgcc.a(_fixdfdi.o)
 .data          0x00000000        0x0 c:/progra~2/microsoft visual studio/2019/community/linux/gcc_arm/bin/../lib/gcc/arm-none-eabi/8.2.1/thumb/v7e-m+fp/hard\libgcc.a(_fixunsdfdi.o)
 .bss           0x00000000        0x0 c:/progra~2/microsoft visual studio/2019/community/linux/gcc_arm/bin/../lib/gcc/arm-none-eabi/8.2.1/thumb/v7e-m+fp/hard\libgcc.a(_fixunsdfdi.o)
 .data          0x00000000        0x0 c:/progra~2/microsoft visual studio/2019/community/linux/gcc_arm/bin/../lib/gcc/arm-none-eabi/8.2.1/thumb/v7e-m+fp/hard\libgcc.a(_udivmoddi4.o)
 .bss           0x00000000        0x0 c:/progra~2/microsoft visual studio/2019/community/linux/gcc_arm/bin/../lib/gcc/arm-none-eabi/8.2.1/thumb/v7e-m+fp/hard\libgcc.a(_udivmoddi4.o)
 .ARM.extab     0x00000000        0x0 c:/progra~2/microsoft visual studio/2019/community/linux/gcc_arm/bin/../lib/gcc/arm-none-eabi/8.2.1/thumb/v7e-m+fp/hard\libgcc.a(_udivmoddi4.o)
 .data          0x00000000        0x0 c:/progra~2/microsoft visual studio/2019/community/linux/gcc_arm/bin/../lib/gcc/arm-none-eabi/8.2.1/thumb/v7e-m+fp/hard\libgcc.a(_dvmd_tls.o)
 .bss           0x00000000        0x0 c:/progra~2/microsoft visual studio/2019/community/linux/gcc_arm/bin/../lib/gcc/arm-none-eabi/8.2.1/thumb/v7e-m+fp/hard\libgcc.a(_dvmd_tls.o)
 .data          0x00000000        0x0 lib/MT3620_M4_Driver/lib/MT3620_M4_BSP/libMT3620_M4_BSP.a(nvic.c.obj)
 .bss           0x00000000        0x0 lib/MT3620_M4_Driver/lib/MT3620_M4_BSP/libMT3620_M4_BSP.a(cirq_common.c.obj)
 .data          0x00000000        0x0 lib/MT3620_M4_Driver/lib/MT3620_M4_BSP/libMT3620_M4_BSP.a(vector_table.c.obj)
 .bss           0x00000000        0x0 lib/MT3620_M4_Driver/lib/MT3620_M4_BSP/libMT3620_M4_BSP.a(vector_table.c.obj)
 .data          0x00000000        0x0 lib/MT3620_M4_Driver/lib/MT3620_M4_BSP/libMT3620_M4_BSP.a(startup_mt3620.s.obj)
 .bss           0x00000000        0x0 lib/MT3620_M4_Driver/lib/MT3620_M4_BSP/libMT3620_M4_BSP.a(startup_mt3620.s.obj)
 .data          0x00000000        0x0 lib/MT3620_M4_Driver/MT3620_M4_BSP/FreeRTOS/libMT3620_M4_FreeRTOS.a(queue.c.obj)
 .data          0x00000000        0x0 lib/MT3620_M4_Driver/MT3620_M4_BSP/FreeRTOS/libMT3620_M4_FreeRTOS.a(tasks.c.obj)
 .data          0x00000000        0x0 lib/MT3620_M4_Driver/MT3620_M4_BSP/FreeRTOS/libMT3620_M4_FreeRTOS.a(timers.c.obj)
 .data          0x00000000        0x0 lib/MT3620_M4_Driver/MT3620_M4_BSP/FreeRTOS/libMT3620_M4_FreeRTOS.a(heap_4.c.obj)
 .rodata        0x00000000        0x4 lib/MT3620_M4_Driver/MT3620_M4_BSP/FreeRTOS/libMT3620_M4_FreeRTOS.a(heap_4.c.obj)
 .rodata        0x00000000        0x4 lib/MT3620_M4_Driver/MT3620_M4_BSP/FreeRTOS/libMT3620_M4_FreeRTOS.a(port.c.obj)
 .data          0x00000000        0x0 lib/MT3620_M4_Driver/MT3620_M4_BSP/FreeRTOS/libMT3620_M4_FreeRTOS.a(list.c.obj)
 .bss           0x00000000        0x0 lib/MT3620_M4_Driver/MT3620_M4_BSP/FreeRTOS/libMT3620_M4_FreeRTOS.a(list.c.obj)
 .text          0x00000000        0x0 c:/progra~2/microsoft visual studio/2019/community/linux/gcc_arm/bin/../lib/gcc/arm-none-eabi/8.2.1/../../../../arm-none-eabi/lib/thumb/v7e-m+fp/hard\libm.a(lib_a-s_floor.o)
 .data          0x00000000        0x0 c:/progra~2/microsoft visual studio/2019/community/linux/gcc_arm/bin/../lib/gcc/arm-none-eabi/8.2.1/../../../../arm-none-eabi/lib/thumb/v7e-m+fp/hard\libm.a(lib_a-s_floor.o)
 .bss           0x00000000        0x0 c:/progra~2/microsoft visual studio/2019/community/linux/gcc_arm/bin/../lib/gcc/arm-none-eabi/8.2.1/../../../../arm-none-eabi/lib/thumb/v7e-m+fp/hard\libm.a(lib_a-s_floor.o)
 .text          0x00000000        0x0 c:/progra~2/microsoft visual studio/2019/community/linux/gcc_arm/bin/../lib/gcc/arm-none-eabi/8.2.1/../../../../arm-none-eabi/lib/thumb/v7e-m+fp/hard\libm.a(lib_a-s_frexp.o)
 .data          0x00000000        0x0 c:/progra~2/microsoft visual studio/2019/community/linux/gcc_arm/bin/../lib/gcc/arm-none-eabi/8.2.1/../../../../arm-none-eabi/lib/thumb/v7e-m+fp/hard\libm.a(lib_a-s_frexp.o)
 .bss           0x00000000        0x0 c:/progra~2/microsoft visual studio/2019/community/linux/gcc_arm/bin/../lib/gcc/arm-none-eabi/8.2.1/../../../../arm-none-eabi/lib/thumb/v7e-m+fp/hard\libm.a(lib_a-s_frexp.o)
 .text          0x00000000        0x0 c:/progra~2/microsoft visual studio/2019/community/linux/gcc_arm/bin/../lib/gcc/arm-none-eabi/8.2.1/../../../../arm-none-eabi/lib/thumb/v7e-m+fp/hard\libm.a(lib_a-s_round.o)
 .data          0x00000000        0x0 c:/progra~2/microsoft visual studio/2019/community/linux/gcc_arm/bin/../lib/gcc/arm-none-eabi/8.2.1/../../../../arm-none-eabi/lib/thumb/v7e-m+fp/hard\libm.a(lib_a-s_round.o)
 .bss           0x00000000        0x0 c:/progra~2/microsoft visual studio/2019/community/linux/gcc_arm/bin/../lib/gcc/arm-none-eabi/8.2.1/../../../../arm-none-eabi/lib/thumb/v7e-m+fp/hard\libm.a(lib_a-s_round.o)
 .text          0x00000000        0x0 c:/progra~2/microsoft visual studio/2019/community/linux/gcc_arm/bin/../lib/gcc/arm-none-eabi/8.2.1/../../../../arm-none-eabi/lib/thumb/v7e-m+fp/hard\libm.a(lib_a-wf_exp.o)
 .data          0x00000000        0x0 c:/progra~2/microsoft visual studio/2019/community/linux/gcc_arm/bin/../lib/gcc/arm-none-eabi/8.2.1/../../../../arm-none-eabi/lib/thumb/v7e-m+fp/hard\libm.a(lib_a-wf_exp.o)
 .bss           0x00000000        0x0 c:/progra~2/microsoft visual studio/2019/community/linux/gcc_arm/bin/../lib/gcc/arm-none-eabi/8.2.1/../../../../arm-none-eabi/lib/thumb/v7e-m+fp/hard\libm.a(lib_a-wf_exp.o)
 .text          0x00000000        0x0 c:/progra~2/microsoft visual studio/2019/community/linux/gcc_arm/bin/../lib/gcc/arm-none-eabi/8.2.1/../../../../arm-none-eabi/lib/thumb/v7e-m+fp/hard\libm.a(lib_a-wf_log.o)
 .data          0x00000000        0x0 c:/progra~2/microsoft visual studio/2019/community/linux/gcc_arm/bin/../lib/gcc/arm-none-eabi/8.2.1/../../../../arm-none-eabi/lib/thumb/v7e-m+fp/hard\libm.a(lib_a-wf_log.o)
 .bss           0x00000000        0x0 c:/progra~2/microsoft visual studio/2019/community/linux/gcc_arm/bin/../lib/gcc/arm-none-eabi/8.2.1/../../../../arm-none-eabi/lib/thumb/v7e-m+fp/hard\libm.a(lib_a-wf_log.o)
 .text.logf     0x00000000      0x104 c:/progra~2/microsoft visual studio/2019/community/linux/gcc_arm/bin/../lib/gcc/arm-none-eabi/8.2.1/../../../../arm-none-eabi/lib/thumb/v7e-m+fp/hard\libm.a(lib_a-wf_log.o)
 .rodata.logf.str1.4
                0x00000000        0x9 c:/progra~2/microsoft visual studio/2019/community/linux/gcc_arm/bin/../lib/gcc/arm-none-eabi/8.2.1/../../../../arm-none-eabi/lib/thumb/v7e-m+fp/hard\libm.a(lib_a-wf_log.o)
 .debug_frame   0x00000000       0x50 c:/progra~2/microsoft visual studio/2019/community/linux/gcc_arm/bin/../lib/gcc/arm-none-eabi/8.2.1/../../../../arm-none-eabi/lib/thumb/v7e-m+fp/hard\libm.a(lib_a-wf_log.o)
 .ARM.attributes
                0x00000000       0x34 c:/progra~2/microsoft visual studio/2019/community/linux/gcc_arm/bin/../lib/gcc/arm-none-eabi/8.2.1/../../../../arm-none-eabi/lib/thumb/v7e-m+fp/hard\libm.a(lib_a-wf_log.o)
 .text          0x00000000        0x0 c:/progra~2/microsoft visual studio/2019/community/linux/gcc_arm/bin/../lib/gcc/arm-none-eabi/8.2.1/../../../../arm-none-eabi/lib/thumb/v7e-m+fp/hard\libm.a(lib_a-ef_exp.o)
 .data          0x00000000        0x0 c:/progra~2/microsoft visual studio/2019/community/linux/gcc_arm/bin/../lib/gcc/arm-none-eabi/8.2.1/../../../../arm-none-eabi/lib/thumb/v7e-m+fp/hard\libm.a(lib_a-ef_exp.o)
 .bss           0x00000000        0x0 c:/progra~2/microsoft visual studio/2019/community/linux/gcc_arm/bin/../lib/gcc/arm-none-eabi/8.2.1/../../../../arm-none-eabi/lib/thumb/v7e-m+fp/hard\libm.a(lib_a-ef_exp.o)
 .text          0x00000000        0x0 c:/progra~2/microsoft visual studio/2019/community/linux/gcc_arm/bin/../lib/gcc/arm-none-eabi/8.2.1/../../../../arm-none-eabi/lib/thumb/v7e-m+fp/hard\libm.a(lib_a-ef_log.o)
 .data          0x00000000        0x0 c:/progra~2/microsoft visual studio/2019/community/linux/gcc_arm/bin/../lib/gcc/arm-none-eabi/8.2.1/../../../../arm-none-eabi/lib/thumb/v7e-m+fp/hard\libm.a(lib_a-ef_log.o)
 .bss           0x00000000        0x0 c:/progra~2/microsoft visual studio/2019/community/linux/gcc_arm/bin/../lib/gcc/arm-none-eabi/8.2.1/../../../../arm-none-eabi/lib/thumb/v7e-m+fp/hard\libm.a(lib_a-ef_log.o)
 .text.__ieee754_logf
                0x00000000      0x1f4 c:/progra~2/microsoft visual studio/2019/community/linux/gcc_arm/bin/../lib/gcc/arm-none-eabi/8.2.1/../../../../arm-none-eabi/lib/thumb/v7e-m+fp/hard\libm.a(lib_a-ef_log.o)
 .debug_frame   0x00000000       0x48 c:/progra~2/microsoft visual studio/2019/community/linux/gcc_arm/bin/../lib/gcc/arm-none-eabi/8.2.1/../../../../arm-none-eabi/lib/thumb/v7e-m+fp/hard\libm.a(lib_a-ef_log.o)
 .ARM.attributes
                0x00000000       0x34 c:/progra~2/microsoft visual studio/2019/community/linux/gcc_arm/bin/../lib/gcc/arm-none-eabi/8.2.1/../../../../arm-none-eabi/lib/thumb/v7e-m+fp/hard\libm.a(lib_a-ef_log.o)
 .text          0x00000000        0x0 c:/progra~2/microsoft visual studio/2019/community/linux/gcc_arm/bin/../lib/gcc/arm-none-eabi/8.2.1/../../../../arm-none-eabi/lib/thumb/v7e-m+fp/hard\libm.a(lib_a-s_lib_ver.o)
 .data          0x00000000        0x0 c:/progra~2/microsoft visual studio/2019/community/linux/gcc_arm/bin/../lib/gcc/arm-none-eabi/8.2.1/../../../../arm-none-eabi/lib/thumb/v7e-m+fp/hard\libm.a(lib_a-s_lib_ver.o)
 .bss           0x00000000        0x0 c:/progra~2/microsoft visual studio/2019/community/linux/gcc_arm/bin/../lib/gcc/arm-none-eabi/8.2.1/../../../../arm-none-eabi/lib/thumb/v7e-m+fp/hard\libm.a(lib_a-s_lib_ver.o)
 .text          0x00000000        0x0 c:/progra~2/microsoft visual studio/2019/community/linux/gcc_arm/bin/../lib/gcc/arm-none-eabi/8.2.1/../../../../arm-none-eabi/lib/thumb/v7e-m+fp/hard\libm.a(lib_a-s_matherr.o)
 .data          0x00000000        0x0 c:/progra~2/microsoft visual studio/2019/community/linux/gcc_arm/bin/../lib/gcc/arm-none-eabi/8.2.1/../../../../arm-none-eabi/lib/thumb/v7e-m+fp/hard\libm.a(lib_a-s_matherr.o)
 .bss           0x00000000        0x0 c:/progra~2/microsoft visual studio/2019/community/linux/gcc_arm/bin/../lib/gcc/arm-none-eabi/8.2.1/../../../../arm-none-eabi/lib/thumb/v7e-m+fp/hard\libm.a(lib_a-s_matherr.o)
 .text          0x00000000        0x0 c:/progra~2/microsoft visual studio/2019/community/linux/gcc_arm/bin/../lib/gcc/arm-none-eabi/8.2.1/../../../../arm-none-eabi/lib/thumb/v7e-m+fp/hard\libm.a(lib_a-s_nan.o)
 .data          0x00000000        0x0 c:/progra~2/microsoft visual studio/2019/community/linux/gcc_arm/bin/../lib/gcc/arm-none-eabi/8.2.1/../../../../arm-none-eabi/lib/thumb/v7e-m+fp/hard\libm.a(lib_a-s_nan.o)
 .bss           0x00000000        0x0 c:/progra~2/microsoft visual studio/2019/community/linux/gcc_arm/bin/../lib/gcc/arm-none-eabi/8.2.1/../../../../arm-none-eabi/lib/thumb/v7e-m+fp/hard\libm.a(lib_a-s_nan.o)
 .text.nan      0x00000000       0x10 c:/progra~2/microsoft visual studio/2019/community/linux/gcc_arm/bin/../lib/gcc/arm-none-eabi/8.2.1/../../../../arm-none-eabi/lib/thumb/v7e-m+fp/hard\libm.a(lib_a-s_nan.o)
 .debug_frame   0x00000000       0x20 c:/progra~2/microsoft visual studio/2019/community/linux/gcc_arm/bin/../lib/gcc/arm-none-eabi/8.2.1/../../../../arm-none-eabi/lib/thumb/v7e-m+fp/hard\libm.a(lib_a-s_nan.o)
 .ARM.attributes
                0x00000000       0x34 c:/progra~2/microsoft visual studio/2019/community/linux/gcc_arm/bin/../lib/gcc/arm-none-eabi/8.2.1/../../../../arm-none-eabi/lib/thumb/v7e-m+fp/hard\libm.a(lib_a-s_nan.o)
 .text          0x00000000        0x0 c:/progra~2/microsoft visual studio/2019/community/linux/gcc_arm/bin/../lib/gcc/arm-none-eabi/8.2.1/../../../../arm-none-eabi/lib/thumb/v7e-m+fp/hard\libm.a(lib_a-sf_finite.o)
 .data          0x00000000        0x0 c:/progra~2/microsoft visual studio/2019/community/linux/gcc_arm/bin/../lib/gcc/arm-none-eabi/8.2.1/../../../../arm-none-eabi/lib/thumb/v7e-m+fp/hard\libm.a(lib_a-sf_finite.o)
 .bss           0x00000000        0x0 c:/progra~2/microsoft visual studio/2019/community/linux/gcc_arm/bin/../lib/gcc/arm-none-eabi/8.2.1/../../../../arm-none-eabi/lib/thumb/v7e-m+fp/hard\libm.a(lib_a-sf_finite.o)
 .text          0x00000000        0x0 c:/progra~2/microsoft visual studio/2019/community/linux/gcc_arm/bin/../lib/gcc/arm-none-eabi/8.2.1/../../../../arm-none-eabi/lib/thumb/v7e-m+fp/hard\libc_nano.a(lib_a-abort.o)
 .data          0x00000000        0x0 c:/progra~2/microsoft visual studio/2019/community/linux/gcc_arm/bin/../lib/gcc/arm-none-eabi/8.2.1/../../../../arm-none-eabi/lib/thumb/v7e-m+fp/hard\libc_nano.a(lib_a-abort.o)
 .bss           0x00000000        0x0 c:/progra~2/microsoft visual studio/2019/community/linux/gcc_arm/bin/../lib/gcc/arm-none-eabi/8.2.1/../../../../arm-none-eabi/lib/thumb/v7e-m+fp/hard\libc_nano.a(lib_a-abort.o)
 .text          0x00000000        0x0 c:/progra~2/microsoft visual studio/2019/community/linux/gcc_arm/bin/../lib/gcc/arm-none-eabi/8.2.1/../../../../arm-none-eabi/lib/thumb/v7e-m+fp/hard\libc_nano.a(lib_a-cxa_atexit.o)
 .data          0x00000000        0x0 c:/progra~2/microsoft visual studio/2019/community/linux/gcc_arm/bin/../lib/gcc/arm-none-eabi/8.2.1/../../../../arm-none-eabi/lib/thumb/v7e-m+fp/hard\libc_nano.a(lib_a-cxa_atexit.o)
 .bss           0x00000000        0x0 c:/progra~2/microsoft visual studio/2019/community/linux/gcc_arm/bin/../lib/gcc/arm-none-eabi/8.2.1/../../../../arm-none-eabi/lib/thumb/v7e-m+fp/hard\libc_nano.a(lib_a-cxa_atexit.o)
 .rodata.__cxa_atexit_dummy
                0x00000000        0x4 c:/progra~2/microsoft visual studio/2019/community/linux/gcc_arm/bin/../lib/gcc/arm-none-eabi/8.2.1/../../../../arm-none-eabi/lib/thumb/v7e-m+fp/hard\libc_nano.a(lib_a-cxa_atexit.o)
 .text          0x00000000        0x0 c:/progra~2/microsoft visual studio/2019/community/linux/gcc_arm/bin/../lib/gcc/arm-none-eabi/8.2.1/../../../../arm-none-eabi/lib/thumb/v7e-m+fp/hard\libc_nano.a(lib_a-errno.o)
 .data          0x00000000        0x0 c:/progra~2/microsoft visual studio/2019/community/linux/gcc_arm/bin/../lib/gcc/arm-none-eabi/8.2.1/../../../../arm-none-eabi/lib/thumb/v7e-m+fp/hard\libc_nano.a(lib_a-errno.o)
 .bss           0x00000000        0x0 c:/progra~2/microsoft visual studio/2019/community/linux/gcc_arm/bin/../lib/gcc/arm-none-eabi/8.2.1/../../../../arm-none-eabi/lib/thumb/v7e-m+fp/hard\libc_nano.a(lib_a-errno.o)
 .text          0x00000000        0x0 c:/progra~2/microsoft visual studio/2019/community/linux/gcc_arm/bin/../lib/gcc/arm-none-eabi/8.2.1/../../../../arm-none-eabi/lib/thumb/v7e-m+fp/hard\libc_nano.a(lib_a-impure.o)
 .data          0x00000000        0x0 c:/progra~2/microsoft visual studio/2019/community/linux/gcc_arm/bin/../lib/gcc/arm-none-eabi/8.2.1/../../../../arm-none-eabi/lib/thumb/v7e-m+fp/hard\libc_nano.a(lib_a-impure.o)
 .bss           0x00000000        0x0 c:/progra~2/microsoft visual studio/2019/community/linux/gcc_arm/bin/../lib/gcc/arm-none-eabi/8.2.1/../../../../arm-none-eabi/lib/thumb/v7e-m+fp/hard\libc_nano.a(lib_a-impure.o)
 .rodata._global_impure_ptr
                0x00000000        0x4 c:/progra~2/microsoft visual studio/2019/community/linux/gcc_arm/bin/../lib/gcc/arm-none-eabi/8.2.1/../../../../arm-none-eabi/lib/thumb/v7e-m+fp/hard\libc_nano.a(lib_a-impure.o)
 .text          0x00000000        0x0 c:/progra~2/microsoft visual studio/2019/community/linux/gcc_arm/bin/../lib/gcc/arm-none-eabi/8.2.1/../../../../arm-none-eabi/lib/thumb/v7e-m+fp/hard\libc_nano.a(lib_a-malloc.o)
 .data          0x00000000        0x0 c:/progra~2/microsoft visual studio/2019/community/linux/gcc_arm/bin/../lib/gcc/arm-none-eabi/8.2.1/../../../../arm-none-eabi/lib/thumb/v7e-m+fp/hard\libc_nano.a(lib_a-malloc.o)
 .bss           0x00000000        0x0 c:/progra~2/microsoft visual studio/2019/community/linux/gcc_arm/bin/../lib/gcc/arm-none-eabi/8.2.1/../../../../arm-none-eabi/lib/thumb/v7e-m+fp/hard\libc_nano.a(lib_a-malloc.o)
 .text.malloc   0x00000000       0x10 c:/progra~2/microsoft visual studio/2019/community/linux/gcc_arm/bin/../lib/gcc/arm-none-eabi/8.2.1/../../../../arm-none-eabi/lib/thumb/v7e-m+fp/hard\libc_nano.a(lib_a-malloc.o)
 .text          0x00000000        0x0 c:/progra~2/microsoft visual studio/2019/community/linux/gcc_arm/bin/../lib/gcc/arm-none-eabi/8.2.1/../../../../arm-none-eabi/lib/thumb/v7e-m+fp/hard\libc_nano.a(lib_a-memcpy-stub.o)
 .data          0x00000000        0x0 c:/progra~2/microsoft visual studio/2019/community/linux/gcc_arm/bin/../lib/gcc/arm-none-eabi/8.2.1/../../../../arm-none-eabi/lib/thumb/v7e-m+fp/hard\libc_nano.a(lib_a-memcpy-stub.o)
 .bss           0x00000000        0x0 c:/progra~2/microsoft visual studio/2019/community/linux/gcc_arm/bin/../lib/gcc/arm-none-eabi/8.2.1/../../../../arm-none-eabi/lib/thumb/v7e-m+fp/hard\libc_nano.a(lib_a-memcpy-stub.o)
 .text          0x00000000        0x0 c:/progra~2/microsoft visual studio/2019/community/linux/gcc_arm/bin/../lib/gcc/arm-none-eabi/8.2.1/../../../../arm-none-eabi/lib/thumb/v7e-m+fp/hard\libc_nano.a(lib_a-memmove.o)
 .data          0x00000000        0x0 c:/progra~2/microsoft visual studio/2019/community/linux/gcc_arm/bin/../lib/gcc/arm-none-eabi/8.2.1/../../../../arm-none-eabi/lib/thumb/v7e-m+fp/hard\libc_nano.a(lib_a-memmove.o)
 .bss           0x00000000        0x0 c:/progra~2/microsoft visual studio/2019/community/linux/gcc_arm/bin/../lib/gcc/arm-none-eabi/8.2.1/../../../../arm-none-eabi/lib/thumb/v7e-m+fp/hard\libc_nano.a(lib_a-memmove.o)
 .text          0x00000000        0x0 c:/progra~2/microsoft visual studio/2019/community/linux/gcc_arm/bin/../lib/gcc/arm-none-eabi/8.2.1/../../../../arm-none-eabi/lib/thumb/v7e-m+fp/hard\libc_nano.a(lib_a-memset.o)
 .data          0x00000000        0x0 c:/progra~2/microsoft visual studio/2019/community/linux/gcc_arm/bin/../lib/gcc/arm-none-eabi/8.2.1/../../../../arm-none-eabi/lib/thumb/v7e-m+fp/hard\libc_nano.a(lib_a-memset.o)
 .bss           0x00000000        0x0 c:/progra~2/microsoft visual studio/2019/community/linux/gcc_arm/bin/../lib/gcc/arm-none-eabi/8.2.1/../../../../arm-none-eabi/lib/thumb/v7e-m+fp/hard\libc_nano.a(lib_a-memset.o)
 .text          0x00000000        0x0 c:/progra~2/microsoft visual studio/2019/community/linux/gcc_arm/bin/../lib/gcc/arm-none-eabi/8.2.1/../../../../arm-none-eabi/lib/thumb/v7e-m+fp/hard\libc_nano.a(lib_a-nano-freer.o)
 .data          0x00000000        0x0 c:/progra~2/microsoft visual studio/2019/community/linux/gcc_arm/bin/../lib/gcc/arm-none-eabi/8.2.1/../../../../arm-none-eabi/lib/thumb/v7e-m+fp/hard\libc_nano.a(lib_a-nano-freer.o)
 .bss           0x00000000        0x0 c:/progra~2/microsoft visual studio/2019/community/linux/gcc_arm/bin/../lib/gcc/arm-none-eabi/8.2.1/../../../../arm-none-eabi/lib/thumb/v7e-m+fp/hard\libc_nano.a(lib_a-nano-freer.o)
 .text          0x00000000        0x0 c:/progra~2/microsoft visual studio/2019/community/linux/gcc_arm/bin/../lib/gcc/arm-none-eabi/8.2.1/../../../../arm-none-eabi/lib/thumb/v7e-m+fp/hard\libc_nano.a(lib_a-nano-mallocr.o)
 .data          0x00000000        0x0 c:/progra~2/microsoft visual studio/2019/community/linux/gcc_arm/bin/../lib/gcc/arm-none-eabi/8.2.1/../../../../arm-none-eabi/lib/thumb/v7e-m+fp/hard\libc_nano.a(lib_a-nano-mallocr.o)
 .bss           0x00000000        0x0 c:/progra~2/microsoft visual studio/2019/community/linux/gcc_arm/bin/../lib/gcc/arm-none-eabi/8.2.1/../../../../arm-none-eabi/lib/thumb/v7e-m+fp/hard\libc_nano.a(lib_a-nano-mallocr.o)
 .text._malloc_r
                0x00000000       0xb4 c:/progra~2/microsoft visual studio/2019/community/linux/gcc_arm/bin/../lib/gcc/arm-none-eabi/8.2.1/../../../../arm-none-eabi/lib/thumb/v7e-m+fp/hard\libc_nano.a(lib_a-nano-mallocr.o)
 .bss.__malloc_sbrk_start
                0x00000000        0x4 c:/progra~2/microsoft visual studio/2019/community/linux/gcc_arm/bin/../lib/gcc/arm-none-eabi/8.2.1/../../../../arm-none-eabi/lib/thumb/v7e-m+fp/hard\libc_nano.a(lib_a-nano-mallocr.o)
 .text          0x00000000        0x0 c:/progra~2/microsoft visual studio/2019/community/linux/gcc_arm/bin/../lib/gcc/arm-none-eabi/8.2.1/../../../../arm-none-eabi/lib/thumb/v7e-m+fp/hard\libc_nano.a(lib_a-on_exit_args.o)
 .data          0x00000000        0x0 c:/progra~2/microsoft visual studio/2019/community/linux/gcc_arm/bin/../lib/gcc/arm-none-eabi/8.2.1/../../../../arm-none-eabi/lib/thumb/v7e-m+fp/hard\libc_nano.a(lib_a-on_exit_args.o)
 .bss           0x00000000        0x0 c:/progra~2/microsoft visual studio/2019/community/linux/gcc_arm/bin/../lib/gcc/arm-none-eabi/8.2.1/../../../../arm-none-eabi/lib/thumb/v7e-m+fp/hard\libc_nano.a(lib_a-on_exit_args.o)
 .bss._on_exit_args_instance
                0x00000000      0x108 c:/progra~2/microsoft visual studio/2019/community/linux/gcc_arm/bin/../lib/gcc/arm-none-eabi/8.2.1/../../../../arm-none-eabi/lib/thumb/v7e-m+fp/hard\libc_nano.a(lib_a-on_exit_args.o)
 .rodata.__on_exit_args
                0x00000000        0x4 c:/progra~2/microsoft visual studio/2019/community/linux/gcc_arm/bin/../lib/gcc/arm-none-eabi/8.2.1/../../../../arm-none-eabi/lib/thumb/v7e-m+fp/hard\libc_nano.a(lib_a-on_exit_args.o)
 .ARM.attributes
                0x00000000       0x32 c:/progra~2/microsoft visual studio/2019/community/linux/gcc_arm/bin/../lib/gcc/arm-none-eabi/8.2.1/../../../../arm-none-eabi/lib/thumb/v7e-m+fp/hard\libc_nano.a(lib_a-on_exit_args.o)
 .text          0x00000000        0x0 c:/progra~2/microsoft visual studio/2019/community/linux/gcc_arm/bin/../lib/gcc/arm-none-eabi/8.2.1/../../../../arm-none-eabi/lib/thumb/v7e-m+fp/hard\libc_nano.a(lib_a-sbrkr.o)
 .data          0x00000000        0x0 c:/progra~2/microsoft visual studio/2019/community/linux/gcc_arm/bin/../lib/gcc/arm-none-eabi/8.2.1/../../../../arm-none-eabi/lib/thumb/v7e-m+fp/hard\libc_nano.a(lib_a-sbrkr.o)
 .bss           0x00000000        0x0 c:/progra~2/microsoft visual studio/2019/community/linux/gcc_arm/bin/../lib/gcc/arm-none-eabi/8.2.1/../../../../arm-none-eabi/lib/thumb/v7e-m+fp/hard\libc_nano.a(lib_a-sbrkr.o)
 .text._sbrk_r  0x00000000       0x20 c:/progra~2/microsoft visual studio/2019/community/linux/gcc_arm/bin/../lib/gcc/arm-none-eabi/8.2.1/../../../../arm-none-eabi/lib/thumb/v7e-m+fp/hard\libc_nano.a(lib_a-sbrkr.o)
 .debug_frame   0x00000000       0x2c c:/progra~2/microsoft visual studio/2019/community/linux/gcc_arm/bin/../lib/gcc/arm-none-eabi/8.2.1/../../../../arm-none-eabi/lib/thumb/v7e-m+fp/hard\libc_nano.a(lib_a-sbrkr.o)
 .ARM.attributes
                0x00000000       0x34 c:/progra~2/microsoft visual studio/2019/community/linux/gcc_arm/bin/../lib/gcc/arm-none-eabi/8.2.1/../../../../arm-none-eabi/lib/thumb/v7e-m+fp/hard\libc_nano.a(lib_a-sbrkr.o)
 .text          0x00000000        0x0 c:/progra~2/microsoft visual studio/2019/community/linux/gcc_arm/bin/../lib/gcc/arm-none-eabi/8.2.1/../../../../arm-none-eabi/lib/thumb/v7e-m+fp/hard\libc_nano.a(lib_a-signal.o)
 .data          0x00000000        0x0 c:/progra~2/microsoft visual studio/2019/community/linux/gcc_arm/bin/../lib/gcc/arm-none-eabi/8.2.1/../../../../arm-none-eabi/lib/thumb/v7e-m+fp/hard\libc_nano.a(lib_a-signal.o)
 .bss           0x00000000        0x0 c:/progra~2/microsoft visual studio/2019/community/linux/gcc_arm/bin/../lib/gcc/arm-none-eabi/8.2.1/../../../../arm-none-eabi/lib/thumb/v7e-m+fp/hard\libc_nano.a(lib_a-signal.o)
 .text._init_signal_r
                0x00000000       0x28 c:/progra~2/microsoft visual studio/2019/community/linux/gcc_arm/bin/../lib/gcc/arm-none-eabi/8.2.1/../../../../arm-none-eabi/lib/thumb/v7e-m+fp/hard\libc_nano.a(lib_a-signal.o)
 .text._signal_r
                0x00000000       0x30 c:/progra~2/microsoft visual studio/2019/community/linux/gcc_arm/bin/../lib/gcc/arm-none-eabi/8.2.1/../../../../arm-none-eabi/lib/thumb/v7e-m+fp/hard\libc_nano.a(lib_a-signal.o)
 .text.__sigtramp_r
                0x00000000       0x48 c:/progra~2/microsoft visual studio/2019/community/linux/gcc_arm/bin/../lib/gcc/arm-none-eabi/8.2.1/../../../../arm-none-eabi/lib/thumb/v7e-m+fp/hard\libc_nano.a(lib_a-signal.o)
 .text.signal   0x00000000       0x10 c:/progra~2/microsoft visual studio/2019/community/linux/gcc_arm/bin/../lib/gcc/arm-none-eabi/8.2.1/../../../../arm-none-eabi/lib/thumb/v7e-m+fp/hard\libc_nano.a(lib_a-signal.o)
 .text._init_signal
                0x00000000        0xc c:/progra~2/microsoft visual studio/2019/community/linux/gcc_arm/bin/../lib/gcc/arm-none-eabi/8.2.1/../../../../arm-none-eabi/lib/thumb/v7e-m+fp/hard\libc_nano.a(lib_a-signal.o)
 .text.__sigtramp
                0x00000000       0x10 c:/progra~2/microsoft visual studio/2019/community/linux/gcc_arm/bin/../lib/gcc/arm-none-eabi/8.2.1/../../../../arm-none-eabi/lib/thumb/v7e-m+fp/hard\libc_nano.a(lib_a-signal.o)
 .text          0x00000000        0x0 c:/progra~2/microsoft visual studio/2019/community/linux/gcc_arm/bin/../lib/gcc/arm-none-eabi/8.2.1/../../../../arm-none-eabi/lib/thumb/v7e-m+fp/hard\libc_nano.a(lib_a-signalr.o)
 .data          0x00000000        0x0 c:/progra~2/microsoft visual studio/2019/community/linux/gcc_arm/bin/../lib/gcc/arm-none-eabi/8.2.1/../../../../arm-none-eabi/lib/thumb/v7e-m+fp/hard\libc_nano.a(lib_a-signalr.o)
 .bss           0x00000000        0x0 c:/progra~2/microsoft visual studio/2019/community/linux/gcc_arm/bin/../lib/gcc/arm-none-eabi/8.2.1/../../../../arm-none-eabi/lib/thumb/v7e-m+fp/hard\libc_nano.a(lib_a-signalr.o)
 .data          0x00000000        0x0 c:/progra~2/microsoft visual studio/2019/community/linux/gcc_arm/bin/../lib/gcc/arm-none-eabi/8.2.1/../../../../arm-none-eabi/lib/thumb/v7e-m+fp/hard\libc_nano.a(lib_a-strcmp.o)
 .bss           0x00000000        0x0 c:/progra~2/microsoft visual studio/2019/community/linux/gcc_arm/bin/../lib/gcc/arm-none-eabi/8.2.1/../../../../arm-none-eabi/lib/thumb/v7e-m+fp/hard\libc_nano.a(lib_a-strcmp.o)
 .text          0x00000000        0x0 c:/progra~2/microsoft visual studio/2019/community/linux/gcc_arm/bin/../lib/gcc/arm-none-eabi/8.2.1/../../../../arm-none-eabi/lib/thumb/v7e-m+fp/hard\libc_nano.a(lib_a-mlock.o)
 .data          0x00000000        0x0 c:/progra~2/microsoft visual studio/2019/community/linux/gcc_arm/bin/../lib/gcc/arm-none-eabi/8.2.1/../../../../arm-none-eabi/lib/thumb/v7e-m+fp/hard\libc_nano.a(lib_a-mlock.o)
 .bss           0x00000000        0x0 c:/progra~2/microsoft visual studio/2019/community/linux/gcc_arm/bin/../lib/gcc/arm-none-eabi/8.2.1/../../../../arm-none-eabi/lib/thumb/v7e-m+fp/hard\libc_nano.a(lib_a-mlock.o)
 .text          0x00000000        0x0 c:/progra~2/microsoft visual studio/2019/community/linux/gcc_arm/bin/../lib/gcc/arm-none-eabi/8.2.1/../../../../arm-none-eabi/lib/thumb/v7e-m+fp/hard\libc_nano.a(lib_a-reent.o)
 .data          0x00000000        0x0 c:/progra~2/microsoft visual studio/2019/community/linux/gcc_arm/bin/../lib/gcc/arm-none-eabi/8.2.1/../../../../arm-none-eabi/lib/thumb/v7e-m+fp/hard\libc_nano.a(lib_a-reent.o)
 .bss           0x00000000        0x0 c:/progra~2/microsoft visual studio/2019/community/linux/gcc_arm/bin/../lib/gcc/arm-none-eabi/8.2.1/../../../../arm-none-eabi/lib/thumb/v7e-m+fp/hard\libc_nano.a(lib_a-reent.o)
 .text.cleanup_glue
                0x00000000       0x1a c:/progra~2/microsoft visual studio/2019/community/linux/gcc_arm/bin/../lib/gcc/arm-none-eabi/8.2.1/../../../../arm-none-eabi/lib/thumb/v7e-m+fp/hard\libc_nano.a(lib_a-reent.o)
 .text._reclaim_reent
                0x00000000       0xb8 c:/progra~2/microsoft visual studio/2019/community/linux/gcc_arm/bin/../lib/gcc/arm-none-eabi/8.2.1/../../../../arm-none-eabi/lib/thumb/v7e-m+fp/hard\libc_nano.a(lib_a-reent.o)
 .text          0x00000000        0x0 c:/progra~2/microsoft visual studio/2019/community/linux/gcc_arm/bin/../lib/gcc/arm-none-eabi/8.2.1/../../../../arm-none-eabi/lib/thumb/v7e-m+fp/hard\libc_nano.a(lib_a-lock.o)
 .data          0x00000000        0x0 c:/progra~2/microsoft visual studio/2019/community/linux/gcc_arm/bin/../lib/gcc/arm-none-eabi/8.2.1/../../../../arm-none-eabi/lib/thumb/v7e-m+fp/hard\libc_nano.a(lib_a-lock.o)
 .bss           0x00000000        0x0 c:/progra~2/microsoft visual studio/2019/community/linux/gcc_arm/bin/../lib/gcc/arm-none-eabi/8.2.1/../../../../arm-none-eabi/lib/thumb/v7e-m+fp/hard\libc_nano.a(lib_a-lock.o)
 .text.__retarget_lock_init
                0x00000000        0x2 c:/progra~2/microsoft visual studio/2019/community/linux/gcc_arm/bin/../lib/gcc/arm-none-eabi/8.2.1/../../../../arm-none-eabi/lib/thumb/v7e-m+fp/hard\libc_nano.a(lib_a-lock.o)
 .text.__retarget_lock_init_recursive
                0x00000000        0x2 c:/progra~2/microsoft visual studio/2019/community/linux/gcc_arm/bin/../lib/gcc/arm-none-eabi/8.2.1/../../../../arm-none-eabi/lib/thumb/v7e-m+fp/hard\libc_nano.a(lib_a-lock.o)
 .text.__retarget_lock_close
                0x00000000        0x2 c:/progra~2/microsoft visual studio/2019/community/linux/gcc_arm/bin/../lib/gcc/arm-none-eabi/8.2.1/../../../../arm-none-eabi/lib/thumb/v7e-m+fp/hard\libc_nano.a(lib_a-lock.o)
 .text.__retarget_lock_close_recursive
                0x00000000        0x2 c:/progra~2/microsoft visual studio/2019/community/linux/gcc_arm/bin/../lib/gcc/arm-none-eabi/8.2.1/../../../../arm-none-eabi/lib/thumb/v7e-m+fp/hard\libc_nano.a(lib_a-lock.o)
 .text.__retarget_lock_acquire
                0x00000000        0x2 c:/progra~2/microsoft visual studio/2019/community/linux/gcc_arm/bin/../lib/gcc/arm-none-eabi/8.2.1/../../../../arm-none-eabi/lib/thumb/v7e-m+fp/hard\libc_nano.a(lib_a-lock.o)
 .text.__retarget_lock_try_acquire
                0x00000000        0x4 c:/progra~2/microsoft visual studio/2019/community/linux/gcc_arm/bin/../lib/gcc/arm-none-eabi/8.2.1/../../../../arm-none-eabi/lib/thumb/v7e-m+fp/hard\libc_nano.a(lib_a-lock.o)
 .text.__retarget_lock_try_acquire_recursive
                0x00000000        0x4 c:/progra~2/microsoft visual studio/2019/community/linux/gcc_arm/bin/../lib/gcc/arm-none-eabi/8.2.1/../../../../arm-none-eabi/lib/thumb/v7e-m+fp/hard\libc_nano.a(lib_a-lock.o)
 .text.__retarget_lock_release
                0x00000000        0x2 c:/progra~2/microsoft visual studio/2019/community/linux/gcc_arm/bin/../lib/gcc/arm-none-eabi/8.2.1/../../../../arm-none-eabi/lib/thumb/v7e-m+fp/hard\libc_nano.a(lib_a-lock.o)
 .text          0x00000000        0x0 c:/progra~2/microsoft visual studio/2019/community/linux/gcc_arm/bin/../lib/gcc/arm-none-eabi/8.2.1/../../../../arm-none-eabi/lib/thumb/v7e-m+fp/hard\libnosys.a(getpid.o)
 .data          0x00000000        0x0 c:/progra~2/microsoft visual studio/2019/community/linux/gcc_arm/bin/../lib/gcc/arm-none-eabi/8.2.1/../../../../arm-none-eabi/lib/thumb/v7e-m+fp/hard\libnosys.a(getpid.o)
 .bss           0x00000000        0x0 c:/progra~2/microsoft visual studio/2019/community/linux/gcc_arm/bin/../lib/gcc/arm-none-eabi/8.2.1/../../../../arm-none-eabi/lib/thumb/v7e-m+fp/hard\libnosys.a(getpid.o)
 .text          0x00000000        0x0 c:/progra~2/microsoft visual studio/2019/community/linux/gcc_arm/bin/../lib/gcc/arm-none-eabi/8.2.1/../../../../arm-none-eabi/lib/thumb/v7e-m+fp/hard\libnosys.a(kill.o)
 .data          0x00000000        0x0 c:/progra~2/microsoft visual studio/2019/community/linux/gcc_arm/bin/../lib/gcc/arm-none-eabi/8.2.1/../../../../arm-none-eabi/lib/thumb/v7e-m+fp/hard\libnosys.a(kill.o)
 .bss           0x00000000        0x0 c:/progra~2/microsoft visual studio/2019/community/linux/gcc_arm/bin/../lib/gcc/arm-none-eabi/8.2.1/../../../../arm-none-eabi/lib/thumb/v7e-m+fp/hard\libnosys.a(kill.o)
 .text          0x00000000        0x0 c:/progra~2/microsoft visual studio/2019/community/linux/gcc_arm/bin/../lib/gcc/arm-none-eabi/8.2.1/../../../../arm-none-eabi/lib/thumb/v7e-m+fp/hard\libnosys.a(sbrk.o)
 .data          0x00000000        0x0 c:/progra~2/microsoft visual studio/2019/community/linux/gcc_arm/bin/../lib/gcc/arm-none-eabi/8.2.1/../../../../arm-none-eabi/lib/thumb/v7e-m+fp/hard\libnosys.a(sbrk.o)
 .bss           0x00000000        0x0 c:/progra~2/microsoft visual studio/2019/community/linux/gcc_arm/bin/../lib/gcc/arm-none-eabi/8.2.1/../../../../arm-none-eabi/lib/thumb/v7e-m+fp/hard\libnosys.a(sbrk.o)
 .text._sbrk    0x00000000       0x1c c:/progra~2/microsoft visual studio/2019/community/linux/gcc_arm/bin/../lib/gcc/arm-none-eabi/8.2.1/../../../../arm-none-eabi/lib/thumb/v7e-m+fp/hard\libnosys.a(sbrk.o)
 .bss.heap_end.5501
                0x00000000        0x4 c:/progra~2/microsoft visual studio/2019/community/linux/gcc_arm/bin/../lib/gcc/arm-none-eabi/8.2.1/../../../../arm-none-eabi/lib/thumb/v7e-m+fp/hard\libnosys.a(sbrk.o)
 .debug_frame   0x00000000       0x20 c:/progra~2/microsoft visual studio/2019/community/linux/gcc_arm/bin/../lib/gcc/arm-none-eabi/8.2.1/../../../../arm-none-eabi/lib/thumb/v7e-m+fp/hard\libnosys.a(sbrk.o)
 .ARM.attributes
                0x00000000       0x34 c:/progra~2/microsoft visual studio/2019/community/linux/gcc_arm/bin/../lib/gcc/arm-none-eabi/8.2.1/../../../../arm-none-eabi/lib/thumb/v7e-m+fp/hard\libnosys.a(sbrk.o)
 .text          0x00000000        0x0 c:/progra~2/microsoft visual studio/2019/community/linux/gcc_arm/bin/../lib/gcc/arm-none-eabi/8.2.1/../../../../arm-none-eabi/lib/thumb/v7e-m+fp/hard\libnosys.a(_exit.o)
 .data          0x00000000        0x0 c:/progra~2/microsoft visual studio/2019/community/linux/gcc_arm/bin/../lib/gcc/arm-none-eabi/8.2.1/../../../../arm-none-eabi/lib/thumb/v7e-m+fp/hard\libnosys.a(_exit.o)
 .bss           0x00000000        0x0 c:/progra~2/microsoft visual studio/2019/community/linux/gcc_arm/bin/../lib/gcc/arm-none-eabi/8.2.1/../../../../arm-none-eabi/lib/thumb/v7e-m+fp/hard\libnosys.a(_exit.o)

Memory Configuration

Name             Origin             Length             Attributes
TCM              0x00100000         0x00030000         xrw
SYSRAM           0x22000000         0x00010000         xrw
FLASH            0x10000000         0x00100000         xr
*default*        0x00000000         0xffffffff

Linker script and memory map

LOAD CMakeFiles/azure-sphere-combo-cifar10-rtcore.dir/main.c.obj
LOAD CMakeFiles/azure-sphere-combo-cifar10-rtcore.dir/D_/CareerHack2021/project/source/RTCORE_OS_HAL/src/os_hal_gpio.c.obj
LOAD CMakeFiles/azure-sphere-combo-cifar10-rtcore.dir/D_/CareerHack2021/project/source/RTCORE_OS_HAL/src/os_hal_uart.c.obj
LOAD CMakeFiles/azure-sphere-combo-cifar10-rtcore.dir/D_/CareerHack2021/project/source/RTCORE_OS_HAL/src/os_hal_mbox.c.obj
LOAD CMakeFiles/azure-sphere-combo-cifar10-rtcore.dir/D_/CareerHack2021/project/source/RTCORE_OS_HAL/src/os_hal_mbox_shared_mem.c.obj
LOAD CMakeFiles/azure-sphere-combo-cifar10-rtcore.dir/D_/CareerHack2021/project/app/lib_src/emergency_detect/emergency-detect.cc.obj
LOAD CMakeFiles/azure-sphere-combo-cifar10-rtcore.dir/D_/CareerHack2021/project/app/lib_src/emergency_detect/main.cc.obj
LOAD lib/MT3620_M4_Driver/libMT3620_M4_Driver.a
LOAD ../../../../../../prebuilts/lib/libtensorflow-microlite.a
LOAD ../../../../../../prebuilts/lib/libcmsis.a
LOAD c:/progra~2/microsoft visual studio/2019/community/linux/gcc_arm/bin/../lib/gcc/arm-none-eabi/8.2.1/../../../../arm-none-eabi/lib/thumb/v7e-m+fp/hard\libstdc++_nano.a
LOAD c:/progra~2/microsoft visual studio/2019/community/linux/gcc_arm/bin/../lib/gcc/arm-none-eabi/8.2.1/../../../../arm-none-eabi/lib/thumb/v7e-m+fp/hard\libsupc++_nano.a
LOAD c:/progra~2/microsoft visual studio/2019/community/linux/gcc_arm/bin/../lib/gcc/arm-none-eabi/8.2.1/thumb/v7e-m+fp/hard\libgcc.a
LOAD c:/progra~2/microsoft visual studio/2019/community/linux/gcc_arm/bin/../lib/gcc/arm-none-eabi/8.2.1/../../../../arm-none-eabi/lib/thumb/v7e-m+fp/hard\libnosys.a
LOAD lib/MT3620_M4_Driver/lib/MT3620_M4_BSP/libMT3620_M4_BSP.a
LOAD lib/MT3620_M4_Driver/MT3620_M4_BSP/FreeRTOS/libMT3620_M4_FreeRTOS.a
LOAD c:/progra~2/microsoft visual studio/2019/community/linux/gcc_arm/bin/../lib/gcc/arm-none-eabi/8.2.1/../../../../arm-none-eabi/lib/thumb/v7e-m+fp/hard\libstdc++_nano.a
LOAD c:/progra~2/microsoft visual studio/2019/community/linux/gcc_arm/bin/../lib/gcc/arm-none-eabi/8.2.1/../../../../arm-none-eabi/lib/thumb/v7e-m+fp/hard\libm.a
LOAD c:/progra~2/microsoft visual studio/2019/community/linux/gcc_arm/bin/../lib/gcc/arm-none-eabi/8.2.1/../../../../arm-none-eabi/lib/thumb/v7e-m+fp/hard\libc_nano.a
START GROUP
LOAD c:/progra~2/microsoft visual studio/2019/community/linux/gcc_arm/bin/../lib/gcc/arm-none-eabi/8.2.1/thumb/v7e-m+fp/hard\libgcc.a
LOAD c:/progra~2/microsoft visual studio/2019/community/linux/gcc_arm/bin/../lib/gcc/arm-none-eabi/8.2.1/../../../../arm-none-eabi/lib/thumb/v7e-m+fp/hard\libg_nano.a
LOAD c:/progra~2/microsoft visual studio/2019/community/linux/gcc_arm/bin/../lib/gcc/arm-none-eabi/8.2.1/../../../../arm-none-eabi/lib/thumb/v7e-m+fp/hard\libc_nano.a
END GROUP
START GROUP
LOAD c:/progra~2/microsoft visual studio/2019/community/linux/gcc_arm/bin/../lib/gcc/arm-none-eabi/8.2.1/thumb/v7e-m+fp/hard\libgcc.a
LOAD c:/progra~2/microsoft visual studio/2019/community/linux/gcc_arm/bin/../lib/gcc/arm-none-eabi/8.2.1/../../../../arm-none-eabi/lib/thumb/v7e-m+fp/hard\libc_nano.a
LOAD c:/progra~2/microsoft visual studio/2019/community/linux/gcc_arm/bin/../lib/gcc/arm-none-eabi/8.2.1/../../../../arm-none-eabi/lib/thumb/v7e-m+fp/hard\libnosys.a
END GROUP
START GROUP
LOAD c:/progra~2/microsoft visual studio/2019/community/linux/gcc_arm/bin/../lib/gcc/arm-none-eabi/8.2.1/thumb/v7e-m+fp/hard\libgcc.a
LOAD c:/progra~2/microsoft visual studio/2019/community/linux/gcc_arm/bin/../lib/gcc/arm-none-eabi/8.2.1/../../../../arm-none-eabi/lib/thumb/v7e-m+fp/hard\libc_nano.a
LOAD c:/progra~2/microsoft visual studio/2019/community/linux/gcc_arm/bin/../lib/gcc/arm-none-eabi/8.2.1/../../../../arm-none-eabi/lib/thumb/v7e-m+fp/hard\libnosys.a
END GROUP

.text           0x00100000    0x1b3e4
 *(.vector_table)
 .vector_table  0x00100000      0x1d0 lib/MT3620_M4_Driver/lib/MT3620_M4_BSP/libMT3620_M4_BSP.a(vector_table.c.obj)
                0x00100000                __isr_vector
 *(.text)
 .text          0x001001d0      0x348 CMakeFiles/azure-sphere-combo-cifar10-rtcore.dir/main.c.obj
                0x001001d0                vApplicationStackOverflowHook
                0x001001f4                vApplicationMallocFailedHook
                0x0010020c                _putchar
                0x0010023a                mbox_fifo_cb
                0x0010028c                mbox_swint_cb
                0x001004d4                RTCoreMain
 .text          0x00100518      0x764 CMakeFiles/azure-sphere-combo-cifar10-rtcore.dir/D_/CareerHack2021/project/source/RTCORE_OS_HAL/src/os_hal_uart.c.obj
                0x00100544                mtk_os_hal_uart_ctlr_init
                0x00100604                mtk_os_hal_uart_ctlr_deinit
                0x00100638                mtk_os_hal_uart_dumpreg
                0x00100666                mtk_os_hal_uart_set_baudrate
                0x0010069e                mtk_os_hal_uart_set_format
                0x001006f8                mtk_os_hal_uart_get_char
                0x0010072e                mtk_os_hal_uart_get_char_nowait
                0x00100764                mtk_os_hal_uart_put_char
                0x0010079c                mtk_os_hal_uart_clear_irq_status
                0x001007d0                mtk_os_hal_uart_set_irq
                0x00100808                mtk_os_hal_uart_set_hw_fc
                0x00100840                mtk_os_hal_uart_disable_sw_fc
                0x0010086e                mtk_os_hal_uart_set_sw_fc
                0x001009a8                mtk_os_hal_uart_dma_send_data
                0x00100b10                mtk_os_hal_uart_dma_get_data
 .text          0x00100c7c      0xd24 CMakeFiles/azure-sphere-combo-cifar10-rtcore.dir/D_/CareerHack2021/project/source/RTCORE_OS_HAL/src/os_hal_mbox.c.obj
                0x00101034                mtk_os_hal_mbox_sw_int_register_cb
                0x0010115c                mtk_os_hal_mbox_sw_int_unregister_cb
                0x001011f8                mtk_os_hal_mbox_fifo_register_cb
                0x00101448                mtk_os_hal_mbox_fifo_unregister_cb
                0x00101574                mtk_os_hal_mbox_open_channel
                0x0010168c                mtk_os_hal_mbox_close_channel
                0x0010171c                mtk_os_hal_mbox_fifo_read
                0x001017ec                mtk_os_hal_mbox_fifo_write
                0x001018bc                mtk_os_hal_mbox_ioctl
 .text          0x001019a0      0x470 CMakeFiles/azure-sphere-combo-cifar10-rtcore.dir/D_/CareerHack2021/project/source/RTCORE_OS_HAL/src/os_hal_mbox_shared_mem.c.obj
                0x00101a4e                GetIntercoreBuffers
                0x00101b72                EnqueueData
                0x00101ca0                DequeueData
 .text          0x00101e10     0x19f4 lib/MT3620_M4_Driver/libMT3620_M4_Driver.a(printf.c.obj)
                0x001036c0                printf_
                0x001036f8                sprintf_
                0x00103730                snprintf_
                0x00103768                vprintf_
                0x00103794                vsnprintf_
                0x001037c0                fctprintf
 .text          0x00103804      0x904 lib/MT3620_M4_Driver/libMT3620_M4_Driver.a(mhal_uart.c.obj)
                0x00103804                mtk_mhal_uart_enable_clk
                0x0010382e                mtk_mhal_uart_disable_clk
                0x00103858                mtk_mhal_uart_sw_reset
                0x00103880                mtk_mhal_uart_dumpreg
                0x001038a8                mtk_mhal_uart_hw_init
                0x001038f4                mtk_mhal_uart_set_baudrate
                0x0010393c                mtk_mhal_uart_set_format
                0x001039c0                mtk_mhal_uart_set_hw_fc
                0x00103a0e                mtk_mhal_uart_disable_sw_fc
                0x00103a36                mtk_mhal_uart_set_sw_fc
                0x00103a9c                mtk_mhal_uart_set_dma
                0x00103acc                mtk_mhal_uart_clear_irq_status
                0x00103af8                mtk_mhal_uart_set_irq
                0x00103b28                mtk_mhal_uart_putc
                0x00103b58                mtk_mhal_uart_getc
                0x00103b8a                mtk_mhal_uart_getc_nowait
                0x00103bb6                mtk_mhal_uart_dma_tx_callback_register
                0x00103bfa                mtk_mhal_uart_dma_rx_callback_register
                0x00103c96                mtk_mhal_uart_allocate_dma_tx_ch
                0x00103cce                mtk_mhal_uart_allocate_dma_rx_ch
                0x00103d06                mtk_mhal_uart_release_dma_tx_ch
                0x00103d3e                mtk_mhal_uart_release_dma_rx_ch
                0x00103d76                mtk_mhal_uart_dma_tx_config
                0x00103e1c                mtk_mhal_uart_dma_rx_config
                0x00103ec8                mtk_mhal_uart_start_dma_tx
                0x00103f50                mtk_mhal_uart_start_dma_rx
                0x00103fae                mtk_mhal_uart_stop_dma_tx
                0x00103ff2                mtk_mhal_uart_stop_dma_rx
                0x00104036                mtk_mhal_uart_update_dma_tx_info
                0x001040a2                mtk_mhal_uart_update_dma_rx_info
 .text          0x00104108      0x63c lib/MT3620_M4_Driver/libMT3620_M4_Driver.a(hdl_uart.c.obj)
                0x00104108                mtk_hdl_uart_cg_config
                0x00104144                mtk_hdl_uart_reset
                0x00104178                mtk_hdl_uart_dmreg
                0x0010419e                mtk_hdl_uart_init
                0x001041d2                mtk_hdl_uart_set_baudrate
                0x00104354                mtk_hdl_uart_set_format
                0x001043c2                mtk_hdl_uart_dma_en
                0x00104418                mtk_hdl_uart_tx_dma_handshake
                0x00104460                mtk_hdl_uart_rx_dma_handshake
                0x001044a8                mtk_hdl_uart_clear_irq_status
                0x001044f6                mtk_hdl_uart_set_irq
                0x00104518                mtk_hdl_uart_set_hw_fc
                0x001045b2                mtk_hdl_uart_disable_sw_fc
                0x00104602                mtk_hdl_uart_set_sw_fc
                0x001046da                mtk_hdl_uart_output_char
                0x0010470e                mtk_hdl_uart_input_char
 .text          0x00104744      0x500 lib/MT3620_M4_Driver/libMT3620_M4_Driver.a(mhal_mbox.c.obj)
                0x00104744                mtk_mhal_mbox_reset
                0x0010477c                mtk_mhal_mbox_fifo_read
                0x0010481c                mtk_mhal_mbox_fifo_write
                0x0010495e                mtk_mhal_mbox_ioctl
 .text          0x00104c44      0x360 lib/MT3620_M4_Driver/libMT3620_M4_Driver.a(hdl_mbox.c.obj)
                0x00104c86                mtk_hdl_mbox_sem_post
                0x00104ca0                mtk_hdl_mbox_sem_pend
                0x00104cc0                mtk_hdl_mbox_data_fifo_post
                0x00104cdc                mtk_hdl_mbox_cmd_fifo_post
                0x00104cf8                mtk_hdl_mbox_get_post_fifo_cnt
                0x00104d18                mtk_hdl_mbox_data_fifo_acpt
                0x00104d38                mtk_hdl_mbox_cmd_fifo_acpt
                0x00104d58                mtk_hdl_mbox_get_acpt_fifo_cnt
                0x00104d78                mtk_hdl_mbox_get_nf_thrs
                0x00104d98                mtk_hdl_mbox_set_nf_thrs
                0x00104dba                mtk_hdl_mbox_get_ne_thrs
                0x00104dda                mtk_hdl_mbox_set_ne_thrs
                0x00104dfc                mtk_hdl_mbox_trig_sw_int
                0x00104e22                mtk_hdl_mbox_sw_int_en
                0x00104e3e                mtk_hdl_mbox_get_sw_int_en
                0x00104e5e                mtk_hdl_mbox_sw_int_ctrl
                0x00104eb0                mtk_hdl_mbox_get_sw_int_sts
                0x00104ed0                mtk_hdl_mbox_clear_sw_int_sts
                0x00104eec                mtk_hdl_mbox_int_en
                0x00104f2e                mtk_hdl_mbox_get_int_en
                0x00104f4e                mtk_hdl_mbox_get_int_sts
                0x00104f6e                mtk_hdl_mbox_clear_int_sts
                0x00104f8a                mtk_hdl_mbox_reset
 .text          0x00104fa4      0x268 lib/MT3620_M4_Driver/libMT3620_M4_Driver.a(mhal_osai.c.obj)
                0x00104fa4                osai_delay_us
                0x00105034                osai_delay_ms
                0x00105060                osai_readl
                0x00105078                osai_writel
                0x00105094                osai_get_phyaddr
                0x001050aa                osai_clean_cache
                0x001050c0                osai_invalid_cache
                0x001050d6                osai_dma_allocate_chan
                0x001050ee                osai_dma_config
                0x00105108                osai_dma_start
                0x00105120                osai_dma_stop
                0x00105138                osai_dma_set_param
                0x00105156                osai_dma_get_param
                0x00105174                osai_dma_release_chan
                0x0010518c                osai_dma_get_status
                0x001051a4                osai_dma_update_vfifo_swptr
                0x001051be                osai_dma_vff_read_data
                0x001051da                osai_dma_reset
                0x001051f2                osai_dma_clr_dreq
 .text          0x0010520c      0x378 c:/progra~2/microsoft visual studio/2019/community/linux/gcc_arm/bin/../lib/gcc/arm-none-eabi/8.2.1/thumb/v7e-m+fp/hard\libgcc.a(_arm_addsubdf3.o)
                0x0010520c                __aeabi_drsub
                0x00105214                __aeabi_dsub
                0x00105214                __subdf3
                0x00105218                __aeabi_dadd
                0x00105218                __adddf3
                0x00105490                __floatunsidf
                0x00105490                __aeabi_ui2d
                0x001054b0                __floatsidf
                0x001054b0                __aeabi_i2d
                0x001054d4                __aeabi_f2d
                0x001054d4                __extendsfdf2
                0x00105518                __floatundidf
                0x00105518                __aeabi_ul2d
                0x00105528                __floatdidf
                0x00105528                __aeabi_l2d
 .text          0x00105584      0x424 c:/progra~2/microsoft visual studio/2019/community/linux/gcc_arm/bin/../lib/gcc/arm-none-eabi/8.2.1/thumb/v7e-m+fp/hard\libgcc.a(_arm_muldivdf3.o)
                0x00105584                __aeabi_dmul
                0x00105584                __muldf3
                0x001057d8                __divdf3
                0x001057d8                __aeabi_ddiv
 .text          0x001059a8      0x110 c:/progra~2/microsoft visual studio/2019/community/linux/gcc_arm/bin/../lib/gcc/arm-none-eabi/8.2.1/thumb/v7e-m+fp/hard\libgcc.a(_arm_cmpdf2.o)
                0x001059a8                __gtdf2
                0x001059a8                __gedf2
                0x001059b0                __ltdf2
                0x001059b0                __ledf2
                0x001059b8                __nedf2
                0x001059b8                __eqdf2
                0x001059b8                __cmpdf2
                0x00105a34                __aeabi_cdrcmple
                0x00105a44                __aeabi_cdcmpeq
                0x00105a44                __aeabi_cdcmple
                0x00105a54                __aeabi_dcmpeq
                0x00105a68                __aeabi_dcmplt
                0x00105a7c                __aeabi_dcmple
                0x00105a90                __aeabi_dcmpge
                0x00105aa4                __aeabi_dcmpgt
 .text          0x00105ab8       0x50 c:/progra~2/microsoft visual studio/2019/community/linux/gcc_arm/bin/../lib/gcc/arm-none-eabi/8.2.1/thumb/v7e-m+fp/hard\libgcc.a(_arm_fixdfsi.o)
                0x00105ab8                __aeabi_d2iz
                0x00105ab8                __fixdfsi
 .text          0x00105b08       0x40 c:/progra~2/microsoft visual studio/2019/community/linux/gcc_arm/bin/../lib/gcc/arm-none-eabi/8.2.1/thumb/v7e-m+fp/hard\libgcc.a(_arm_fixunsdfsi.o)
                0x00105b08                __aeabi_d2uiz
                0x00105b08                __fixunsdfsi
 .text          0x00105b48       0xa0 c:/progra~2/microsoft visual studio/2019/community/linux/gcc_arm/bin/../lib/gcc/arm-none-eabi/8.2.1/thumb/v7e-m+fp/hard\libgcc.a(_arm_truncdfsf2.o)
                0x00105b48                __truncdfsf2
                0x00105b48                __aeabi_d2f
 .text          0x00105be8       0x30 c:/progra~2/microsoft visual studio/2019/community/linux/gcc_arm/bin/../lib/gcc/arm-none-eabi/8.2.1/thumb/v7e-m+fp/hard\libgcc.a(_aeabi_uldivmod.o)
                0x00105be8                __aeabi_uldivmod
 .text          0x00105c18       0x30 c:/progra~2/microsoft visual studio/2019/community/linux/gcc_arm/bin/../lib/gcc/arm-none-eabi/8.2.1/thumb/v7e-m+fp/hard\libgcc.a(_fixdfdi.o)
                0x00105c18                __fixdfdi
                0x00105c18                __aeabi_d2lz
 .text          0x00105c48       0x3c c:/progra~2/microsoft visual studio/2019/community/linux/gcc_arm/bin/../lib/gcc/arm-none-eabi/8.2.1/thumb/v7e-m+fp/hard\libgcc.a(_fixunsdfdi.o)
                0x00105c48                __fixunsdfdi
                0x00105c48                __aeabi_d2ulz
 .text          0x00105c84      0x2d0 c:/progra~2/microsoft visual studio/2019/community/linux/gcc_arm/bin/../lib/gcc/arm-none-eabi/8.2.1/thumb/v7e-m+fp/hard\libgcc.a(_udivmoddi4.o)
                0x00105c84                __udivmoddi4
 .text          0x00105f54        0x4 c:/progra~2/microsoft visual studio/2019/community/linux/gcc_arm/bin/../lib/gcc/arm-none-eabi/8.2.1/thumb/v7e-m+fp/hard\libgcc.a(_dvmd_tls.o)
                0x00105f54                __aeabi_idiv0
                0x00105f54                __aeabi_ldiv0
 .text          0x00105f58      0x3a0 lib/MT3620_M4_Driver/lib/MT3620_M4_BSP/libMT3620_M4_BSP.a(nvic.c.obj)
                0x0010608c                SystmTick_Handler
                0x001060a8                NVIC_Register
                0x001060e8                NVIC_UnRegister
                0x00106128                NVIC_SetupVectorTable
                0x0010616c                NVIC_SWInt
                0x0010618c                NVIC_ISR_Check_and_backup
                0x001061c4                NVIC_ISR_Restore
                0x001061f4                CM4_Install_NVIC
                0x0010627a                cm4_irq_set_sw_reset
                0x00106298                cm4_irq_clear_sw_reset
                0x001062b8                cm4_irq_sw_reset
 .text          0x001062f8      0xcd0 lib/MT3620_M4_Driver/lib/MT3620_M4_BSP/libMT3620_M4_BSP.a(cirq_common.c.obj)
                0x001062f8                cirq_gpio_irq_ctl_set_level
                0x001063e0                cirq_gpio_irq_ctl_set_edge
                0x001064d0                cirq_gpio_irq_ctl_set_edge2lvl
                0x001065b8                cirq_gpio_irq_ctl_clr_edge2lvl
                0x001066a8                cirq_gpio_irq_ctl_ack_edge2lvl
                0x00106790                cirq_irq_test_set_trigger
                0x00106910                cirq_irq_test_clr_trigger
                0x00106aa0                cirq_irq_dis_set_trigger
                0x00106bdc                cirq_irq_dis_clr_trigger
                0x00106d28                cirq_irq_ctl_set_level
                0x00106dcc                cirq_irq_ctl_set_edge
                0x00106e78                cirq_cm4_wic_enable
                0x00106f24                cirq_cm4_wic_disable
 .text          0x00106fc8        0x6 lib/MT3620_M4_Driver/lib/MT3620_M4_BSP/libMT3620_M4_BSP.a(vector_table.c.obj)
                0x00106fc8                MPU_Fault_Handler
                0x00106fc8                Bus_Fault_Handler
                0x00106fc8                Usage_Fault_Handler
                0x00106fc8                Debug_Monitor_Handler
                0x00106fc8                Hard_Fault_Handler
                0x00106fc8                NMI_Handler
 *fill*         0x00106fce        0x2 
 .text          0x00106fd0       0x20 lib/MT3620_M4_Driver/lib/MT3620_M4_BSP/libMT3620_M4_BSP.a(startup_mt3620.s.obj)
                0x00106fd0                Reset_Handler
 .text          0x00106ff0     0x1414 lib/MT3620_M4_Driver/MT3620_M4_BSP/FreeRTOS/libMT3620_M4_FreeRTOS.a(queue.c.obj)
                0x00106ff0                xQueueGenericReset
                0x001070c0                xQueueGenericCreate
                0x001071b0                xQueueCreateMutex
                0x001071e0                xQueueGiveMutexRecursive
                0x00107246                xQueueTakeMutexRecursive
                0x001072b0                xQueueCreateCountingSemaphore
                0x00107312                xQueueGenericSend
                0x00107508                xQueueGenericSendFromISR
                0x00107630                xQueueGiveFromISR
                0x00107742                xQueueReceive
                0x001078fc                xQueueSemaphoreTake
                0x00107b0c                xQueuePeek
                0x00107cc8                xQueueReceiveFromISR
                0x00107dc2                xQueuePeekFromISR
                0x00107e8c                uxQueueMessagesWaiting
                0x00107ec6                uxQueueSpacesAvailable
                0x00107f0a                uxQueueMessagesWaitingFromISR
                0x00107f44                vQueueDelete
                0x00107f7e                uxQueueGetQueueNumber
                0x00107f96                vQueueSetQueueNumber
                0x00107fb2                ucQueueGetQueueType
                0x001081ec                xQueueIsQueueEmptyFromISR
                0x00108262                xQueueIsQueueFullFromISR
                0x001082ac                vQueueAddToRegistry
                0x001082fc                pcQueueGetName
                0x00108348                vQueueUnregisterQueue
                0x0010839c                vQueueWaitForMessageRestricted
 .text          0x00108404     0x2380 lib/MT3620_M4_Driver/MT3620_M4_BSP/FreeRTOS/libMT3620_M4_FreeRTOS.a(tasks.c.obj)
                0x00108404                xTaskCreate
                0x00108684                vTaskDelete
                0x001087a0                vTaskDelayUntil
                0x00108894                vTaskDelay
                0x001088fc                eTaskGetState
                0x001089c8                uxTaskPriorityGet
                0x001089fc                uxTaskPriorityGetFromISR
                0x00108a54                vTaskPrioritySet
                0x00108ba4                vTaskSuspend
                0x00108d28                vTaskResume
                0x00108de0                xTaskResumeFromISR
                0x00108ec0                vTaskStartScheduler
                0x00108f58                vTaskEndScheduler
                0x00108f88                vTaskSuspendAll
                0x00108fa4                xTaskResumeAll
                0x001090dc                xTaskGetTickCount
                0x001090fc                xTaskGetTickCountFromISR
                0x00109120                uxTaskGetNumberOfTasks
                0x00109138                pcTaskGetName
                0x00109180                uxTaskGetSystemState
                0x0010929c                xTaskIncrementTick
                0x001093ec                vTaskSetApplicationTaskTag
                0x00109424                xTaskGetApplicationTaskTag
                0x00109458                xTaskGetApplicationTaskTagFromISR
                0x001094b0                xTaskCallApplicationTaskHook
                0x001094f4                vTaskSwitchContext
                0x001095c8                vTaskPlaceOnEventList
                0x00109610                vTaskPlaceOnUnorderedEventList
                0x00109684                vTaskPlaceOnEventListRestricted
                0x001096d8                xTaskRemoveFromEventList
                0x0010979c                vTaskRemoveFromUnorderedEventList
                0x0010985c                vTaskSetTimeOutState
                0x001098a8                vTaskInternalSetTimeOutState
                0x001098d4                xTaskCheckForTimeOut
                0x00109994                vTaskMissedYield
                0x001099ac                uxTaskGetTaskNumber
                0x001099d8                vTaskSetTaskNumber
                0x00109b04                vTaskGetInfo
                0x00109d0c                xTaskGetCurrentTaskHandle
                0x00109d2c                xTaskGetSchedulerState
                0x00109d68                xTaskPriorityInherit
                0x00109e68                xTaskPriorityDisinherit
                0x00109f70                vTaskPriorityDisinheritAfterTimeout
                0x0010a0a0                uxTaskResetEventItemValue
                0x0010a0d0                pvTaskIncrementMutexHeldCount
                0x0010a0f8                ulTaskNotifyTake
                0x0010a188                xTaskNotifyWait
                0x0010a23c                xTaskGenericNotify
                0x0010a3a0                xTaskGenericNotifyFromISR
                0x0010a550                vTaskNotifyGiveFromISR
                0x0010a66c                xTaskNotifyStateClear
 .text          0x0010a784      0x914 lib/MT3620_M4_Driver/MT3620_M4_BSP/FreeRTOS/libMT3620_M4_FreeRTOS.a(timers.c.obj)
                0x0010a784                xTimerCreateTimerTask
                0x0010a7e8                xTimerCreate
                0x0010a89e                xTimerGenericCommand
                0x0010a938                xTimerGetTimerDaemonTaskHandle
                0x0010a970                xTimerGetPeriod
                0x0010a9a6                vTimerSetReloadMode
                0x0010aa0a                xTimerGetExpiryTime
                0x0010aa44                pcTimerGetName
                0x0010af98                xTimerIsTimerActive
                0x0010afe8                pvTimerGetTimerID
                0x0010b026                vTimerSetTimerID
                0x0010b064                uxTimerGetTimerNumber
                0x0010b07c                vTimerSetTimerNumber
 .text          0x0010b098      0x3f4 lib/MT3620_M4_Driver/MT3620_M4_BSP/FreeRTOS/libMT3620_M4_FreeRTOS.a(heap_4.c.obj)
                0x0010b098                pvPortMalloc
                0x0010b224                vPortFree
                0x0010b2d4                xPortGetFreeHeapSize
                0x0010b2ec                xPortGetMinimumEverFreeHeapSize
                0x0010b304                vPortInitialiseBlocks
 *fill*         0x0010b48c        0x4 
 .text          0x0010b490      0x4a4 lib/MT3620_M4_Driver/MT3620_M4_BSP/FreeRTOS/libMT3620_M4_FreeRTOS.a(port.c.obj)
                0x0010b490                pxPortInitialiseStack
                0x0010b54c                SVC_Handler
                0x0010b59a                xPortStartScheduler
                0x0010b6d8                vPortEndScheduler
                0x0010b70c                vPortEnterCritical
                0x0010b768                vPortExitCritical
                0x0010b7b8                PendSV_Handler
                0x0010b826                SysTick_Handler
                0x0010b868                vPortSetupTimerInterrupt
                0x0010b8b0                vPortValidateInterruptPriority
 .text          0x0010b934      0x168 lib/MT3620_M4_Driver/MT3620_M4_BSP/FreeRTOS/libMT3620_M4_FreeRTOS.a(list.c.obj)
                0x0010b934                vListInitialise
                0x0010b974                vListInitialiseItem
                0x0010b98e                vListInsertEnd
                0x0010b9d6                vListInsert
                0x0010ba48                uxListRemove
 .text          0x0010ba9c       0x14 c:/progra~2/microsoft visual studio/2019/community/linux/gcc_arm/bin/../lib/gcc/arm-none-eabi/8.2.1/../../../../arm-none-eabi/lib/thumb/v7e-m+fp/hard\libc_nano.a(lib_a-strcmp.o)
                0x0010ba9c                strcmp
 *(.text*)
 .text._ZN6tflite13ErrorReporterD2Ev
                0x0010bab0       0x20 CMakeFiles/azure-sphere-combo-cifar10-rtcore.dir/D_/CareerHack2021/project/app/lib_src/emergency_detect/main.cc.obj
                0x0010bab0                tflite::ErrorReporter::~ErrorReporter()
                0x0010bab0                tflite::ErrorReporter::~ErrorReporter()
 .text._ZN6tflite13ErrorReporterD0Ev
                0x0010bad0       0x1e CMakeFiles/azure-sphere-combo-cifar10-rtcore.dir/D_/CareerHack2021/project/app/lib_src/emergency_detect/main.cc.obj
                0x0010bad0                tflite::ErrorReporter::~ErrorReporter()
 .text._ZN11flatbuffers11EndianCheckEv
                0x0010baee       0x16 CMakeFiles/azure-sphere-combo-cifar10-rtcore.dir/D_/CareerHack2021/project/app/lib_src/emergency_detect/main.cc.obj
                0x0010baee                flatbuffers::EndianCheck()
 .text._ZNK11flatbuffers5Table9GetVTableEv
                0x0010bb04       0x20 CMakeFiles/azure-sphere-combo-cifar10-rtcore.dir/D_/CareerHack2021/project/app/lib_src/emergency_detect/main.cc.obj
                0x0010bb04                flatbuffers::Table::GetVTable() const
 .text._ZNK11flatbuffers5Table22GetOptionalFieldOffsetEt
                0x0010bb24       0x40 CMakeFiles/azure-sphere-combo-cifar10-rtcore.dir/D_/CareerHack2021/project/app/lib_src/emergency_detect/main.cc.obj
                0x0010bb24                flatbuffers::Table::GetOptionalFieldOffset(unsigned short) const
 .text._ZNK6tflite5Model7versionEv
                0x0010bb64       0x1e CMakeFiles/azure-sphere-combo-cifar10-rtcore.dir/D_/CareerHack2021/project/app/lib_src/emergency_detect/main.cc.obj
                0x0010bb64                tflite::Model::version() const
 .text._ZN6tflite8GetModelEPKv
                0x0010bb82       0x18 CMakeFiles/azure-sphere-combo-cifar10-rtcore.dir/D_/CareerHack2021/project/app/lib_src/emergency_detect/main.cc.obj
                0x0010bb82                tflite::GetModel(void const*)
 *fill*         0x0010bb9a        0x2 
 .text._ZN6tflite10OpResolverD2Ev
                0x0010bb9c       0x20 CMakeFiles/azure-sphere-combo-cifar10-rtcore.dir/D_/CareerHack2021/project/app/lib_src/emergency_detect/main.cc.obj
                0x0010bb9c                tflite::OpResolver::~OpResolver()
                0x0010bb9c                tflite::OpResolver::~OpResolver()
 .text._ZN6tflite10OpResolverD0Ev
                0x0010bbbc       0x1e CMakeFiles/azure-sphere-combo-cifar10-rtcore.dir/D_/CareerHack2021/project/app/lib_src/emergency_detect/main.cc.obj
                0x0010bbbc                tflite::OpResolver::~OpResolver()
 .text._ZNK6tflite15MicroOpResolver6FindOpENS_15BuiltinOperatorEi
                0x0010bbda       0x28 CMakeFiles/azure-sphere-combo-cifar10-rtcore.dir/D_/CareerHack2021/project/app/lib_src/emergency_detect/main.cc.obj
                0x0010bbda                tflite::MicroOpResolver::FindOp(tflite::BuiltinOperator, int) const
 .text._ZNK6tflite15MicroOpResolver6FindOpEPKci
                0x0010bc02       0x24 CMakeFiles/azure-sphere-combo-cifar10-rtcore.dir/D_/CareerHack2021/project/app/lib_src/emergency_detect/main.cc.obj
                0x0010bc02                tflite::MicroOpResolver::FindOp(char const*, int) const
 *fill*         0x0010bc26        0x2 
 .text._ZN6tflite15MicroOpResolverD2Ev
                0x0010bc28       0x24 CMakeFiles/azure-sphere-combo-cifar10-rtcore.dir/D_/CareerHack2021/project/app/lib_src/emergency_detect/main.cc.obj
                0x0010bc28                tflite::MicroOpResolver::~MicroOpResolver()
                0x0010bc28                tflite::MicroOpResolver::~MicroOpResolver()
 .text._ZN6tflite15MicroOpResolverD0Ev
                0x0010bc4c       0x1e CMakeFiles/azure-sphere-combo-cifar10-rtcore.dir/D_/CareerHack2021/project/app/lib_src/emergency_detect/main.cc.obj
                0x0010bc4c                tflite::MicroOpResolver::~MicroOpResolver()
 *fill*         0x0010bc6a        0x2 
 .text._ZN6tflite18MicroErrorReporterD2Ev
                0x0010bc6c       0x24 CMakeFiles/azure-sphere-combo-cifar10-rtcore.dir/D_/CareerHack2021/project/app/lib_src/emergency_detect/main.cc.obj
                0x0010bc6c                tflite::MicroErrorReporter::~MicroErrorReporter()
                0x0010bc6c                tflite::MicroErrorReporter::~MicroErrorReporter()
 .text._ZN6tflite18MicroErrorReporterD0Ev
                0x0010bc90       0x1e CMakeFiles/azure-sphere-combo-cifar10-rtcore.dir/D_/CareerHack2021/project/app/lib_src/emergency_detect/main.cc.obj
                0x0010bc90                tflite::MicroErrorReporter::~MicroErrorReporter()
 .text._ZN6tflite18MicroErrorReporterdlEPv
                0x0010bcae       0x14 CMakeFiles/azure-sphere-combo-cifar10-rtcore.dir/D_/CareerHack2021/project/app/lib_src/emergency_detect/main.cc.obj
                0x0010bcae                tflite::MicroErrorReporter::operator delete(void*)
 *fill*         0x0010bcc2        0x2 
 .text.emergency_detect_setup
                0x0010bcc4      0x260 CMakeFiles/azure-sphere-combo-cifar10-rtcore.dir/D_/CareerHack2021/project/app/lib_src/emergency_detect/main.cc.obj
                0x0010bcc4                emergency_detect_setup
 .text.emergency_detect_loop
                0x0010bf24       0xcc CMakeFiles/azure-sphere-combo-cifar10-rtcore.dir/D_/CareerHack2021/project/app/lib_src/emergency_detect/main.cc.obj
                0x0010bf24                emergency_detect_loop
 .text._ZN11flatbuffers12EndianScalarImEET_S1_
                0x0010bff0       0x16 CMakeFiles/azure-sphere-combo-cifar10-rtcore.dir/D_/CareerHack2021/project/app/lib_src/emergency_detect/main.cc.obj
                0x0010bff0                unsigned long flatbuffers::EndianScalar<unsigned long>(unsigned long)
 .text._ZN11flatbuffers10ReadScalarItEET_PKv
                0x0010c006       0x1c CMakeFiles/azure-sphere-combo-cifar10-rtcore.dir/D_/CareerHack2021/project/app/lib_src/emergency_detect/main.cc.obj
                0x0010c006                unsigned short flatbuffers::ReadScalar<unsigned short>(void const*)
 .text._ZN11flatbuffers10ReadScalarImEET_PKv
                0x0010c022       0x1c CMakeFiles/azure-sphere-combo-cifar10-rtcore.dir/D_/CareerHack2021/project/app/lib_src/emergency_detect/main.cc.obj
                0x0010c022                unsigned long flatbuffers::ReadScalar<unsigned long>(void const*)
 .text._ZN11flatbuffers10ReadScalarIlEET_PKv
                0x0010c03e       0x1c CMakeFiles/azure-sphere-combo-cifar10-rtcore.dir/D_/CareerHack2021/project/app/lib_src/emergency_detect/main.cc.obj
                0x0010c03e                long flatbuffers::ReadScalar<long>(void const*)
 .text._ZNK11flatbuffers5Table8GetFieldImEET_tS2_
                0x0010c05a       0x3c CMakeFiles/azure-sphere-combo-cifar10-rtcore.dir/D_/CareerHack2021/project/app/lib_src/emergency_detect/main.cc.obj
                0x0010c05a                unsigned long flatbuffers::Table::GetField<unsigned long>(unsigned short, unsigned long) const
 .text._ZN11flatbuffers7GetRootIN6tflite5ModelEEEPKT_PKv
                0x0010c096       0x18 CMakeFiles/azure-sphere-combo-cifar10-rtcore.dir/D_/CareerHack2021/project/app/lib_src/emergency_detect/main.cc.obj
                0x0010c096                tflite::Model const* flatbuffers::GetRoot<tflite::Model>(void const*)
 *fill*         0x0010c0ae        0x2 
 .text._ZN6tflite10OpResolverC2Ev
                0x0010c0b0       0x20 CMakeFiles/azure-sphere-combo-cifar10-rtcore.dir/D_/CareerHack2021/project/app/lib_src/emergency_detect/main.cc.obj
                0x0010c0b0                tflite::OpResolver::OpResolver()
                0x0010c0b0                tflite::OpResolver::OpResolver()
 .text._ZN6tflite15MicroOpResolverC2Ev
                0x0010c0d0       0x24 CMakeFiles/azure-sphere-combo-cifar10-rtcore.dir/D_/CareerHack2021/project/app/lib_src/emergency_detect/main.cc.obj
                0x0010c0d0                tflite::MicroOpResolver::MicroOpResolver()
                0x0010c0d0                tflite::MicroOpResolver::MicroOpResolver()
 .text._ZN6tflite22MicroMutableOpResolverILj7EEC2EPNS_13ErrorReporterE
                0x0010c0f4       0x40 CMakeFiles/azure-sphere-combo-cifar10-rtcore.dir/D_/CareerHack2021/project/app/lib_src/emergency_detect/main.cc.obj
                0x0010c0f4                tflite::MicroMutableOpResolver<7u>::MicroMutableOpResolver(tflite::ErrorReporter*)
                0x0010c0f4                tflite::MicroMutableOpResolver<7u>::MicroMutableOpResolver(tflite::ErrorReporter*)
 .text._ZN6tflite22MicroMutableOpResolverILj7EE10AddBuiltinENS_15BuiltinOperatorEP18TfLiteRegistration
                0x0010c134       0x28 CMakeFiles/azure-sphere-combo-cifar10-rtcore.dir/D_/CareerHack2021/project/app/lib_src/emergency_detect/main.cc.obj
                0x0010c134                tflite::MicroMutableOpResolver<7u>::AddBuiltin(tflite::BuiltinOperator, TfLiteRegistration*)
 .text._ZN11flatbuffers12EndianScalarIlEET_S1_
                0x0010c15c       0x16 CMakeFiles/azure-sphere-combo-cifar10-rtcore.dir/D_/CareerHack2021/project/app/lib_src/emergency_detect/main.cc.obj
                0x0010c15c                long flatbuffers::EndianScalar<long>(long)
 .text._ZN11flatbuffers12EndianScalarItEET_S1_
                0x0010c172       0x18 CMakeFiles/azure-sphere-combo-cifar10-rtcore.dir/D_/CareerHack2021/project/app/lib_src/emergency_detect/main.cc.obj
                0x0010c172                unsigned short flatbuffers::EndianScalar<unsigned short>(unsigned short)
 .text._ZN11flatbuffers14GetMutableRootIN6tflite5ModelEEEPT_Pv
                0x0010c18a       0x24 CMakeFiles/azure-sphere-combo-cifar10-rtcore.dir/D_/CareerHack2021/project/app/lib_src/emergency_detect/main.cc.obj
                0x0010c18a                tflite::Model* flatbuffers::GetMutableRoot<tflite::Model>(void*)
 *fill*         0x0010c1ae        0x2 
 .text._ZN6tflite22MicroMutableOpResolverILj7EE10AddBuiltinENS_15BuiltinOperatorERK18TfLiteRegistrationPF12TfLiteStatusPKNS_8OperatorES2_PNS_13ErrorReporterEPNS_20BuiltinDataAllocatorEPPvE
                0x0010c1b0      0x11c CMakeFiles/azure-sphere-combo-cifar10-rtcore.dir/D_/CareerHack2021/project/app/lib_src/emergency_detect/main.cc.obj
                0x0010c1b0                tflite::MicroMutableOpResolver<7u>::AddBuiltin(tflite::BuiltinOperator, TfLiteRegistration const&, TfLiteStatus (*)(tflite::Operator const*, tflite::BuiltinOperator, tflite::ErrorReporter*, tflite::BuiltinDataAllocator*, void**))
 .text._ZNK6tflite22MicroMutableOpResolverILj7EE6FindOpENS_15BuiltinOperatorE
                0x0010c2cc       0x56 CMakeFiles/azure-sphere-combo-cifar10-rtcore.dir/D_/CareerHack2021/project/app/lib_src/emergency_detect/main.cc.obj
                0x0010c2cc                tflite::MicroMutableOpResolver<7u>::FindOp(tflite::BuiltinOperator) const
 *fill*         0x0010c322        0x2 
 .text._ZN6tflite22MicroMutableOpResolverILj7EED2Ev
                0x0010c324       0x24 CMakeFiles/azure-sphere-combo-cifar10-rtcore.dir/D_/CareerHack2021/project/app/lib_src/emergency_detect/main.cc.obj
                0x0010c324                tflite::MicroMutableOpResolver<7u>::~MicroMutableOpResolver()
                0x0010c324                tflite::MicroMutableOpResolver<7u>::~MicroMutableOpResolver()
 .text._ZN6tflite22MicroMutableOpResolverILj7EED0Ev
                0x0010c348       0x1e CMakeFiles/azure-sphere-combo-cifar10-rtcore.dir/D_/CareerHack2021/project/app/lib_src/emergency_detect/main.cc.obj
                0x0010c348                tflite::MicroMutableOpResolver<7u>::~MicroMutableOpResolver()
 .text._ZN6tflite22MicroMutableOpResolverILj7EEdlEPv
                0x0010c366       0x14 CMakeFiles/azure-sphere-combo-cifar10-rtcore.dir/D_/CareerHack2021/project/app/lib_src/emergency_detect/main.cc.obj
                0x0010c366                tflite::MicroMutableOpResolver<7u>::operator delete(void*)
 .text._ZNK6tflite22MicroMutableOpResolverILj7EE6FindOpEPKc
                0x0010c37a       0x56 CMakeFiles/azure-sphere-combo-cifar10-rtcore.dir/D_/CareerHack2021/project/app/lib_src/emergency_detect/main.cc.obj
                0x0010c37a                tflite::MicroMutableOpResolver<7u>::FindOp(char const*) const
 .text._ZNK6tflite22MicroMutableOpResolverILj7EE15GetOpDataParserENS_15BuiltinOperatorE
                0x0010c3d0       0x4e CMakeFiles/azure-sphere-combo-cifar10-rtcore.dir/D_/CareerHack2021/project/app/lib_src/emergency_detect/main.cc.obj
                0x0010c3d0                tflite::MicroMutableOpResolver<7u>::GetOpDataParser(tflite::BuiltinOperator) const
 *fill*         0x0010c41e        0x2 
 .text._ZN6tflite18MicroErrorReporter6ReportEPKcSt9__va_list
                0x0010c420       0x2c ../../../../../../prebuilts/lib/libtensorflow-microlite.a(micro_error_reporter.o)
                0x0010c420                tflite::MicroErrorReporter::Report(char const*, std::__va_list)
 .text._ZN6tflite8internal13ContextHelper24AllocatePersistentBufferEP13TfLiteContextjPPv
                0x0010c44c        0x8 ../../../../../../prebuilts/lib/libtensorflow-microlite.a(micro_interpreter.o)
                0x0010c44c                tflite::internal::ContextHelper::AllocatePersistentBuffer(TfLiteContext*, unsigned int, void**)
 .text._ZN6tflite8internal13ContextHelper27RequestScratchBufferInArenaEP13TfLiteContextjPi
                0x0010c454       0x16 ../../../../../../prebuilts/lib/libtensorflow-microlite.a(micro_interpreter.o)
                0x0010c454                tflite::internal::ContextHelper::RequestScratchBufferInArena(TfLiteContext*, unsigned int, int*)
 .text._ZN6tflite8internal13ContextHelper16GetScratchBufferEP13TfLiteContexti
                0x0010c46a        0x8 ../../../../../../prebuilts/lib/libtensorflow-microlite.a(micro_interpreter.o)
                0x0010c46a                tflite::internal::ContextHelper::GetScratchBuffer(TfLiteContext*, int)
 .text._ZN6tflite8internal13ContextHelper13ReportOpErrorEP13TfLiteContextPKcz
                0x0010c472       0x20 ../../../../../../prebuilts/lib/libtensorflow-microlite.a(micro_interpreter.o)
                0x0010c472                tflite::internal::ContextHelper::ReportOpError(TfLiteContext*, char const*, ...)
 .text._ZNK6tflite16MicroInterpreter14operators_sizeEv.isra.12
                0x0010c492       0x16 ../../../../../../prebuilts/lib/libtensorflow-microlite.a(micro_interpreter.o)
 .text._ZN6tflite12DynamicAgentC2Ev
                0x0010c4a8       0x4e ../../../../../../prebuilts/lib/libtensorflow-microlite.a(micro_interpreter.o)
                0x0010c4a8                tflite::DynamicAgent::DynamicAgent()
                0x0010c4a8                tflite::DynamicAgent::DynamicAgent()
 .text._ZN6tflite16MicroInterpreterD2Ev
                0x0010c4f6       0x36 ../../../../../../prebuilts/lib/libtensorflow-microlite.a(micro_interpreter.o)
                0x0010c4f6                tflite::MicroInterpreter::~MicroInterpreter()
                0x0010c4f6                tflite::MicroInterpreter::~MicroInterpreter()
 .text._ZN6tflite16MicroInterpreter4InitEPNS_8ProfilerE
                0x0010c52c       0x7c ../../../../../../prebuilts/lib/libtensorflow-microlite.a(micro_interpreter.o)
                0x0010c52c                tflite::MicroInterpreter::Init(tflite::Profiler*)
 .text._ZN6tflite16MicroInterpreterC2EPKNS_5ModelERKNS_15MicroOpResolverEPhjPNS_13ErrorReporterEPNS_8ProfilerE
                0x0010c5a8       0x50 ../../../../../../prebuilts/lib/libtensorflow-microlite.a(micro_interpreter.o)
                0x0010c5a8                tflite::MicroInterpreter::MicroInterpreter(tflite::Model const*, tflite::MicroOpResolver const&, unsigned char*, unsigned int, tflite::ErrorReporter*, tflite::Profiler*)
                0x0010c5a8                tflite::MicroInterpreter::MicroInterpreter(tflite::Model const*, tflite::MicroOpResolver const&, unsigned char*, unsigned int, tflite::ErrorReporter*, tflite::Profiler*)
 .text._ZN6tflite16MicroInterpreter15AllocateTensorsEv
                0x0010c5f8      0x16c ../../../../../../prebuilts/lib/libtensorflow-microlite.a(micro_interpreter.o)
                0x0010c5f8                tflite::MicroInterpreter::AllocateTensors()
 .text._ZN6tflite16MicroInterpreter6InvokeEv
                0x0010c764       0xc4 ../../../../../../prebuilts/lib/libtensorflow-microlite.a(micro_interpreter.o)
                0x0010c764                tflite::MicroInterpreter::Invoke()
 .text._ZN11flatbuffers5Table10GetPointerIPKNS_6VectorIlEEEET_t
                0x0010c828       0x12 ../../../../../../prebuilts/lib/libtensorflow-microlite.a(micro_interpreter.o)
                0x0010c828                flatbuffers::Vector<long> const* flatbuffers::Table::GetPointer<flatbuffers::Vector<long> const*>(unsigned short)
 *fill*         0x0010c83a        0x2 
 .text._ZN6tflite16MicroInterpreter5inputEj
                0x0010c83c       0x38 ../../../../../../prebuilts/lib/libtensorflow-microlite.a(micro_interpreter.o)
                0x0010c83c                tflite::MicroInterpreter::input(unsigned int)
 .text._ZN6tflite16MicroInterpreter6outputEj
                0x0010c874       0x38 ../../../../../../prebuilts/lib/libtensorflow-microlite.a(micro_interpreter.o)
                0x0010c874                tflite::MicroInterpreter::output(unsigned int)
 .text._ZN12_GLOBAL__N_19StrCatStrEPciPKc
                0x0010c8ac       0x2c ../../../../../../prebuilts/lib/libtensorflow-microlite.a(micro_string.o)
 .text._ZN12_GLOBAL__N_122FastUInt32ToBufferLeftEmPci
                0x0010c8d8       0x3e ../../../../../../prebuilts/lib/libtensorflow-microlite.a(micro_string.o)
 *fill*         0x0010c916        0x2 
 .text.MicroVsnprintf
                0x0010c918      0x23c ../../../../../../prebuilts/lib/libtensorflow-microlite.a(micro_string.o)
                0x0010c918                MicroVsnprintf
 .text._ZN6tflite21SimpleMemoryAllocatorD2Ev
                0x0010cb54        0xc ../../../../../../prebuilts/lib/libtensorflow-microlite.a(simple_memory_allocator.o)
                0x0010cb54                tflite::SimpleMemoryAllocator::~SimpleMemoryAllocator()
                0x0010cb54                tflite::SimpleMemoryAllocator::~SimpleMemoryAllocator()
 .text._ZN6tflite21SimpleMemoryAllocatorD0Ev
                0x0010cb60        0xc ../../../../../../prebuilts/lib/libtensorflow-microlite.a(simple_memory_allocator.o)
                0x0010cb60                tflite::SimpleMemoryAllocator::~SimpleMemoryAllocator()
 .text._ZN6tflite21SimpleMemoryAllocator16AllocateFromHeadEjj
                0x0010cb6c       0x34 ../../../../../../prebuilts/lib/libtensorflow-microlite.a(simple_memory_allocator.o)
                0x0010cb6c                tflite::SimpleMemoryAllocator::AllocateFromHead(unsigned int, unsigned int)
 .text._ZN6tflite21SimpleMemoryAllocator16AllocateFromTailEjj
                0x0010cba0       0x34 ../../../../../../prebuilts/lib/libtensorflow-microlite.a(simple_memory_allocator.o)
                0x0010cba0                tflite::SimpleMemoryAllocator::AllocateFromTail(unsigned int, unsigned int)
 .text._ZN6tflite21SimpleMemoryAllocatorC2EPNS_13ErrorReporterEPhS3_
                0x0010cbd4       0x18 ../../../../../../prebuilts/lib/libtensorflow-microlite.a(simple_memory_allocator.o)
                0x0010cbd4                tflite::SimpleMemoryAllocator::SimpleMemoryAllocator(tflite::ErrorReporter*, unsigned char*, unsigned char*)
                0x0010cbd4                tflite::SimpleMemoryAllocator::SimpleMemoryAllocator(tflite::ErrorReporter*, unsigned char*, unsigned char*)
 .text._ZN6tflite21SimpleMemoryAllocator6CreateEPNS_13ErrorReporterEPhj
                0x0010cbec       0x40 ../../../../../../prebuilts/lib/libtensorflow-microlite.a(simple_memory_allocator.o)
                0x0010cbec                tflite::SimpleMemoryAllocator::Create(tflite::ErrorReporter*, unsigned char*, unsigned int)
 .text._ZNK6tflite21SimpleMemoryAllocator7GetHeadEv
                0x0010cc2c        0x4 ../../../../../../prebuilts/lib/libtensorflow-microlite.a(simple_memory_allocator.o)
                0x0010cc2c                tflite::SimpleMemoryAllocator::GetHead() const
 .text._ZNK6tflite21SimpleMemoryAllocator7GetTailEv
                0x0010cc30        0x4 ../../../../../../prebuilts/lib/libtensorflow-microlite.a(simple_memory_allocator.o)
                0x0010cc30                tflite::SimpleMemoryAllocator::GetTail() const
 .text._ZNK6tflite21SimpleMemoryAllocator18GetAvailableMemoryEv
                0x0010cc34        0x8 ../../../../../../prebuilts/lib/libtensorflow-microlite.a(simple_memory_allocator.o)
                0x0010cc34                tflite::SimpleMemoryAllocator::GetAvailableMemory() const
 .text._ZN6tflite13ErrorReporter6ReportEPKcz
                0x0010cc3c       0x1c ../../../../../../prebuilts/lib/libtensorflow-microlite.a(error_reporter.o)
                0x0010cc3c                tflite::ErrorReporter::Report(char const*, ...)
 .text._ZN6tflite13ErrorReporter11ReportErrorEPvPKcz
                0x0010cc58       0x1c ../../../../../../prebuilts/lib/libtensorflow-microlite.a(error_reporter.o)
                0x0010cc58                tflite::ErrorReporter::ReportError(void*, char const*, ...)
 .text._ZN6tflite12_GLOBAL__N_124SafeBuiltinDataAllocator18BuiltinDataDeleterclEPv
                0x0010cc74        0xc ../../../../../../prebuilts/lib/libtensorflow-microlite.a(flatbuffer_conversions.o)
 .text._ZN6tflite12_GLOBAL__N_117ConvertActivationENS_22ActivationFunctionTypeE
                0x0010cc80       0x14 ../../../../../../prebuilts/lib/libtensorflow-microlite.a(flatbuffer_conversions.o)
 .text._ZN6tflite12_GLOBAL__N_114ConvertPaddingENS_7PaddingE
                0x0010cc94       0x10 ../../../../../../prebuilts/lib/libtensorflow-microlite.a(flatbuffer_conversions.o)
 .text._ZN6tflite12_GLOBAL__N_126FlatBufferIntVectorToArrayEiPKN11flatbuffers6VectorIlEEPiPNS_13ErrorReporterEPKc.constprop.54
                0x0010cca4       0x40 ../../../../../../prebuilts/lib/libtensorflow-microlite.a(flatbuffer_conversions.o)
 .text._ZNK6tflite8Operator15builtin_optionsEv
                0x0010cce4       0x14 ../../../../../../prebuilts/lib/libtensorflow-microlite.a(flatbuffer_conversions.o)
                0x0010cce4                tflite::Operator::builtin_options() const
 .text._ZN6tflite17ConvertTensorTypeENS_10TensorTypeEP10TfLiteTypePNS_13ErrorReporterE
                0x0010ccf8       0x60 ../../../../../../prebuilts/lib/libtensorflow-microlite.a(flatbuffer_conversions.o)
                0x0010ccf8                tflite::ConvertTensorType(tflite::TensorType, TfLiteType*, tflite::ErrorReporter*)
 .text._ZNK11flatbuffers5Table8GetFieldIhEET_tS2_
                0x0010cd58       0x14 ../../../../../../prebuilts/lib/libtensorflow-microlite.a(flatbuffer_conversions.o)
                0x0010cd58                unsigned char flatbuffers::Table::GetField<unsigned char>(unsigned short, unsigned char) const
 .text._ZNK6tflite8Operator20builtin_options_typeEv
                0x0010cd6c        0xc ../../../../../../prebuilts/lib/libtensorflow-microlite.a(flatbuffer_conversions.o)
                0x0010cd6c                tflite::Operator::builtin_options_type() const
 .text._ZN6tflite12ParseReshapeEPKNS_8OperatorENS_15BuiltinOperatorEPNS_13ErrorReporterEPNS_20BuiltinDataAllocatorEPPv
                0x0010cd78       0x9c ../../../../../../prebuilts/lib/libtensorflow-microlite.a(flatbuffer_conversions.o)
                0x0010cd78                tflite::ParseReshape(tflite::Operator const*, tflite::BuiltinOperator, tflite::ErrorReporter*, tflite::BuiltinDataAllocator*, void**)
 .text._ZNK11flatbuffers5Table8GetFieldIlEET_tS2_
                0x0010ce14       0x14 ../../../../../../prebuilts/lib/libtensorflow-microlite.a(flatbuffer_conversions.o)
                0x0010ce14                long flatbuffers::Table::GetField<long>(unsigned short, long) const
 .text._ZNK11flatbuffers5Table8GetFieldIaEET_tS2_
                0x0010ce28       0x16 ../../../../../../prebuilts/lib/libtensorflow-microlite.a(flatbuffer_conversions.o)
                0x0010ce28                signed char flatbuffers::Table::GetField<signed char>(unsigned short, signed char) const
 *fill*         0x0010ce3e        0x2 
 .text._ZN6tflite11ParseConv2DEPKNS_8OperatorENS_15BuiltinOperatorEPNS_13ErrorReporterEPNS_20BuiltinDataAllocatorEPPv
                0x0010ce40       0xc4 ../../../../../../prebuilts/lib/libtensorflow-microlite.a(flatbuffer_conversions.o)
                0x0010ce40                tflite::ParseConv2D(tflite::Operator const*, tflite::BuiltinOperator, tflite::ErrorReporter*, tflite::BuiltinDataAllocator*, void**)
 .text._ZN6tflite20ParseDepthwiseConv2DEPKNS_8OperatorENS_15BuiltinOperatorEPNS_13ErrorReporterEPNS_20BuiltinDataAllocatorEPPv
                0x0010cf04       0xd0 ../../../../../../prebuilts/lib/libtensorflow-microlite.a(flatbuffer_conversions.o)
                0x0010cf04                tflite::ParseDepthwiseConv2D(tflite::Operator const*, tflite::BuiltinOperator, tflite::ErrorReporter*, tflite::BuiltinDataAllocator*, void**)
 .text._ZN6tflite19ParseFullyConnectedEPKNS_8OperatorENS_15BuiltinOperatorEPNS_13ErrorReporterEPNS_20BuiltinDataAllocatorEPPv
                0x0010cfd4       0xd0 ../../../../../../prebuilts/lib/libtensorflow-microlite.a(flatbuffer_conversions.o)
                0x0010cfd4                tflite::ParseFullyConnected(tflite::Operator const*, tflite::BuiltinOperator, tflite::ErrorReporter*, tflite::BuiltinDataAllocator*, void**)
 .text._ZN6tflite9ParseSvdfEPKNS_8OperatorENS_15BuiltinOperatorEPNS_13ErrorReporterEPNS_20BuiltinDataAllocatorEPPv
                0x0010d0a4       0xa4 ../../../../../../prebuilts/lib/libtensorflow-microlite.a(flatbuffer_conversions.o)
                0x0010d0a4                tflite::ParseSvdf(tflite::Operator const*, tflite::BuiltinOperator, tflite::ErrorReporter*, tflite::BuiltinDataAllocator*, void**)
 .text._ZNK11flatbuffers5Table8GetFieldIfEET_tS2_
                0x0010d148       0x24 ../../../../../../prebuilts/lib/libtensorflow-microlite.a(flatbuffer_conversions.o)
                0x0010d148                float flatbuffers::Table::GetField<float>(unsigned short, float) const
 .text._ZN6tflite12ParseSoftmaxEPKNS_8OperatorENS_15BuiltinOperatorEPNS_13ErrorReporterEPNS_20BuiltinDataAllocatorEPPv
                0x0010d16c       0x84 ../../../../../../prebuilts/lib/libtensorflow-microlite.a(flatbuffer_conversions.o)
                0x0010d16c                tflite::ParseSoftmax(tflite::Operator const*, tflite::BuiltinOperator, tflite::ErrorReporter*, tflite::BuiltinDataAllocator*, void**)
 .text._ZN6tflite11ParseOpDataEPKNS_8OperatorENS_15BuiltinOperatorEPNS_13ErrorReporterEPNS_20BuiltinDataAllocatorEPPv
                0x0010d1f0     0x1158 ../../../../../../prebuilts/lib/libtensorflow-microlite.a(flatbuffer_conversions.o)
                0x0010d1f0                tflite::ParseOpData(tflite::Operator const*, tflite::BuiltinOperator, tflite::ErrorReporter*, tflite::BuiltinDataAllocator*, void**)
 .text._ZN6tflite19ResetVariableTensorEP12TfLiteTensor
                0x0010e348       0x26 ../../../../../../prebuilts/lib/libtensorflow-microlite.a(tensor_utils.o)
                0x0010e348                tflite::ResetVariableTensor(TfLiteTensor*)
 .text._ZN6tflite12DynamicAgent4InitER13TfLiteContextPNS_13ErrorReporterEPhj
                0x0010e36e        0xe ../../../../../../prebuilts/lib/libtensorflow-microlite.a(dynamic_agent.o)
                0x0010e36e                tflite::DynamicAgent::Init(TfLiteContext&, tflite::ErrorReporter*, unsigned char*, unsigned int)
 .text._ZN6tflite12DynamicAgent8FinalizeEPNS_19NodeAndRegistrationEj
                0x0010e37c       0x30 ../../../../../../prebuilts/lib/libtensorflow-microlite.a(dynamic_agent.o)
                0x0010e37c                tflite::DynamicAgent::Finalize(tflite::NodeAndRegistration*, unsigned int)
 .text._ZN6tflite12DynamicAgent17DynamicLoadPolicyERNS_19NodeAndRegistrationE9DataIndexRj
                0x0010e3ac       0xbc ../../../../../../prebuilts/lib/libtensorflow-microlite.a(dynamic_agent.o)
                0x0010e3ac                tflite::DynamicAgent::DynamicLoadPolicy(tflite::NodeAndRegistration&, DataIndex, unsigned int&)
 .text._ZN6tflite12DynamicAgent17DefaultPreprocessEi
                0x0010e468       0xfc ../../../../../../prebuilts/lib/libtensorflow-microlite.a(dynamic_agent.o)
                0x0010e468                tflite::DynamicAgent::DefaultPreprocess(int)
 .text._ZN6tflite12DynamicAgent22MicroRuntimePreprocessEi
                0x0010e564        0x4 ../../../../../../prebuilts/lib/libtensorflow-microlite.a(dynamic_agent.o)
                0x0010e564                tflite::DynamicAgent::MicroRuntimePreprocess(int)
 .text._ZN6tflite12DynamicAgent18DefaultPostprocessEi
                0x0010e568       0x46 ../../../../../../prebuilts/lib/libtensorflow-microlite.a(dynamic_agent.o)
                0x0010e568                tflite::DynamicAgent::DefaultPostprocess(int)
 .text._ZN6tflite12DynamicAgent23MicroRuntimePostprocessEi
                0x0010e5ae        0x4 ../../../../../../prebuilts/lib/libtensorflow-microlite.a(dynamic_agent.o)
                0x0010e5ae                tflite::DynamicAgent::MicroRuntimePostprocess(int)
 *fill*         0x0010e5b2        0x2 
 .text._ZN6tflite12DynamicAgent13RegisterCacheEPhj
                0x0010e5b4       0x40 ../../../../../../prebuilts/lib/libtensorflow-microlite.a(dynamic_agent.o)
                0x0010e5b4                tflite::DynamicAgent::RegisterCache(unsigned char*, unsigned int)
 .text.IsFineGrainedOPSupport
                0x0010e5f4        0x4 ../../../../../../prebuilts/lib/libtensorflow-microlite.a(dynamic_context.o)
                0x0010e5f4                IsFineGrainedOPSupport
 .text.LoadFromExternal
                0x0010e5f8        0x4 ../../../../../../prebuilts/lib/libtensorflow-microlite.a(npu_platform.o)
                0x0010e5f8                LoadFromExternal
 .text.IsExternalRegion
                0x0010e5fc       0x10 ../../../../../../prebuilts/lib/libtensorflow-microlite.a(npu_platform.o)
                0x0010e5fc                IsExternalRegion
 .text._ZN6tflite3ops5micro15fully_connected4InitEP13TfLiteContextPKcj
                0x0010e60c       0x18 ../../../../../../prebuilts/lib/libtensorflow-microlite.a(fully_connected.o)
                0x0010e60c                tflite::ops::micro::fully_connected::Init(TfLiteContext*, char const*, unsigned int)
 .text._ZN6tflite3ops5micro15fully_connected7PrepareEP13TfLiteContextP10TfLiteNode
                0x0010e624       0xa8 ../../../../../../prebuilts/lib/libtensorflow-microlite.a(fully_connected.o)
                0x0010e624                tflite::ops::micro::fully_connected::Prepare(TfLiteContext*, TfLiteNode*)
 .text._ZN6tflite3ops5micro15fully_connected13EvalQuantizedEP13TfLiteContextP10TfLiteNodeP26TfLiteFullyConnectedParamsPNS2_12_GLOBAL__N_16OpDataEPK12TfLiteTensorSE_SE_PSC_.isra.9
                0x0010e6cc      0x584 ../../../../../../prebuilts/lib/libtensorflow-microlite.a(fully_connected.o)
 .text._ZN6tflite3ops5micro15fully_connected4EvalEP13TfLiteContextP10TfLiteNode
                0x0010ec50      0x484 ../../../../../../prebuilts/lib/libtensorflow-microlite.a(fully_connected.o)
                0x0010ec50                tflite::ops::micro::fully_connected::Eval(TfLiteContext*, TfLiteNode*)
 .text._ZN6tflite3ops5micro24Register_FULLY_CONNECTEDEv
                0x0010f0d4        0x8 ../../../../../../prebuilts/lib/libtensorflow-microlite.a(fully_connected.o)
                0x0010f0d4                tflite::ops::micro::Register_FULLY_CONNECTED()
 .text._ZN6tflite3ops5micro7pooling4InitEP13TfLiteContextPKcj
                0x0010f0dc       0x18 ../../../../../../prebuilts/lib/libtensorflow-microlite.a(pooling.o)
                0x0010f0dc                tflite::ops::micro::pooling::Init(TfLiteContext*, char const*, unsigned int)
 .text._ZN6tflite3ops5micro7pooling12_GLOBAL__N_115CalculateOpDataEPK13TfLiteContextPK16TfLitePoolParamsPK12TfLiteTensorSC_PNS3_6OpDataE.isra.7
                0x0010f0f4       0x98 ../../../../../../prebuilts/lib/libtensorflow-microlite.a(pooling.o)
 .text._ZN6tflite3ops5micro7pooling7PrepareEP13TfLiteContextP10TfLiteNode
                0x0010f18c       0x8c ../../../../../../prebuilts/lib/libtensorflow-microlite.a(pooling.o)
                0x0010f18c                tflite::ops::micro::pooling::Prepare(TfLiteContext*, TfLiteNode*)
 .text._ZN6tflite3ops5micro7pooling7MaxEvalEP13TfLiteContextP10TfLiteNode
                0x0010f218      0x694 ../../../../../../prebuilts/lib/libtensorflow-microlite.a(pooling.o)
                0x0010f218                tflite::ops::micro::pooling::MaxEval(TfLiteContext*, TfLiteNode*)
 .text._ZN6tflite3ops5micro7pooling11AverageEvalEP13TfLiteContextP10TfLiteNode
                0x0010f8ac      0x654 ../../../../../../prebuilts/lib/libtensorflow-microlite.a(pooling.o)
                0x0010f8ac                tflite::ops::micro::pooling::AverageEval(TfLiteContext*, TfLiteNode*)
 .text._ZN6tflite3ops5micro24Register_AVERAGE_POOL_2DEv
                0x0010ff00        0x8 ../../../../../../prebuilts/lib/libtensorflow-microlite.a(pooling.o)
                0x0010ff00                tflite::ops::micro::Register_AVERAGE_POOL_2D()
 .text._ZN6tflite3ops5micro20Register_MAX_POOL_2DEv
                0x0010ff08        0x8 ../../../../../../prebuilts/lib/libtensorflow-microlite.a(pooling.o)
                0x0010ff08                tflite::ops::micro::Register_MAX_POOL_2D()
 .text._ZN6tflite3ops5micro7reshape4EvalEP13TfLiteContextP10TfLiteNode
                0x0010ff10       0x3c ../../../../../../prebuilts/lib/libtensorflow-microlite.a(reshape.o)
                0x0010ff10                tflite::ops::micro::reshape::Eval(TfLiteContext*, TfLiteNode*)
 .text._ZN6tflite3ops5micro7reshape13ReshapeOutputEP13TfLiteContextP10TfLiteNode
                0x0010ff4c      0x158 ../../../../../../prebuilts/lib/libtensorflow-microlite.a(reshape.o)
                0x0010ff4c                tflite::ops::micro::reshape::ReshapeOutput(TfLiteContext*, TfLiteNode*)
 .text._ZN6tflite3ops5micro7reshape7PrepareEP13TfLiteContextP10TfLiteNode
                0x001100a4       0x9c ../../../../../../prebuilts/lib/libtensorflow-microlite.a(reshape.o)
                0x001100a4                tflite::ops::micro::reshape::Prepare(TfLiteContext*, TfLiteNode*)
 .text._ZN6tflite3ops5micro16Register_RESHAPEEv
                0x00110140        0x8 ../../../../../../prebuilts/lib/libtensorflow-microlite.a(reshape.o)
                0x00110140                tflite::ops::micro::Register_RESHAPE()
 .text._ZN6tflite3ops5micro11activations14SoftmaxPrepareEP13TfLiteContextP10TfLiteNode
                0x00110148       0x94 ../../../../../../prebuilts/lib/libtensorflow-microlite.a(softmax.o)
                0x00110148                tflite::ops::micro::activations::SoftmaxPrepare(TfLiteContext*, TfLiteNode*)
 .text._ZN6tflite3ops5micro11activations12SoftmaxFloatEPK12TfLiteTensorPS3_RKNS_13SoftmaxParamsE
                0x001101dc      0x19c ../../../../../../prebuilts/lib/libtensorflow-microlite.a(softmax.o)
                0x001101dc                tflite::ops::micro::activations::SoftmaxFloat(TfLiteTensor const*, TfLiteTensor*, tflite::SoftmaxParams const&)
 .text._ZN6tflite3ops5micro16Register_SOFTMAXEv
                0x00110378        0x8 ../../../../../../prebuilts/lib/libtensorflow-microlite.a(softmax.o)
                0x00110378                tflite::ops::micro::Register_SOFTMAX()
 .text._ZN8gemmlowp32one_over_one_plus_x_for_x_in_0_1IlEENS_10FixedPointIT_Li0EEES3_
                0x00110380      0x3b4 ../../../../../../prebuilts/lib/libtensorflow-microlite.a(softmax.o)
                0x00110380                gemmlowp::FixedPoint<long, 0> gemmlowp::one_over_one_plus_x_for_x_in_0_1<long>(gemmlowp::FixedPoint<long, 0>)
 .text._ZN8gemmlowp55exp_on_interval_between_negative_one_quarter_and_0_exclIlEENS_10FixedPointIT_Li0EEES3_
                0x00110734      0x184 ../../../../../../prebuilts/lib/libtensorflow-microlite.a(softmax.o)
                0x00110734                gemmlowp::FixedPoint<long, 0> gemmlowp::exp_on_interval_between_negative_one_quarter_and_0_excl<long>(gemmlowp::FixedPoint<long, 0>)
 .text._ZN8gemmlowp22exp_on_negative_valuesIlLi5EEENS_10FixedPointIT_Li0EEENS1_IS2_XT0_EEE
                0x001108b8      0x270 ../../../../../../prebuilts/lib/libtensorflow-microlite.a(softmax.o)
                0x001108b8                gemmlowp::FixedPoint<long, 0> gemmlowp::exp_on_negative_values<long, 5>(gemmlowp::FixedPoint<long, 5>)
 .text._ZN6tflite3ops5micro11activations16SoftmaxQuantizedEPK12TfLiteTensorPS3_RKNS_13SoftmaxParamsE
                0x00110b28      0x3d8 ../../../../../../prebuilts/lib/libtensorflow-microlite.a(softmax.o)
                0x00110b28                tflite::ops::micro::activations::SoftmaxQuantized(TfLiteTensor const*, TfLiteTensor*, tflite::SoftmaxParams const&)
 .text._ZN6tflite3ops5micro11activations11SoftmaxEvalEP13TfLiteContextP10TfLiteNode
                0x00110f00      0x23c ../../../../../../prebuilts/lib/libtensorflow-microlite.a(softmax.o)
                0x00110f00                tflite::ops::micro::activations::SoftmaxEval(TfLiteContext*, TfLiteNode*)
 .text._ZN6tflite18QuantizeMultiplierEdPlPi
                0x0011113c       0x94 ../../../../../../prebuilts/lib/libtensorflow-microlite.a(quantization_util.o)
                0x0011113c                tflite::QuantizeMultiplier(double, long*, int*)
 .text._ZN6tflite24PreprocessSoftmaxScalingEddiPlPi
                0x001111d0       0xf0 ../../../../../../prebuilts/lib/libtensorflow-microlite.a(quantization_util.o)
                0x001111d0                tflite::PreprocessSoftmaxScaling(double, double, int, long*, int*)
 .text._ZN6tflite20CalculateInputRadiusEiii
                0x001112c0       0x88 ../../../../../../prebuilts/lib/libtensorflow-microlite.a(quantization_util.o)
                0x001112c0                tflite::CalculateInputRadius(int, int, int)
 .text._ZN6tflite32GetQuantizedConvolutionMultiplerEP13TfLiteContextPK12TfLiteTensorS4_S4_PS2_Pd
                0x00111348      0x108 ../../../../../../prebuilts/lib/libtensorflow-microlite.a(kernel_util.o)
                0x00111348                tflite::GetQuantizedConvolutionMultipler(TfLiteContext*, TfLiteTensor const*, TfLiteTensor const*, TfLiteTensor const*, TfLiteTensor*, double*)
 .text._ZN6tflite33CalculateActivationRangeQuantizedEP13TfLiteContext21TfLiteFusedActivationP12TfLiteTensorPlS5_
                0x00111450      0x174 ../../../../../../prebuilts/lib/libtensorflow-microlite.a(kernel_util.o)
                0x00111450                tflite::CalculateActivationRangeQuantized(TfLiteContext*, TfLiteFusedActivation, TfLiteTensor*, long*, long*)
 *fill*         0x001115c4        0x4 
 .text._ZN6tflite37PopulateConvolutionQuantizationParamsEP13TfLiteContextPK12TfLiteTensorS4_S4_PS2_RK21TfLiteFusedActivationPlPiS9_S9_S9_SA_i
                0x001115c8      0x390 ../../../../../../prebuilts/lib/libtensorflow-microlite.a(kernel_util.o)
                0x001115c8                tflite::PopulateConvolutionQuantizationParams(TfLiteContext*, TfLiteTensor const*, TfLiteTensor const*, TfLiteTensor const*, TfLiteTensor*, TfLiteFusedActivation const&, long*, int*, long*, long*, long*, int*, int)
 .text._ZN6tflite3ops5micro4conv4InitEP13TfLiteContextPKcj
                0x00111958       0x18 ../../../../../../prebuilts/lib/libtensorflow-microlite.a(conv.o)
                0x00111958                tflite::ops::micro::conv::Init(TfLiteContext*, char const*, unsigned int)
 .text._ZN6tflite3ops5micro4conv7PrepareEP13TfLiteContextP10TfLiteNode
                0x00111970      0x410 ../../../../../../prebuilts/lib/libtensorflow-microlite.a(conv.o)
                0x00111970                tflite::ops::micro::conv::Prepare(TfLiteContext*, TfLiteNode*)
 .text._ZN6tflite3ops5micro4conv13EvalQuantizedEP13TfLiteContextP10TfLiteNodeP16TfLiteConvParamsPNS2_6OpDataEPK12TfLiteTensorSD_SD_PSB_SE_SE_
                0x00111d80      0xce0 ../../../../../../prebuilts/lib/libtensorflow-microlite.a(conv.o)
                0x00111d80                tflite::ops::micro::conv::EvalQuantized(TfLiteContext*, TfLiteNode*, TfLiteConvParams*, tflite::ops::micro::conv::OpData*, TfLiteTensor const*, TfLiteTensor const*, TfLiteTensor const*, TfLiteTensor*, TfLiteTensor*, TfLiteTensor*)
 .text._ZN6tflite3ops5micro4conv23EvalQuantizedPerChannelEP13TfLiteContextP10TfLiteNodeP16TfLiteConvParamsPNS2_6OpDataEPK12TfLiteTensorSD_SD_PSB_SE_
                0x00112a60      0x1a4 ../../../../../../prebuilts/lib/libtensorflow-microlite.a(conv.o)
                0x00112a60                tflite::ops::micro::conv::EvalQuantizedPerChannel(TfLiteContext*, TfLiteNode*, TfLiteConvParams*, tflite::ops::micro::conv::OpData*, TfLiteTensor const*, TfLiteTensor const*, TfLiteTensor const*, TfLiteTensor*, TfLiteTensor*)
 .text._ZN6tflite3ops5micro4conv9EvalFloatEP13TfLiteContextP10TfLiteNodeP16TfLiteConvParamsPNS2_6OpDataEPK12TfLiteTensorSD_SD_PSB_SE_SE_
                0x00112c04      0xde8 ../../../../../../prebuilts/lib/libtensorflow-microlite.a(conv.o)
                0x00112c04                tflite::ops::micro::conv::EvalFloat(TfLiteContext*, TfLiteNode*, TfLiteConvParams*, tflite::ops::micro::conv::OpData*, TfLiteTensor const*, TfLiteTensor const*, TfLiteTensor const*, TfLiteTensor*, TfLiteTensor*, TfLiteTensor*)
 .text._ZN6tflite3ops5micro4conv4EvalEP13TfLiteContextP10TfLiteNode
                0x001139ec      0x3d0 ../../../../../../prebuilts/lib/libtensorflow-microlite.a(conv.o)
                0x001139ec                tflite::ops::micro::conv::Eval(TfLiteContext*, TfLiteNode*)
 .text._ZN6tflite3ops5micro16Register_CONV_2DEv
                0x00113dbc        0x8 ../../../../../../prebuilts/lib/libtensorflow-microlite.a(conv.o)
                0x00113dbc                tflite::ops::micro::Register_CONV_2D()
 .text._ZN6tflite3ops5micro14depthwise_conv4InitEP13TfLiteContextPKcj
                0x00113dc4       0x18 ../../../../../../prebuilts/lib/libtensorflow-microlite.a(depthwise_conv.o)
                0x00113dc4                tflite::ops::micro::depthwise_conv::Init(TfLiteContext*, char const*, unsigned int)
 .text._ZN6tflite3ops5micro14depthwise_conv7PrepareEP13TfLiteContextP10TfLiteNode
                0x00113ddc       0x80 ../../../../../../prebuilts/lib/libtensorflow-microlite.a(depthwise_conv.o)
                0x00113ddc                tflite::ops::micro::depthwise_conv::Prepare(TfLiteContext*, TfLiteNode*)
 .text._ZN6tflite3ops5micro14depthwise_conv4EvalEP13TfLiteContextP10TfLiteNode
                0x00113e5c     0x1028 ../../../../../../prebuilts/lib/libtensorflow-microlite.a(depthwise_conv.o)
                0x00113e5c                tflite::ops::micro::depthwise_conv::Eval(TfLiteContext*, TfLiteNode*)
 .text._ZN6tflite3ops5micro26Register_DEPTHWISE_CONV_2DEv
                0x00114e84        0x8 ../../../../../../prebuilts/lib/libtensorflow-microlite.a(depthwise_conv.o)
                0x00114e84                tflite::ops::micro::Register_DEPTHWISE_CONV_2D()
 .text.DebugLog
                0x00114e8c       0x64 ../../../../../../prebuilts/lib/libtensorflow-microlite.a(debug_log.o)
                0x00114e8c                DebugLog
 .text._ZN6tflite14AlignPointerUpEPhj
                0x00114ef0        0xc ../../../../../../prebuilts/lib/libtensorflow-microlite.a(memory_helpers.o)
                0x00114ef0                tflite::AlignPointerUp(unsigned char*, unsigned int)
 .text._ZN6tflite16AlignPointerDownEPhj
                0x00114efc        0x8 ../../../../../../prebuilts/lib/libtensorflow-microlite.a(memory_helpers.o)
                0x00114efc                tflite::AlignPointerDown(unsigned char*, unsigned int)
 .text._ZN6tflite11AlignSizeUpEjj
                0x00114f04        0xc ../../../../../../prebuilts/lib/libtensorflow-microlite.a(memory_helpers.o)
                0x00114f04                tflite::AlignSizeUp(unsigned int, unsigned int)
 .text._ZN6tflite16TfLiteTypeSizeOfE10TfLiteTypePjPNS_13ErrorReporterE
                0x00114f10       0x48 ../../../../../../prebuilts/lib/libtensorflow-microlite.a(memory_helpers.o)
                0x00114f10                tflite::TfLiteTypeSizeOf(TfLiteType, unsigned int*, tflite::ErrorReporter*)
 .text._ZN6tflite22BytesRequiredForTensorERKNS_6TensorEPjS3_PNS_13ErrorReporterE
                0x00114f58       0x7a ../../../../../../prebuilts/lib/libtensorflow-microlite.a(memory_helpers.o)
                0x00114f58                tflite::BytesRequiredForTensor(tflite::Tensor const&, unsigned int*, unsigned int*, tflite::ErrorReporter*)
 *fill*         0x00114fd2        0x2 
 .text._ZN6tflite20BuiltinDataAllocatorD2Ev
                0x00114fd4        0xc ../../../../../../prebuilts/lib/libtensorflow-microlite.a(micro_allocator.o)
                0x00114fd4                tflite::BuiltinDataAllocator::~BuiltinDataAllocator()
                0x00114fd4                tflite::BuiltinDataAllocator::~BuiltinDataAllocator()
 .text._ZN6tflite12_GLOBAL__N_125MicroBuiltinDataAllocator8AllocateEjj
                0x00114fe0        0xc ../../../../../../prebuilts/lib/libtensorflow-microlite.a(micro_allocator.o)
 .text._ZN6tflite12_GLOBAL__N_125MicroBuiltinDataAllocator10DeallocateEPv
                0x00114fec        0x2 ../../../../../../prebuilts/lib/libtensorflow-microlite.a(micro_allocator.o)
 *fill*         0x00114fee        0x2 
 .text._ZN6tflite14MicroAllocatorD2Ev
                0x00114ff0        0xc ../../../../../../prebuilts/lib/libtensorflow-microlite.a(micro_allocator.o)
                0x00114ff0                tflite::MicroAllocator::~MicroAllocator()
                0x00114ff0                tflite::MicroAllocator::~MicroAllocator()
 .text._ZN6tflite14MicroAllocatorD0Ev
                0x00114ffc        0xc ../../../../../../prebuilts/lib/libtensorflow-microlite.a(micro_allocator.o)
                0x00114ffc                tflite::MicroAllocator::~MicroAllocator()
 .text._ZN6tflite12_GLOBAL__N_125MicroBuiltinDataAllocatorD2Ev
                0x00115008        0xc ../../../../../../prebuilts/lib/libtensorflow-microlite.a(micro_allocator.o)
 .text._ZN6tflite12_GLOBAL__N_125MicroBuiltinDataAllocatorD0Ev
                0x00115014        0xc ../../../../../../prebuilts/lib/libtensorflow-microlite.a(micro_allocator.o)
 .text._ZN6tflite20BuiltinDataAllocatorD0Ev
                0x00115020       0x14 ../../../../../../prebuilts/lib/libtensorflow-microlite.a(micro_allocator.o)
                0x00115020                tflite::BuiltinDataAllocator::~BuiltinDataAllocator()
 .text._ZN6tflite14MicroAllocator25AllocateTfLiteTensorArrayEP13TfLiteContextPKNS_8SubGraphE
                0x00115034       0x48 ../../../../../../prebuilts/lib/libtensorflow-microlite.a(micro_allocator.o)
                0x00115034                tflite::MicroAllocator::AllocateTfLiteTensorArray(TfLiteContext*, tflite::SubGraph const*)
 .text._ZN6tflite23EnumNameBuiltinOperatorENS_15BuiltinOperatorE
                0x0011507c       0x18 ../../../../../../prebuilts/lib/libtensorflow-microlite.a(micro_allocator.o)
                0x0011507c                tflite::EnumNameBuiltinOperator(tflite::BuiltinOperator)
 .text._ZNK6tflite6Tensor11is_variableEv
                0x00115094       0x16 ../../../../../../prebuilts/lib/libtensorflow-microlite.a(micro_allocator.o)
                0x00115094                tflite::Tensor::is_variable() const
 *fill*         0x001150aa        0x2 
 .text._ZN6tflite14MicroAllocator17AllocateVariablesEP13TfLiteContextPKNS_8SubGraphE
                0x001150ac       0x84 ../../../../../../prebuilts/lib/libtensorflow-microlite.a(micro_allocator.o)
                0x001150ac                tflite::MicroAllocator::AllocateVariables(TfLiteContext*, tflite::SubGraph const*)
 .text._ZN6tflite14MicroAllocator6CreateEPNS_21SimpleMemoryAllocatorEPNS_13ErrorReporterE
                0x00115130       0x28 ../../../../../../prebuilts/lib/libtensorflow-microlite.a(micro_allocator.o)
                0x00115130                tflite::MicroAllocator::Create(tflite::SimpleMemoryAllocator*, tflite::ErrorReporter*)
 .text._ZN6tflite14MicroAllocator6CreateEPhjPNS_13ErrorReporterE
                0x00115158       0x38 ../../../../../../prebuilts/lib/libtensorflow-microlite.a(micro_allocator.o)
                0x00115158                tflite::MicroAllocator::Create(unsigned char*, unsigned int, tflite::ErrorReporter*)
 .text._ZN6tflite14MicroAllocator24AllocatePersistentBufferEjPPv
                0x00115190       0x2c ../../../../../../prebuilts/lib/libtensorflow-microlite.a(micro_allocator.o)
                0x00115190                tflite::MicroAllocator::AllocatePersistentBuffer(unsigned int, void**)
 .text._ZN6tflite14MicroAllocator27RequestScratchBufferInArenaEijPi
                0x001151bc       0x6c ../../../../../../prebuilts/lib/libtensorflow-microlite.a(micro_allocator.o)
                0x001151bc                tflite::MicroAllocator::RequestScratchBufferInArena(int, unsigned int, int*)
 .text._ZNK6tflite14MicroAllocator16GetScratchBufferEi
                0x00115228       0x2c ../../../../../../prebuilts/lib/libtensorflow-microlite.a(micro_allocator.o)
                0x00115228                tflite::MicroAllocator::GetScratchBuffer(int) const
 .text._ZN6tflite14MicroAllocator29InitGraphAndContextTensorDataEPKNS_5ModelEP13TfLiteContextPKNS_8SubGraphE
                0x00115254       0x2a ../../../../../../prebuilts/lib/libtensorflow-microlite.a(micro_allocator.o)
                0x00115254                tflite::MicroAllocator::InitGraphAndContextTensorData(tflite::Model const*, TfLiteContext*, tflite::SubGraph const*)
 *fill*         0x0011527e        0x2 
 .text._ZN6tflite14MicroAllocator20GetSubGraphFromModelEPKNS_5ModelE
                0x00115280       0x38 ../../../../../../prebuilts/lib/libtensorflow-microlite.a(micro_allocator.o)
                0x00115280                tflite::MicroAllocator::GetSubGraphFromModel(tflite::Model const*)
 .text._ZN6tflite14MicroAllocator20StartModelAllocationEPKNS_5ModelEP13TfLiteContextRKNS_15MicroOpResolverEPPNS_19NodeAndRegistrationE
                0x001152b8       0x64 ../../../../../../prebuilts/lib/libtensorflow-microlite.a(micro_allocator.o)
                0x001152b8                tflite::MicroAllocator::StartModelAllocation(tflite::Model const*, TfLiteContext*, tflite::MicroOpResolver const&, tflite::NodeAndRegistration**)
 .text._ZN6tflite14MicroAllocator21FinishModelAllocationEPKNS_5ModelEP13TfLiteContext
                0x0011531c       0x40 ../../../../../../prebuilts/lib/libtensorflow-microlite.a(micro_allocator.o)
                0x0011531c                tflite::MicroAllocator::FinishModelAllocation(tflite::Model const*, TfLiteContext*)
 .text._ZN11flatbuffers5Table10GetPointerIPKNS_6VectorIhEEEET_t
                0x0011535c       0x12 ../../../../../../prebuilts/lib/libtensorflow-microlite.a(micro_allocator.o)
                0x0011535c                flatbuffers::Vector<unsigned char> const* flatbuffers::Table::GetPointer<flatbuffers::Vector<unsigned char> const*>(unsigned short)
 .text._ZN11flatbuffers5Table10GetPointerIPKNS_6VectorIfEEEET_t
                0x0011536e       0x12 ../../../../../../prebuilts/lib/libtensorflow-microlite.a(micro_allocator.o)
                0x0011536e                flatbuffers::Vector<float> const* flatbuffers::Table::GetPointer<flatbuffers::Vector<float> const*>(unsigned short)
 .text._ZN11flatbuffers5Table10GetPointerIPKNS_6VectorIxEEEET_t
                0x00115380       0x12 ../../../../../../prebuilts/lib/libtensorflow-microlite.a(micro_allocator.o)
                0x00115380                flatbuffers::Vector<long long> const* flatbuffers::Table::GetPointer<flatbuffers::Vector<long long> const*>(unsigned short)
 *fill*         0x00115392        0x2 
 .text._ZN6tflite8internal36InitializeTfLiteTensorFromFlatbufferEPNS_21SimpleMemoryAllocatorERKNS_6TensorEPKN11flatbuffers6VectorINS6_6OffsetINS_6BufferEEEEEPNS_13ErrorReporterEP12TfLiteTensor
                0x00115394      0x1b4 ../../../../../../prebuilts/lib/libtensorflow-microlite.a(micro_allocator.o)
                0x00115394                tflite::internal::InitializeTfLiteTensorFromFlatbuffer(tflite::SimpleMemoryAllocator*, tflite::Tensor const&, flatbuffers::Vector<flatbuffers::Offset<tflite::Buffer> > const*, tflite::ErrorReporter*, TfLiteTensor*)
 .text._ZN6tflite14MicroAllocator39PopulateTfLiteTensorArrayFromFlatbufferEPKNS_5ModelEP13TfLiteContextPKNS_8SubGraphE
                0x00115548       0x84 ../../../../../../prebuilts/lib/libtensorflow-microlite.a(micro_allocator.o)
                0x00115548                tflite::MicroAllocator::PopulateTfLiteTensorArrayFromFlatbuffer(tflite::Model const*, TfLiteContext*, tflite::SubGraph const*)
 .text._ZN11flatbuffers5Table10GetPointerIPKNS_6VectorINS_6OffsetIN6tflite8OperatorEEEEEEET_t
                0x001155cc       0x12 ../../../../../../prebuilts/lib/libtensorflow-microlite.a(micro_allocator.o)
                0x001155cc                flatbuffers::Vector<flatbuffers::Offset<tflite::Operator> > const* flatbuffers::Table::GetPointer<flatbuffers::Vector<flatbuffers::Offset<tflite::Operator> > const*>(unsigned short)
 *fill*         0x001155de        0x2 
 .text._ZN6tflite14MicroAllocator28AllocateNodeAndRegistrationsEPKNS_8SubGraphEPPNS_19NodeAndRegistrationE
                0x001155e0       0x38 ../../../../../../prebuilts/lib/libtensorflow-microlite.a(micro_allocator.o)
                0x001155e0                tflite::MicroAllocator::AllocateNodeAndRegistrations(tflite::SubGraph const*, tflite::NodeAndRegistration**)
 .text._ZN6tflite14MicroAllocator44PrepareNodeAndRegistrationDataFromFlatbufferEPKNS_5ModelEPKNS_8SubGraphERKNS_15MicroOpResolverEPNS_19NodeAndRegistrationE
                0x00115618      0x1a0 ../../../../../../prebuilts/lib/libtensorflow-microlite.a(micro_allocator.o)
                0x00115618                tflite::MicroAllocator::PrepareNodeAndRegistrationDataFromFlatbuffer(tflite::Model const*, tflite::SubGraph const*, tflite::MicroOpResolver const&, tflite::NodeAndRegistration*)
 .text._ZN6tflite14MicroAllocator22CommitStaticMemoryPlanEP13TfLiteContextPKNS_8SubGraphE
                0x001157b8      0x39c ../../../../../../prebuilts/lib/libtensorflow-microlite.a(micro_allocator.o)
                0x001157b8                tflite::MicroAllocator::CommitStaticMemoryPlan(TfLiteContext*, tflite::SubGraph const*)
 .text._ZN6tflite13MemoryPlannerD2Ev
                0x00115b54        0xc ../../../../../../prebuilts/lib/libtensorflow-microlite.a(greedy_memory_planner.o)
                0x00115b54                tflite::MemoryPlanner::~MemoryPlanner()
                0x00115b54                tflite::MemoryPlanner::~MemoryPlanner()
 .text._ZN6tflite19GreedyMemoryPlannerD2Ev
                0x00115b60        0xc ../../../../../../prebuilts/lib/libtensorflow-microlite.a(greedy_memory_planner.o)
                0x00115b60                tflite::GreedyMemoryPlanner::~GreedyMemoryPlanner()
                0x00115b60                tflite::GreedyMemoryPlanner::~GreedyMemoryPlanner()
 .text._ZN6tflite19GreedyMemoryPlannerD0Ev
                0x00115b6c        0xc ../../../../../../prebuilts/lib/libtensorflow-microlite.a(greedy_memory_planner.o)
                0x00115b6c                tflite::GreedyMemoryPlanner::~GreedyMemoryPlanner()
 .text._ZN6tflite19GreedyMemoryPlanner14GetBufferCountEv
                0x00115b78        0x4 ../../../../../../prebuilts/lib/libtensorflow-microlite.a(greedy_memory_planner.o)
                0x00115b78                tflite::GreedyMemoryPlanner::GetBufferCount()
 .text._ZN6tflite13MemoryPlannerD0Ev
                0x00115b7c       0x14 ../../../../../../prebuilts/lib/libtensorflow-microlite.a(greedy_memory_planner.o)
                0x00115b7c                tflite::MemoryPlanner::~MemoryPlanner()
 .text._ZN6tflite19GreedyMemoryPlanner9AddBufferEPNS_13ErrorReporterEiii
                0x00115b90       0x3c ../../../../../../prebuilts/lib/libtensorflow-microlite.a(greedy_memory_planner.o)
                0x00115b90                tflite::GreedyMemoryPlanner::AddBuffer(tflite::ErrorReporter*, int, int, int)
 .text._ZN6tflite18ReverseSortInPlaceEPiS0_i
                0x00115bcc       0x3e ../../../../../../prebuilts/lib/libtensorflow-microlite.a(greedy_memory_planner.o)
                0x00115bcc                tflite::ReverseSortInPlace(int*, int*, int)
 *fill*         0x00115c0a        0x2 
 .text._ZN6tflite19GreedyMemoryPlannerC2EPhi
                0x00115c0c       0x38 ../../../../../../prebuilts/lib/libtensorflow-microlite.a(greedy_memory_planner.o)
                0x00115c0c                tflite::GreedyMemoryPlanner::GreedyMemoryPlanner(unsigned char*, int)
                0x00115c0c                tflite::GreedyMemoryPlanner::GreedyMemoryPlanner(unsigned char*, int)
 .text._ZNK6tflite19GreedyMemoryPlanner22DoesEntryOverlapInTimeEPKNS0_9ListEntryEii
                0x00115c44       0x22 ../../../../../../prebuilts/lib/libtensorflow-microlite.a(greedy_memory_planner.o)
                0x00115c44                tflite::GreedyMemoryPlanner::DoesEntryOverlapInTime(tflite::GreedyMemoryPlanner::ListEntry const*, int, int) const
 .text._ZN6tflite19GreedyMemoryPlanner30NextSimultaneouslyActiveBufferEPKNS0_9ListEntryEii
                0x00115c66       0x42 ../../../../../../prebuilts/lib/libtensorflow-microlite.a(greedy_memory_planner.o)
                0x00115c66                tflite::GreedyMemoryPlanner::NextSimultaneouslyActiveBuffer(tflite::GreedyMemoryPlanner::ListEntry const*, int, int)
 .text._ZN6tflite19GreedyMemoryPlanner24CalculateOffsetsIfNeededEv
                0x00115ca8      0x12c ../../../../../../prebuilts/lib/libtensorflow-microlite.a(greedy_memory_planner.o)
                0x00115ca8                tflite::GreedyMemoryPlanner::CalculateOffsetsIfNeeded()
 .text._ZN6tflite19GreedyMemoryPlanner20GetMaximumMemorySizeEv
                0x00115dd4       0x38 ../../../../../../prebuilts/lib/libtensorflow-microlite.a(greedy_memory_planner.o)
                0x00115dd4                tflite::GreedyMemoryPlanner::GetMaximumMemorySize()
 .text._ZN6tflite19GreedyMemoryPlanner18GetOffsetForBufferEPNS_13ErrorReporterEiPi
                0x00115e0c       0x38 ../../../../../../prebuilts/lib/libtensorflow-microlite.a(greedy_memory_planner.o)
                0x00115e0c                tflite::GreedyMemoryPlanner::GetOffsetForBuffer(tflite::ErrorReporter*, int, int*)
 .text.TfLiteIntArrayGetSizeInBytes
                0x00115e44        0x6 ../../../../../../prebuilts/lib/libtensorflow-microlite.a(common.o)
                0x00115e44                TfLiteIntArrayGetSizeInBytes
 .text.TfLiteFloatArrayGetSizeInBytes
                0x00115e4a        0x6 ../../../../../../prebuilts/lib/libtensorflow-microlite.a(common.o)
                0x00115e4a                TfLiteFloatArrayGetSizeInBytes
 .text.TfLiteTypeGetName
                0x00115e50       0x18 ../../../../../../prebuilts/lib/libtensorflow-microlite.a(common.o)
                0x00115e50                TfLiteTypeGetName
 .text._ZN6tflite25GetRegistrationFromOpCodeEPKNS_12OperatorCodeERKNS_10OpResolverEPNS_13ErrorReporterEPPK18TfLiteRegistration
                0x00115e68       0xb8 ../../../../../../prebuilts/lib/libtensorflow-microlite.a(op_resolver.o)
                0x00115e68                tflite::GetRegistrationFromOpCode(tflite::OperatorCode const*, tflite::OpResolver const&, tflite::ErrorReporter*, TfLiteRegistration const**)
 .text.arm_convolve_wrapper_s8
                0x00115f20       0xbc ../../../../../../prebuilts/lib/libcmsis.a(arm_convolve_wrapper_s8.o)
                0x00115f20                arm_convolve_wrapper_s8
 .text.arm_convolve_wrapper_s8_get_buffer_size
                0x00115fdc       0x68 ../../../../../../prebuilts/lib/libcmsis.a(arm_convolve_wrapper_s8.o)
                0x00115fdc                arm_convolve_wrapper_s8_get_buffer_size
 .text.arm_depthwise_conv_s8
                0x00116044      0x768 ../../../../../../prebuilts/lib/libcmsis.a(arm_depthwise_conv_s8.o)
                0x00116044                arm_depthwise_conv_s8
 .text.arm_depthwise_conv_s8_opt
                0x001167ac      0x778 ../../../../../../prebuilts/lib/libcmsis.a(arm_depthwise_conv_s8_opt.o)
                0x001167ac                arm_depthwise_conv_s8_opt
 .text.arm_depthwise_conv_s8_opt_get_buffer_size
                0x00116f24        0xc ../../../../../../prebuilts/lib/libcmsis.a(arm_depthwise_conv_s8_opt.o)
                0x00116f24                arm_depthwise_conv_s8_opt_get_buffer_size
 .text.arm_depthwise_conv_u8_basic_ver1
                0x00116f30      0x754 ../../../../../../prebuilts/lib/libcmsis.a(arm_depthwise_conv_u8_basic_ver1.o)
                0x00116f30                arm_depthwise_conv_u8_basic_ver1
 .text.arm_fully_connected_s8
                0x00117684       0x54 ../../../../../../prebuilts/lib/libcmsis.a(arm_fully_connected_s8.o)
                0x00117684                arm_fully_connected_s8
 .text.arm_fully_connected_s8_get_buffer_size
                0x001176d8        0x4 ../../../../../../prebuilts/lib/libcmsis.a(arm_fully_connected_s8.o)
                0x001176d8                arm_fully_connected_s8_get_buffer_size
 .text.arm_nn_vec_mat_mult_t_s8
                0x001176dc      0x908 ../../../../../../prebuilts/lib/libcmsis.a(arm_nn_vec_mat_mult_t_s8.o)
                0x001176dc                arm_nn_vec_mat_mult_t_s8
 .text.arm_q7_to_q15_with_offset
                0x00117fe4       0x80 ../../../../../../prebuilts/lib/libcmsis.a(arm_q7_to_q15_with_offset.o)
                0x00117fe4                arm_q7_to_q15_with_offset
 .text.arm_avgpool_s8
                0x00118064      0x1d8 ../../../../../../prebuilts/lib/libcmsis.a(arm_avgpool_s8.o)
                0x00118064                arm_avgpool_s8
 .text.arm_avgpool_s8_get_buffer_size
                0x0011823c        0x4 ../../../../../../prebuilts/lib/libcmsis.a(arm_avgpool_s8.o)
                0x0011823c                arm_avgpool_s8_get_buffer_size
 .text.arm_max_pool_s8_opt
                0x00118240      0x470 ../../../../../../prebuilts/lib/libcmsis.a(arm_max_pool_s8_opt.o)
                0x00118240                arm_max_pool_s8_opt
 .text.arm_softmax_s8
                0x001186b0      0xe08 ../../../../../../prebuilts/lib/libcmsis.a(arm_softmax_s8.o)
                0x001186b0                arm_softmax_s8
 .text.arm_convolve_1x1_s8_fast
                0x001194b8       0x68 ../../../../../../prebuilts/lib/libcmsis.a(arm_convolve_1x1_s8_fast.o)
                0x001194b8                arm_convolve_1x1_s8_fast
 .text.arm_convolve_1x1_s8_fast_get_buffer_size
                0x00119520        0x4 ../../../../../../prebuilts/lib/libcmsis.a(arm_convolve_1x1_s8_fast.o)
                0x00119520                arm_convolve_1x1_s8_fast_get_buffer_size
 .text.arm_convolve_1_x_n_s8
                0x00119524       0x1c ../../../../../../prebuilts/lib/libcmsis.a(arm_convolve_1_x_n_s8.o)
                0x00119524                arm_convolve_1_x_n_s8
 .text.arm_convolve_1_x_n_s8_get_buffer_size
                0x00119540       0x14 ../../../../../../prebuilts/lib/libcmsis.a(arm_convolve_1_x_n_s8.o)
                0x00119540                arm_convolve_1_x_n_s8_get_buffer_size
 .text.arm_convolve_s8
                0x00119554      0x3f0 ../../../../../../prebuilts/lib/libcmsis.a(arm_convolve_s8.o)
                0x00119554                arm_convolve_s8
 .text.arm_convolve_s8_get_buffer_size
                0x00119944       0x14 ../../../../../../prebuilts/lib/libcmsis.a(arm_convolve_s8.o)
                0x00119944                arm_convolve_s8_get_buffer_size
 .text.arm_nn_mat_mult_kernel_s8_s16
                0x00119958      0x6c8 ../../../../../../prebuilts/lib/libcmsis.a(arm_nn_mat_mult_kernel_s8_s16.o)
                0x00119958                arm_nn_mat_mult_kernel_s8_s16
 .text.arm_nn_accumulate_q7_to_q15
                0x0011a020       0x88 ../../../../../../prebuilts/lib/libcmsis.a(arm_nn_accumulate_q7_to_q15.o)
                0x0011a020                arm_nn_accumulate_q7_to_q15
 .text.arm_nn_mat_mult_nt_t_s8
                0x0011a0a8      0xb40 ../../../../../../prebuilts/lib/libcmsis.a(arm_nn_mat_mult_nt_t_s8.o)
                0x0011a0a8                arm_nn_mat_mult_nt_t_s8
 .text.arm_q7_to_q15_no_shift
                0x0011abe8       0x70 ../../../../../../prebuilts/lib/libcmsis.a(arm_q7_to_q15_no_shift.o)
                0x0011abe8                arm_q7_to_q15_no_shift
 .text.__cxa_guard_acquire
                0x0011ac58       0x18 c:/progra~2/microsoft visual studio/2019/community/linux/gcc_arm/bin/../lib/gcc/arm-none-eabi/8.2.1/../../../../arm-none-eabi/lib/thumb/v7e-m+fp/hard\libstdc++_nano.a(guard.o)
                0x0011ac58                __cxa_guard_acquire
 .text.__cxa_guard_release
                0x0011ac70        0x6 c:/progra~2/microsoft visual studio/2019/community/linux/gcc_arm/bin/../lib/gcc/arm-none-eabi/8.2.1/../../../../arm-none-eabi/lib/thumb/v7e-m+fp/hard\libstdc++_nano.a(guard.o)
                0x0011ac70                __cxa_guard_release
 .text._ZdlPv   0x0011ac76        0x4 c:/progra~2/microsoft visual studio/2019/community/linux/gcc_arm/bin/../lib/gcc/arm-none-eabi/8.2.1/../../../../arm-none-eabi/lib/thumb/v7e-m+fp/hard\libstdc++_nano.a(del_op.o)
                0x0011ac76                operator delete(void*)
 .text.__cxa_pure_virtual
                0x0011ac7a        0x6 c:/progra~2/microsoft visual studio/2019/community/linux/gcc_arm/bin/../lib/gcc/arm-none-eabi/8.2.1/../../../../arm-none-eabi/lib/thumb/v7e-m+fp/hard\libstdc++_nano.a(pure.o)
                0x0011ac7a                __cxa_pure_virtual
 .text._ZN10__cxxabiv111__terminateEPFvvE
                0x0011ac80        0x8 c:/progra~2/microsoft visual studio/2019/community/linux/gcc_arm/bin/../lib/gcc/arm-none-eabi/8.2.1/../../../../arm-none-eabi/lib/thumb/v7e-m+fp/hard\libstdc++_nano.a(eh_terminate.o)
                0x0011ac80                __cxxabiv1::__terminate(void (*)())
 .text._ZSt13get_terminatev
                0x0011ac88       0x10 c:/progra~2/microsoft visual studio/2019/community/linux/gcc_arm/bin/../lib/gcc/arm-none-eabi/8.2.1/../../../../arm-none-eabi/lib/thumb/v7e-m+fp/hard\libstdc++_nano.a(eh_terminate.o)
                0x0011ac88                std::get_terminate()
 .text._ZSt9terminatev
                0x0011ac98        0xa c:/progra~2/microsoft visual studio/2019/community/linux/gcc_arm/bin/../lib/gcc/arm-none-eabi/8.2.1/../../../../arm-none-eabi/lib/thumb/v7e-m+fp/hard\libstdc++_nano.a(eh_terminate.o)
                0x0011ac98                std::terminate()
 .text.__aeabi_atexit
                0x0011aca2        0xa c:/progra~2/microsoft visual studio/2019/community/linux/gcc_arm/bin/../lib/gcc/arm-none-eabi/8.2.1/../../../../arm-none-eabi/lib/thumb/v7e-m+fp/hard\libstdc++_nano.a(atexit_arm.o)
                0x0011aca2                __aeabi_atexit
 *fill*         0x0011acac        0x4 
 .text.floor    0x0011acb0      0x108 c:/progra~2/microsoft visual studio/2019/community/linux/gcc_arm/bin/../lib/gcc/arm-none-eabi/8.2.1/../../../../arm-none-eabi/lib/thumb/v7e-m+fp/hard\libm.a(lib_a-s_floor.o)
                0x0011acb0                floor
 .text.frexp    0x0011adb8       0x6c c:/progra~2/microsoft visual studio/2019/community/linux/gcc_arm/bin/../lib/gcc/arm-none-eabi/8.2.1/../../../../arm-none-eabi/lib/thumb/v7e-m+fp/hard\libm.a(lib_a-s_frexp.o)
                0x0011adb8                frexp
 .text.round    0x0011ae24       0xa0 c:/progra~2/microsoft visual studio/2019/community/linux/gcc_arm/bin/../lib/gcc/arm-none-eabi/8.2.1/../../../../arm-none-eabi/lib/thumb/v7e-m+fp/hard\libm.a(lib_a-s_round.o)
                0x0011ae24                round
 .text.expf     0x0011aec4      0x10c c:/progra~2/microsoft visual studio/2019/community/linux/gcc_arm/bin/../lib/gcc/arm-none-eabi/8.2.1/../../../../arm-none-eabi/lib/thumb/v7e-m+fp/hard\libm.a(lib_a-wf_exp.o)
                0x0011aec4                expf
 .text.__ieee754_expf
                0x0011afd0      0x1f0 c:/progra~2/microsoft visual studio/2019/community/linux/gcc_arm/bin/../lib/gcc/arm-none-eabi/8.2.1/../../../../arm-none-eabi/lib/thumb/v7e-m+fp/hard\libm.a(lib_a-ef_exp.o)
                0x0011afd0                __ieee754_expf
 .text.matherr  0x0011b1c0        0x4 c:/progra~2/microsoft visual studio/2019/community/linux/gcc_arm/bin/../lib/gcc/arm-none-eabi/8.2.1/../../../../arm-none-eabi/lib/thumb/v7e-m+fp/hard\libm.a(lib_a-s_matherr.o)
                0x0011b1c0                matherr
 .text.finitef  0x0011b1c4       0x14 c:/progra~2/microsoft visual studio/2019/community/linux/gcc_arm/bin/../lib/gcc/arm-none-eabi/8.2.1/../../../../arm-none-eabi/lib/thumb/v7e-m+fp/hard\libm.a(lib_a-sf_finite.o)
                0x0011b1c4                finitef
 .text.abort    0x0011b1d8        0xe c:/progra~2/microsoft visual studio/2019/community/linux/gcc_arm/bin/../lib/gcc/arm-none-eabi/8.2.1/../../../../arm-none-eabi/lib/thumb/v7e-m+fp/hard\libc_nano.a(lib_a-abort.o)
                0x0011b1d8                abort
 *fill*         0x0011b1e6        0x2 
 .text.__cxa_atexit
                0x0011b1e8       0x1c c:/progra~2/microsoft visual studio/2019/community/linux/gcc_arm/bin/../lib/gcc/arm-none-eabi/8.2.1/../../../../arm-none-eabi/lib/thumb/v7e-m+fp/hard\libc_nano.a(lib_a-cxa_atexit.o)
                0x0011b1e8                __cxa_atexit
 .text.__errno  0x0011b204        0xc c:/progra~2/microsoft visual studio/2019/community/linux/gcc_arm/bin/../lib/gcc/arm-none-eabi/8.2.1/../../../../arm-none-eabi/lib/thumb/v7e-m+fp/hard\libc_nano.a(lib_a-errno.o)
                0x0011b204                __errno
 .text.free     0x0011b210       0x10 c:/progra~2/microsoft visual studio/2019/community/linux/gcc_arm/bin/../lib/gcc/arm-none-eabi/8.2.1/../../../../arm-none-eabi/lib/thumb/v7e-m+fp/hard\libc_nano.a(lib_a-malloc.o)
                0x0011b210                free
 .text.memcpy   0x0011b220       0x1c c:/progra~2/microsoft visual studio/2019/community/linux/gcc_arm/bin/../lib/gcc/arm-none-eabi/8.2.1/../../../../arm-none-eabi/lib/thumb/v7e-m+fp/hard\libc_nano.a(lib_a-memcpy-stub.o)
                0x0011b220                memcpy
 .text.memmove  0x0011b23c       0x34 c:/progra~2/microsoft visual studio/2019/community/linux/gcc_arm/bin/../lib/gcc/arm-none-eabi/8.2.1/../../../../arm-none-eabi/lib/thumb/v7e-m+fp/hard\libc_nano.a(lib_a-memmove.o)
                0x0011b23c                memmove
 .text.memset   0x0011b270       0x10 c:/progra~2/microsoft visual studio/2019/community/linux/gcc_arm/bin/../lib/gcc/arm-none-eabi/8.2.1/../../../../arm-none-eabi/lib/thumb/v7e-m+fp/hard\libc_nano.a(lib_a-memset.o)
                0x0011b270                memset
 .text._free_r  0x0011b280       0x9c c:/progra~2/microsoft visual studio/2019/community/linux/gcc_arm/bin/../lib/gcc/arm-none-eabi/8.2.1/../../../../arm-none-eabi/lib/thumb/v7e-m+fp/hard\libc_nano.a(lib_a-nano-freer.o)
                0x0011b280                _free_r
 .text._raise_r
                0x0011b31c       0x50 c:/progra~2/microsoft visual studio/2019/community/linux/gcc_arm/bin/../lib/gcc/arm-none-eabi/8.2.1/../../../../arm-none-eabi/lib/thumb/v7e-m+fp/hard\libc_nano.a(lib_a-signal.o)
                0x0011b31c                _raise_r
 .text.raise    0x0011b36c       0x10 c:/progra~2/microsoft visual studio/2019/community/linux/gcc_arm/bin/../lib/gcc/arm-none-eabi/8.2.1/../../../../arm-none-eabi/lib/thumb/v7e-m+fp/hard\libc_nano.a(lib_a-signal.o)
                0x0011b36c                raise
 .text._kill_r  0x0011b37c       0x24 c:/progra~2/microsoft visual studio/2019/community/linux/gcc_arm/bin/../lib/gcc/arm-none-eabi/8.2.1/../../../../arm-none-eabi/lib/thumb/v7e-m+fp/hard\libc_nano.a(lib_a-signalr.o)
                0x0011b37c                _kill_r
 .text._getpid_r
                0x0011b3a0        0x4 c:/progra~2/microsoft visual studio/2019/community/linux/gcc_arm/bin/../lib/gcc/arm-none-eabi/8.2.1/../../../../arm-none-eabi/lib/thumb/v7e-m+fp/hard\libc_nano.a(lib_a-signalr.o)
                0x0011b3a0                _getpid_r
 .text.__malloc_lock
                0x0011b3a4        0xc c:/progra~2/microsoft visual studio/2019/community/linux/gcc_arm/bin/../lib/gcc/arm-none-eabi/8.2.1/../../../../arm-none-eabi/lib/thumb/v7e-m+fp/hard\libc_nano.a(lib_a-mlock.o)
                0x0011b3a4                __malloc_lock
 .text.__malloc_unlock
                0x0011b3b0        0xc c:/progra~2/microsoft visual studio/2019/community/linux/gcc_arm/bin/../lib/gcc/arm-none-eabi/8.2.1/../../../../arm-none-eabi/lib/thumb/v7e-m+fp/hard\libc_nano.a(lib_a-mlock.o)
                0x0011b3b0                __malloc_unlock
 .text.__retarget_lock_acquire_recursive
                0x0011b3bc        0x2 c:/progra~2/microsoft visual studio/2019/community/linux/gcc_arm/bin/../lib/gcc/arm-none-eabi/8.2.1/../../../../arm-none-eabi/lib/thumb/v7e-m+fp/hard\libc_nano.a(lib_a-lock.o)
                0x0011b3bc                __retarget_lock_acquire_recursive
 .text.__retarget_lock_release_recursive
                0x0011b3be        0x2 c:/progra~2/microsoft visual studio/2019/community/linux/gcc_arm/bin/../lib/gcc/arm-none-eabi/8.2.1/../../../../arm-none-eabi/lib/thumb/v7e-m+fp/hard\libc_nano.a(lib_a-lock.o)
                0x0011b3be                __retarget_lock_release_recursive
 .text._getpid  0x0011b3c0       0x10 c:/progra~2/microsoft visual studio/2019/community/linux/gcc_arm/bin/../lib/gcc/arm-none-eabi/8.2.1/../../../../arm-none-eabi/lib/thumb/v7e-m+fp/hard\libnosys.a(getpid.o)
                0x0011b3c0                _getpid
 .text._kill    0x0011b3d0       0x10 c:/progra~2/microsoft visual studio/2019/community/linux/gcc_arm/bin/../lib/gcc/arm-none-eabi/8.2.1/../../../../arm-none-eabi/lib/thumb/v7e-m+fp/hard\libnosys.a(kill.o)
                0x0011b3d0                _kill
 .text._exit    0x0011b3e0        0x4 c:/progra~2/microsoft visual studio/2019/community/linux/gcc_arm/bin/../lib/gcc/arm-none-eabi/8.2.1/../../../../arm-none-eabi/lib/thumb/v7e-m+fp/hard\libnosys.a(_exit.o)
                0x0011b3e0                _exit
                0x0011b3e4                _init_array_start = .
 *(SORT_BY_NAME(.init_array*))
                0x0011b3e4                _init_array_end = .
                0x0011b3e4                . = ALIGN (0x4)
                0x0011b3e4                _etext = .

.glue_7         0x0011b3e4        0x0
 .glue_7        0x0011b3e4        0x0 linker stubs

.glue_7t        0x0011b3e4        0x0
 .glue_7t       0x0011b3e4        0x0 linker stubs

.vfp11_veneer   0x0011b3e4        0x0
 .vfp11_veneer  0x0011b3e4        0x0 linker stubs

.v4_bx          0x0011b3e4        0x0
 .v4_bx         0x0011b3e4        0x0 linker stubs

.iplt           0x0011b3e4        0x0
 .iplt          0x0011b3e4        0x0 CMakeFiles/azure-sphere-combo-cifar10-rtcore.dir/main.c.obj

.ARM.extab
 *(.ARM.extab* .gnu.linkonce.armextab.*)
                0x0011b3e4                __exidx_start = .

.ARM.exidx      0x0011b3e4        0x8
 *(.ARM.exidx* .gnu.linkonce.armexidx.*)
 .ARM.exidx     0x0011b3e4        0x8 c:/progra~2/microsoft visual studio/2019/community/linux/gcc_arm/bin/../lib/gcc/arm-none-eabi/8.2.1/thumb/v7e-m+fp/hard\libgcc.a(_udivmoddi4.o)
                0x0011b3ec                __exidx_end = .

.rodata         0x10000000    0x269dc
 *(.rodata)
 .rodata        0x10000000      0x129 CMakeFiles/azure-sphere-combo-cifar10-rtcore.dir/main.c.obj
 *fill*         0x10000129        0x3 
 .rodata        0x1000012c       0x78 CMakeFiles/azure-sphere-combo-cifar10-rtcore.dir/D_/CareerHack2021/project/source/RTCORE_OS_HAL/src/os_hal_uart.c.obj
 .rodata        0x100001a4      0x31e CMakeFiles/azure-sphere-combo-cifar10-rtcore.dir/D_/CareerHack2021/project/source/RTCORE_OS_HAL/src/os_hal_mbox.c.obj
 *fill*         0x100004c2        0x2 
 .rodata        0x100004c4      0x1f4 CMakeFiles/azure-sphere-combo-cifar10-rtcore.dir/D_/CareerHack2021/project/source/RTCORE_OS_HAL/src/os_hal_mbox_shared_mem.c.obj
 .rodata        0x100006b8      0x1eb CMakeFiles/azure-sphere-combo-cifar10-rtcore.dir/D_/CareerHack2021/project/app/lib_src/emergency_detect/main.cc.obj
 *fill*         0x100008a3        0x5 
 .rodata        0x100008a8       0x68 lib/MT3620_M4_Driver/libMT3620_M4_Driver.a(printf.c.obj)
 .rodata        0x10000910       0x17 lib/MT3620_M4_Driver/libMT3620_M4_Driver.a(hdl_uart.c.obj)
 *fill*         0x10000927        0x1 
 .rodata        0x10000928      0x294 lib/MT3620_M4_Driver/libMT3620_M4_Driver.a(mhal_mbox.c.obj)
 .rodata        0x10000bbc        0xd ../../../../../../prebuilts/lib/libtensorflow-microlite.a(micro_string.o)
 *fill*         0x10000bc9        0x3 
 .rodata        0x10000bcc        0x5 lib/MT3620_M4_Driver/MT3620_M4_BSP/FreeRTOS/libMT3620_M4_FreeRTOS.a(tasks.c.obj)
 *fill*         0x10000bd1        0x3 
 .rodata        0x10000bd4        0xd lib/MT3620_M4_Driver/MT3620_M4_BSP/FreeRTOS/libMT3620_M4_FreeRTOS.a(timers.c.obj)
 *(.rodata*)
 *fill*         0x10000be1        0x3 
 .rodata.output_emergency_detect_tflite
                0x10000be4    0x237a8 CMakeFiles/azure-sphere-combo-cifar10-rtcore.dir/D_/CareerHack2021/project/app/lib_src/emergency_detect/emergency-detect.cc.obj
                0x10000be4                output_emergency_detect_tflite
 .rodata.output_emergency_detect_tflite_len
                0x1002438c        0x4 CMakeFiles/azure-sphere-combo-cifar10-rtcore.dir/D_/CareerHack2021/project/app/lib_src/emergency_detect/emergency-detect.cc.obj
                0x1002438c                output_emergency_detect_tflite_len
 .rodata._ZTVN6tflite22MicroMutableOpResolverILj7EEE
                0x10024390       0x24 CMakeFiles/azure-sphere-combo-cifar10-rtcore.dir/D_/CareerHack2021/project/app/lib_src/emergency_detect/main.cc.obj
                0x10024390                vtable for tflite::MicroMutableOpResolver<7u>
 .rodata._ZTVN6tflite15MicroOpResolverE
                0x100243b4       0x24 CMakeFiles/azure-sphere-combo-cifar10-rtcore.dir/D_/CareerHack2021/project/app/lib_src/emergency_detect/main.cc.obj
                0x100243b4                vtable for tflite::MicroOpResolver
 .rodata._ZTVN6tflite10OpResolverE
                0x100243d8       0x18 CMakeFiles/azure-sphere-combo-cifar10-rtcore.dir/D_/CareerHack2021/project/app/lib_src/emergency_detect/main.cc.obj
                0x100243d8                vtable for tflite::OpResolver
 .rodata._ZTVN6tflite13ErrorReporterE
                0x100243f0       0x14 CMakeFiles/azure-sphere-combo-cifar10-rtcore.dir/D_/CareerHack2021/project/app/lib_src/emergency_detect/main.cc.obj
                0x100243f0                vtable for tflite::ErrorReporter
 *fill*         0x10024404        0x4 
 .rodata._ZTVN6tflite18MicroErrorReporterE
                0x10024408       0x18 ../../../../../../prebuilts/lib/libtensorflow-microlite.a(micro_error_reporter.o)
                0x10024408                vtable for tflite::MicroErrorReporter
 .rodata.str1.1
                0x10024420        0x0 ../../../../../../prebuilts/lib/libtensorflow-microlite.a(micro_error_reporter.o)
                                  0x3 (size before relaxing)
 .rodata._ZZN6tflite24EnumNamesBuiltinOperatorEvE5names
                0x10024420      0x200 ../../../../../../prebuilts/lib/libtensorflow-microlite.a(micro_interpreter.o)
                0x10024420                tflite::EnumNamesBuiltinOperator()::names
 .rodata.str1.1
                0x10024620      0x66f ../../../../../../prebuilts/lib/libtensorflow-microlite.a(micro_interpreter.o)
                                0x6c7 (size before relaxing)
 .rodata.str1.1
                0x10024c8f        0xc ../../../../../../prebuilts/lib/libtensorflow-microlite.a(micro_string.o)
 .rodata.str1.1
                0x10024c9b       0x44 ../../../../../../prebuilts/lib/libtensorflow-microlite.a(simple_memory_allocator.o)
                                 0x57 (size before relaxing)
 *fill*         0x10024cdf        0x1 
 .rodata._ZTVN6tflite21SimpleMemoryAllocatorE
                0x10024ce0       0x18 ../../../../../../prebuilts/lib/libtensorflow-microlite.a(simple_memory_allocator.o)
                0x10024ce0                vtable for tflite::SimpleMemoryAllocator
 .rodata.str1.1
                0x10024cf8      0x192 ../../../../../../prebuilts/lib/libtensorflow-microlite.a(flatbuffer_conversions.o)
                                0x1a5 (size before relaxing)
 .rodata.CSWTCH.146
                0x10024e8a        0x5 ../../../../../../prebuilts/lib/libtensorflow-microlite.a(flatbuffer_conversions.o)
 .rodata.str1.1
                0x10024e8f      0x162 ../../../../../../prebuilts/lib/libtensorflow-microlite.a(dynamic_agent.o)
                                0x175 (size before relaxing)
 *fill*         0x10024ff1        0x3 
 .rodata.str1.4
                0x10024ff4      0x29b ../../../../../../prebuilts/lib/libtensorflow-microlite.a(fully_connected.o)
                                0x29c (size before relaxing)
 *fill*         0x1002528f        0x1 
 .rodata.str1.4
                0x10025290      0x2b1 ../../../../../../prebuilts/lib/libtensorflow-microlite.a(pooling.o)
                                0x2f8 (size before relaxing)
 *fill*         0x10025541        0x3 
 .rodata.str1.4
                0x10025544       0xe9 ../../../../../../prebuilts/lib/libtensorflow-microlite.a(reshape.o)
                                0x13c (size before relaxing)
 *fill*         0x1002562d        0x3 
 .rodata.str1.4
                0x10025630      0x11b ../../../../../../prebuilts/lib/libtensorflow-microlite.a(softmax.o)
                                0x1b4 (size before relaxing)
 *fill*         0x1002574b        0x1 
 .rodata.str1.4
                0x1002574c      0x1b1 ../../../../../../prebuilts/lib/libtensorflow-microlite.a(kernel_util.o)
                                0x208 (size before relaxing)
 *fill*         0x100258fd        0x3 
 .rodata.str1.4
                0x10025900      0x1ee ../../../../../../prebuilts/lib/libtensorflow-microlite.a(conv.o)
                                0x2e4 (size before relaxing)
 *fill*         0x10025aee        0x2 
 .rodata.str1.4
                0x10025af0      0x653 ../../../../../../prebuilts/lib/libtensorflow-microlite.a(depthwise_conv.o)
                                0x7dc (size before relaxing)
 .rodata.str1.1
                0x10026143       0x22 ../../../../../../prebuilts/lib/libtensorflow-microlite.a(memory_helpers.o)
                                 0x35 (size before relaxing)
 *fill*         0x10026165        0x3 
 .rodata._ZTVN6tflite20BuiltinDataAllocatorE
                0x10026168       0x18 ../../../../../../prebuilts/lib/libtensorflow-microlite.a(micro_allocator.o)
                0x10026168                vtable for tflite::BuiltinDataAllocator
 .rodata._ZTVN6tflite12_GLOBAL__N_125MicroBuiltinDataAllocatorE
                0x10026180       0x18 ../../../../../../prebuilts/lib/libtensorflow-microlite.a(micro_allocator.o)
 .rodata.str1.1
                0x10026198      0x580 ../../../../../../prebuilts/lib/libtensorflow-microlite.a(micro_allocator.o)
                                0xaf4 (size before relaxing)
 .rodata._ZTVN6tflite14MicroAllocatorE
                0x10026718       0x28 ../../../../../../prebuilts/lib/libtensorflow-microlite.a(micro_allocator.o)
                0x10026718                vtable for tflite::MicroAllocator
 .rodata._ZN6tflite12_GLOBAL__N_1L19kZeroLengthIntArrayE
                0x10026740        0x4 ../../../../../../prebuilts/lib/libtensorflow-microlite.a(micro_allocator.o)
 *fill*         0x10026744        0x4 
 .rodata._ZTVN6tflite13MemoryPlannerE
                0x10026748       0x20 ../../../../../../prebuilts/lib/libtensorflow-microlite.a(greedy_memory_planner.o)
                0x10026748                vtable for tflite::MemoryPlanner
 .rodata.str1.1
                0x10026768       0xe6 ../../../../../../prebuilts/lib/libtensorflow-microlite.a(greedy_memory_planner.o)
                                 0xe9 (size before relaxing)
 *fill*         0x1002684e        0x2 
 .rodata._ZTVN6tflite19GreedyMemoryPlannerE
                0x10026850       0x20 ../../../../../../prebuilts/lib/libtensorflow-microlite.a(greedy_memory_planner.o)
                0x10026850                vtable for tflite::GreedyMemoryPlanner
 .rodata.CSWTCH.8
                0x10026870       0x30 ../../../../../../prebuilts/lib/libtensorflow-microlite.a(common.o)
 .rodata.str1.1
                0x100268a0       0x5a ../../../../../../prebuilts/lib/libtensorflow-microlite.a(common.o)
                                 0x5f (size before relaxing)
 .rodata.str1.1
                0x100268fa       0xc0 ../../../../../../prebuilts/lib/libtensorflow-microlite.a(op_resolver.o)
                                0x5f3 (size before relaxing)
 *fill*         0x100269ba        0x2 
 .rodata.expf.str1.4
                0x100269bc        0x8 c:/progra~2/microsoft visual studio/2019/community/linux/gcc_arm/bin/../lib/gcc/arm-none-eabi/8.2.1/../../../../arm-none-eabi/lib/thumb/v7e-m+fp/hard\libm.a(lib_a-wf_exp.o)
                                  0x5 (size before relaxing)
 .rodata.halF   0x100269c4        0x8 c:/progra~2/microsoft visual studio/2019/community/linux/gcc_arm/bin/../lib/gcc/arm-none-eabi/8.2.1/../../../../arm-none-eabi/lib/thumb/v7e-m+fp/hard\libm.a(lib_a-ef_exp.o)
 .rodata.ln2HI  0x100269cc        0x8 c:/progra~2/microsoft visual studio/2019/community/linux/gcc_arm/bin/../lib/gcc/arm-none-eabi/8.2.1/../../../../arm-none-eabi/lib/thumb/v7e-m+fp/hard\libm.a(lib_a-ef_exp.o)
 .rodata.ln2LO  0x100269d4        0x8 c:/progra~2/microsoft visual studio/2019/community/linux/gcc_arm/bin/../lib/gcc/arm-none-eabi/8.2.1/../../../../arm-none-eabi/lib/thumb/v7e-m+fp/hard\libm.a(lib_a-ef_exp.o)

.rel.dyn        0x100269dc        0x0
 .rel.iplt      0x100269dc        0x0 CMakeFiles/azure-sphere-combo-cifar10-rtcore.dir/main.c.obj

.data           0x0011b3ec      0x2b4
                0x0011b3ec                . = ALIGN (0x4)
                0x0011b3ec                _sdata = .
 *(.data)
 .data          0x0011b3ec       0x1c CMakeFiles/azure-sphere-combo-cifar10-rtcore.dir/main.c.obj
 .data          0x0011b408       0x46 CMakeFiles/azure-sphere-combo-cifar10-rtcore.dir/D_/CareerHack2021/project/source/RTCORE_OS_HAL/src/os_hal_uart.c.obj
 *fill*         0x0011b44e        0x2 
 .data          0x0011b450       0x20 CMakeFiles/azure-sphere-combo-cifar10-rtcore.dir/D_/CareerHack2021/project/source/RTCORE_OS_HAL/src/os_hal_mbox.c.obj
 .data          0x0011b470       0xc0 lib/MT3620_M4_Driver/lib/MT3620_M4_BSP/libMT3620_M4_BSP.a(cirq_common.c.obj)
                0x0011b470                gpio_irq_tbl
 .data          0x0011b530        0x4 lib/MT3620_M4_Driver/MT3620_M4_BSP/FreeRTOS/libMT3620_M4_FreeRTOS.a(port.c.obj)
 *(.data*)
 .data.emergency_detect_classes
                0x0011b534       0x1c CMakeFiles/azure-sphere-combo-cifar10-rtcore.dir/D_/CareerHack2021/project/app/lib_src/emergency_detect/main.cc.obj
                0x0011b534                emergency_detect_classes
 .data._ZZ22emergency_detect_setupE20micro_error_reporter
                0x0011b550        0x4 CMakeFiles/azure-sphere-combo-cifar10-rtcore.dir/D_/CareerHack2021/project/app/lib_src/emergency_detect/main.cc.obj
 .data._ZZN6tflite3ops5micro24Register_FULLY_CONNECTEDEvE1r
                0x0011b554       0x20 ../../../../../../prebuilts/lib/libtensorflow-microlite.a(fully_connected.o)
 .data._ZZN6tflite3ops5micro20Register_MAX_POOL_2DEvE1r
                0x0011b574       0x20 ../../../../../../prebuilts/lib/libtensorflow-microlite.a(pooling.o)
 .data._ZZN6tflite3ops5micro24Register_AVERAGE_POOL_2DEvE1r
                0x0011b594       0x20 ../../../../../../prebuilts/lib/libtensorflow-microlite.a(pooling.o)
 .data._ZZN6tflite3ops5micro16Register_RESHAPEEvE1r
                0x0011b5b4       0x20 ../../../../../../prebuilts/lib/libtensorflow-microlite.a(reshape.o)
 .data._ZZN6tflite3ops5micro16Register_SOFTMAXEvE1r
                0x0011b5d4       0x20 ../../../../../../prebuilts/lib/libtensorflow-microlite.a(softmax.o)
 .data._ZZN6tflite3ops5micro16Register_CONV_2DEvE1r
                0x0011b5f4       0x20 ../../../../../../prebuilts/lib/libtensorflow-microlite.a(conv.o)
 .data._ZZN6tflite3ops5micro26Register_DEPTHWISE_CONV_2DEvE1r
                0x0011b614       0x20 ../../../../../../prebuilts/lib/libtensorflow-microlite.a(depthwise_conv.o)
 .data._ZN10__cxxabiv119__terminate_handlerE
                0x0011b634        0x4 c:/progra~2/microsoft visual studio/2019/community/linux/gcc_arm/bin/../lib/gcc/arm-none-eabi/8.2.1/../../../../arm-none-eabi/lib/thumb/v7e-m+fp/hard\libstdc++_nano.a(eh_term_handler.o)
                0x0011b634                __cxxabiv1::__terminate_handler
 .data.__fdlib_version
                0x0011b638        0x1 c:/progra~2/microsoft visual studio/2019/community/linux/gcc_arm/bin/../lib/gcc/arm-none-eabi/8.2.1/../../../../arm-none-eabi/lib/thumb/v7e-m+fp/hard\libm.a(lib_a-s_lib_ver.o)
                0x0011b638                __fdlib_version
 *fill*         0x0011b639        0x3 
 .data._impure_ptr
                0x0011b63c        0x4 c:/progra~2/microsoft visual studio/2019/community/linux/gcc_arm/bin/../lib/gcc/arm-none-eabi/8.2.1/../../../../arm-none-eabi/lib/thumb/v7e-m+fp/hard\libc_nano.a(lib_a-impure.o)
                0x0011b63c                _impure_ptr
 .data.impure_data
                0x0011b640       0x60 c:/progra~2/microsoft visual studio/2019/community/linux/gcc_arm/bin/../lib/gcc/arm-none-eabi/8.2.1/../../../../arm-none-eabi/lib/thumb/v7e-m+fp/hard\libc_nano.a(lib_a-impure.o)
                0x0011b6a0                . = ALIGN (0x4)
                0x0011b6a0                _edata = .

.igot.plt       0x0011b6a0        0x0
 .igot.plt      0x0011b6a0        0x0 CMakeFiles/azure-sphere-combo-cifar10-rtcore.dir/main.c.obj

.bss            0x0011b6a0    0x1477c
                0x0011b6a0                . = ALIGN (0x4)
                0x0011b6a0                __bss_start__ = .
 *(.bss)
 .bss           0x0011b6a0      0xc08 CMakeFiles/azure-sphere-combo-cifar10-rtcore.dir/main.c.obj
                0x0011c2a0                blockDeqSema
                0x0011c2a4                blockFifoSema
 .bss           0x0011c2a8      0x210 CMakeFiles/azure-sphere-combo-cifar10-rtcore.dir/D_/CareerHack2021/project/source/RTCORE_OS_HAL/src/os_hal_uart.c.obj
 .bss           0x0011c4b8       0xa8 CMakeFiles/azure-sphere-combo-cifar10-rtcore.dir/D_/CareerHack2021/project/source/RTCORE_OS_HAL/src/os_hal_mbox.c.obj
 .bss           0x0011c560        0xc lib/MT3620_M4_Driver/lib/MT3620_M4_BSP/libMT3620_M4_BSP.a(nvic.c.obj)
                0x0011c560                sys_tick_in_ms
                0x0011c564                backup_handler
                0x0011c568                backup_irqn
 .bss           0x0011c56c       0x40 lib/MT3620_M4_Driver/MT3620_M4_BSP/FreeRTOS/libMT3620_M4_FreeRTOS.a(queue.c.obj)
                0x0011c56c                xQueueRegistry
 .bss           0x0011c5ac      0x168 lib/MT3620_M4_Driver/MT3620_M4_BSP/FreeRTOS/libMT3620_M4_FreeRTOS.a(tasks.c.obj)
                0x0011c5ac                pxCurrentTCB
 .bss           0x0011c714       0x3c lib/MT3620_M4_Driver/MT3620_M4_BSP/FreeRTOS/libMT3620_M4_FreeRTOS.a(timers.c.obj)
 .bss           0x0011c750       0x18 lib/MT3620_M4_Driver/MT3620_M4_BSP/FreeRTOS/libMT3620_M4_FreeRTOS.a(heap_4.c.obj)
 .bss           0x0011c768        0x8 lib/MT3620_M4_Driver/MT3620_M4_BSP/FreeRTOS/libMT3620_M4_FreeRTOS.a(port.c.obj)
 *(.bss*)
 *fill*         0x0011c770       0x10 
 .bss.tensor_arena
                0x0011c780    0x12000 CMakeFiles/azure-sphere-combo-cifar10-rtcore.dir/D_/CareerHack2021/project/app/lib_src/emergency_detect/main.cc.obj
                0x0011c780                tensor_arena
 .bss.error_reporter
                0x0012e780        0x4 CMakeFiles/azure-sphere-combo-cifar10-rtcore.dir/D_/CareerHack2021/project/app/lib_src/emergency_detect/main.cc.obj
                0x0012e780                error_reporter
 .bss.model     0x0012e784        0x4 CMakeFiles/azure-sphere-combo-cifar10-rtcore.dir/D_/CareerHack2021/project/app/lib_src/emergency_detect/main.cc.obj
                0x0012e784                model
 .bss.interpreter
                0x0012e788        0x4 CMakeFiles/azure-sphere-combo-cifar10-rtcore.dir/D_/CareerHack2021/project/app/lib_src/emergency_detect/main.cc.obj
                0x0012e788                interpreter
 .bss.model_input
                0x0012e78c        0x4 CMakeFiles/azure-sphere-combo-cifar10-rtcore.dir/D_/CareerHack2021/project/app/lib_src/emergency_detect/main.cc.obj
                0x0012e78c                model_input
 .bss.model_output
                0x0012e790        0x4 CMakeFiles/azure-sphere-combo-cifar10-rtcore.dir/D_/CareerHack2021/project/app/lib_src/emergency_detect/main.cc.obj
                0x0012e790                model_output
 .bss._ZGVZ22emergency_detect_setupE20micro_error_reporter
                0x0012e794        0x4 CMakeFiles/azure-sphere-combo-cifar10-rtcore.dir/D_/CareerHack2021/project/app/lib_src/emergency_detect/main.cc.obj
 .bss._ZZ22emergency_detect_setupE8resolver
                0x0012e798      0x114 CMakeFiles/azure-sphere-combo-cifar10-rtcore.dir/D_/CareerHack2021/project/app/lib_src/emergency_detect/main.cc.obj
 .bss._ZGVZ22emergency_detect_setupE8resolver
                0x0012e8ac        0x4 CMakeFiles/azure-sphere-combo-cifar10-rtcore.dir/D_/CareerHack2021/project/app/lib_src/emergency_detect/main.cc.obj
 *fill*         0x0012e8b0       0x10 
 .bss._ZZ22emergency_detect_setupE18static_interpreter
                0x0012e8c0     0x1540 CMakeFiles/azure-sphere-combo-cifar10-rtcore.dir/D_/CareerHack2021/project/app/lib_src/emergency_detect/main.cc.obj
 .bss._ZGVZ22emergency_detect_setupE18static_interpreter
                0x0012fe00        0x4 CMakeFiles/azure-sphere-combo-cifar10-rtcore.dir/D_/CareerHack2021/project/app/lib_src/emergency_detect/main.cc.obj
 .bss._ZL16UART_INITIALISED
                0x0012fe04        0x4 ../../../../../../prebuilts/lib/libtensorflow-microlite.a(debug_log.o)
 .bss.__malloc_free_list
                0x0012fe08        0x4 c:/progra~2/microsoft visual studio/2019/community/linux/gcc_arm/bin/../lib/gcc/arm-none-eabi/8.2.1/../../../../arm-none-eabi/lib/thumb/v7e-m+fp/hard\libc_nano.a(lib_a-nano-mallocr.o)
                0x0012fe08                __malloc_free_list
 *(COMMON)
 COMMON         0x0012fe0c        0x4 c:/progra~2/microsoft visual studio/2019/community/linux/gcc_arm/bin/../lib/gcc/arm-none-eabi/8.2.1/../../../../arm-none-eabi/lib/thumb/v7e-m+fp/hard\libc_nano.a(lib_a-reent.o)
                0x0012fe0c                errno
 COMMON         0x0012fe10        0x9 c:/progra~2/microsoft visual studio/2019/community/linux/gcc_arm/bin/../lib/gcc/arm-none-eabi/8.2.1/../../../../arm-none-eabi/lib/thumb/v7e-m+fp/hard\libc_nano.a(lib_a-lock.o)
                0x0012fe10                __lock___atexit_recursive_mutex
                0x0012fe11                __lock___arc4random_mutex
                0x0012fe12                __lock___env_recursive_mutex
                0x0012fe13                __lock___sinit_recursive_mutex
                0x0012fe14                __lock___malloc_recursive_mutex
                0x0012fe15                __lock___at_quick_exit_mutex
                0x0012fe16                __lock___dd_hash_mutex
                0x0012fe17                __lock___tz_mutex
                0x0012fe18                __lock___sfp_recursive_mutex
                0x0012fe1c                . = ALIGN (0x4)
 *fill*         0x0012fe19        0x3 
                0x0012fe1c                __bss_end__ = .
                0x0012fe1c                end = .

.freertosheap   0x22000000    0x10000
 *(.freertosheap)
 .freertosheap  0x22000000    0x10000 lib/MT3620_M4_Driver/MT3620_M4_BSP/FreeRTOS/libMT3620_M4_FreeRTOS.a(heap_4.c.obj)
                0x00130000                StackTop = (ORIGIN (TCM) + LENGTH (TCM))
OUTPUT(azure-sphere-combo-cifar10-rtcore.out elf32-littlearm)

.debug_info     0x00000000    0x52d8f
 .debug_info    0x00000000      0xf18 CMakeFiles/azure-sphere-combo-cifar10-rtcore.dir/main.c.obj
 .debug_info    0x00000f18     0x1559 CMakeFiles/azure-sphere-combo-cifar10-rtcore.dir/D_/CareerHack2021/project/source/RTCORE_OS_HAL/src/os_hal_uart.c.obj
 .debug_info    0x00002471     0x1a09 CMakeFiles/azure-sphere-combo-cifar10-rtcore.dir/D_/CareerHack2021/project/source/RTCORE_OS_HAL/src/os_hal_mbox.c.obj
 .debug_info    0x00003e7a      0xfed CMakeFiles/azure-sphere-combo-cifar10-rtcore.dir/D_/CareerHack2021/project/source/RTCORE_OS_HAL/src/os_hal_mbox_shared_mem.c.obj
 .debug_info    0x00004e67       0x78 CMakeFiles/azure-sphere-combo-cifar10-rtcore.dir/D_/CareerHack2021/project/app/lib_src/emergency_detect/emergency-detect.cc.obj
 .debug_info    0x00004edf    0x3deef CMakeFiles/azure-sphere-combo-cifar10-rtcore.dir/D_/CareerHack2021/project/app/lib_src/emergency_detect/main.cc.obj
 .debug_info    0x00042dce      0xe54 lib/MT3620_M4_Driver/libMT3620_M4_Driver.a(printf.c.obj)
 .debug_info    0x00043c22     0x15d8 lib/MT3620_M4_Driver/libMT3620_M4_Driver.a(mhal_uart.c.obj)
 .debug_info    0x000451fa      0xf20 lib/MT3620_M4_Driver/libMT3620_M4_Driver.a(hdl_uart.c.obj)
 .debug_info    0x0004611a      0xe8b lib/MT3620_M4_Driver/libMT3620_M4_Driver.a(mhal_mbox.c.obj)
 .debug_info    0x00046fa5     0x1014 lib/MT3620_M4_Driver/libMT3620_M4_Driver.a(hdl_mbox.c.obj)
 .debug_info    0x00047fb9     0x102e lib/MT3620_M4_Driver/libMT3620_M4_Driver.a(mhal_osai.c.obj)
 .debug_info    0x00048fe7      0x82f lib/MT3620_M4_Driver/lib/MT3620_M4_BSP/libMT3620_M4_BSP.a(nvic.c.obj)
 .debug_info    0x00049816      0xe1b lib/MT3620_M4_Driver/lib/MT3620_M4_BSP/libMT3620_M4_BSP.a(cirq_common.c.obj)
 .debug_info    0x0004a631       0xe8 lib/MT3620_M4_Driver/lib/MT3620_M4_BSP/libMT3620_M4_BSP.a(vector_table.c.obj)
 .debug_info    0x0004a719       0x26 lib/MT3620_M4_Driver/lib/MT3620_M4_BSP/libMT3620_M4_BSP.a(startup_mt3620.s.obj)
 .debug_info    0x0004a73f     0x2287 lib/MT3620_M4_Driver/MT3620_M4_BSP/FreeRTOS/libMT3620_M4_FreeRTOS.a(queue.c.obj)
 .debug_info    0x0004c9c6     0x2d1e lib/MT3620_M4_Driver/MT3620_M4_BSP/FreeRTOS/libMT3620_M4_FreeRTOS.a(tasks.c.obj)
 .debug_info    0x0004f6e4     0x16f4 lib/MT3620_M4_Driver/MT3620_M4_BSP/FreeRTOS/libMT3620_M4_FreeRTOS.a(timers.c.obj)
 .debug_info    0x00050dd8      0xdac lib/MT3620_M4_Driver/MT3620_M4_BSP/FreeRTOS/libMT3620_M4_FreeRTOS.a(heap_4.c.obj)
 .debug_info    0x00051b84      0x596 lib/MT3620_M4_Driver/MT3620_M4_BSP/FreeRTOS/libMT3620_M4_FreeRTOS.a(port.c.obj)
 .debug_info    0x0005211a      0xc75 lib/MT3620_M4_Driver/MT3620_M4_BSP/FreeRTOS/libMT3620_M4_FreeRTOS.a(list.c.obj)

.debug_abbrev   0x00000000     0x3fc6
 .debug_abbrev  0x00000000      0x282 CMakeFiles/azure-sphere-combo-cifar10-rtcore.dir/main.c.obj
 .debug_abbrev  0x00000282      0x2d0 CMakeFiles/azure-sphere-combo-cifar10-rtcore.dir/D_/CareerHack2021/project/source/RTCORE_OS_HAL/src/os_hal_uart.c.obj
 .debug_abbrev  0x00000552      0x33d CMakeFiles/azure-sphere-combo-cifar10-rtcore.dir/D_/CareerHack2021/project/source/RTCORE_OS_HAL/src/os_hal_mbox.c.obj
 .debug_abbrev  0x0000088f      0x2a4 CMakeFiles/azure-sphere-combo-cifar10-rtcore.dir/D_/CareerHack2021/project/source/RTCORE_OS_HAL/src/os_hal_mbox_shared_mem.c.obj
 .debug_abbrev  0x00000b33       0x5d CMakeFiles/azure-sphere-combo-cifar10-rtcore.dir/D_/CareerHack2021/project/app/lib_src/emergency_detect/emergency-detect.cc.obj
 .debug_abbrev  0x00000b90      0xe95 CMakeFiles/azure-sphere-combo-cifar10-rtcore.dir/D_/CareerHack2021/project/app/lib_src/emergency_detect/main.cc.obj
 .debug_abbrev  0x00001a25      0x22b lib/MT3620_M4_Driver/libMT3620_M4_Driver.a(printf.c.obj)
 .debug_abbrev  0x00001c50      0x2d4 lib/MT3620_M4_Driver/libMT3620_M4_Driver.a(mhal_uart.c.obj)
 .debug_abbrev  0x00001f24      0x29f lib/MT3620_M4_Driver/libMT3620_M4_Driver.a(hdl_uart.c.obj)
 .debug_abbrev  0x000021c3      0x25d lib/MT3620_M4_Driver/libMT3620_M4_Driver.a(mhal_mbox.c.obj)
 .debug_abbrev  0x00002420      0x230 lib/MT3620_M4_Driver/libMT3620_M4_Driver.a(hdl_mbox.c.obj)
 .debug_abbrev  0x00002650      0x2a8 lib/MT3620_M4_Driver/libMT3620_M4_Driver.a(mhal_osai.c.obj)
 .debug_abbrev  0x000028f8      0x262 lib/MT3620_M4_Driver/lib/MT3620_M4_BSP/libMT3620_M4_BSP.a(nvic.c.obj)
 .debug_abbrev  0x00002b5a      0x283 lib/MT3620_M4_Driver/lib/MT3620_M4_BSP/libMT3620_M4_BSP.a(cirq_common.c.obj)
 .debug_abbrev  0x00002ddd       0x84 lib/MT3620_M4_Driver/lib/MT3620_M4_BSP/libMT3620_M4_BSP.a(vector_table.c.obj)
 .debug_abbrev  0x00002e61       0x14 lib/MT3620_M4_Driver/lib/MT3620_M4_BSP/libMT3620_M4_BSP.a(startup_mt3620.s.obj)
 .debug_abbrev  0x00002e75      0x368 lib/MT3620_M4_Driver/MT3620_M4_BSP/FreeRTOS/libMT3620_M4_FreeRTOS.a(queue.c.obj)
 .debug_abbrev  0x000031dd      0x3a2 lib/MT3620_M4_Driver/MT3620_M4_BSP/FreeRTOS/libMT3620_M4_FreeRTOS.a(tasks.c.obj)
 .debug_abbrev  0x0000357f      0x30c lib/MT3620_M4_Driver/MT3620_M4_BSP/FreeRTOS/libMT3620_M4_FreeRTOS.a(timers.c.obj)
 .debug_abbrev  0x0000388b      0x300 lib/MT3620_M4_Driver/MT3620_M4_BSP/FreeRTOS/libMT3620_M4_FreeRTOS.a(heap_4.c.obj)
 .debug_abbrev  0x00003b8b      0x23e lib/MT3620_M4_Driver/MT3620_M4_BSP/FreeRTOS/libMT3620_M4_FreeRTOS.a(port.c.obj)
 .debug_abbrev  0x00003dc9      0x1fd lib/MT3620_M4_Driver/MT3620_M4_BSP/FreeRTOS/libMT3620_M4_FreeRTOS.a(list.c.obj)

.debug_loc      0x00000000     0x7b9c
 .debug_loc     0x00000000      0x22e CMakeFiles/azure-sphere-combo-cifar10-rtcore.dir/main.c.obj
 .debug_loc     0x0000022e      0x64c CMakeFiles/azure-sphere-combo-cifar10-rtcore.dir/D_/CareerHack2021/project/source/RTCORE_OS_HAL/src/os_hal_uart.c.obj
 .debug_loc     0x0000087a      0x586 CMakeFiles/azure-sphere-combo-cifar10-rtcore.dir/D_/CareerHack2021/project/source/RTCORE_OS_HAL/src/os_hal_mbox.c.obj
 .debug_loc     0x00000e00      0x302 CMakeFiles/azure-sphere-combo-cifar10-rtcore.dir/D_/CareerHack2021/project/source/RTCORE_OS_HAL/src/os_hal_mbox_shared_mem.c.obj
 .debug_loc     0x00001102      0xcc0 CMakeFiles/azure-sphere-combo-cifar10-rtcore.dir/D_/CareerHack2021/project/app/lib_src/emergency_detect/main.cc.obj
 .debug_loc     0x00001dc2      0x70a lib/MT3620_M4_Driver/libMT3620_M4_Driver.a(printf.c.obj)
 .debug_loc     0x000024cc      0xa1c lib/MT3620_M4_Driver/libMT3620_M4_Driver.a(mhal_uart.c.obj)
 .debug_loc     0x00002ee8      0x50e lib/MT3620_M4_Driver/libMT3620_M4_Driver.a(hdl_uart.c.obj)
 .debug_loc     0x000033f6      0x1f8 lib/MT3620_M4_Driver/libMT3620_M4_Driver.a(mhal_mbox.c.obj)
 .debug_loc     0x000035ee      0x7d0 lib/MT3620_M4_Driver/libMT3620_M4_Driver.a(hdl_mbox.c.obj)
 .debug_loc     0x00003dbe      0x6bc lib/MT3620_M4_Driver/libMT3620_M4_Driver.a(mhal_osai.c.obj)
 .debug_loc     0x0000447a      0x4e8 lib/MT3620_M4_Driver/lib/MT3620_M4_BSP/libMT3620_M4_BSP.a(nvic.c.obj)
 .debug_loc     0x00004962      0x4ac lib/MT3620_M4_Driver/lib/MT3620_M4_BSP/libMT3620_M4_BSP.a(cirq_common.c.obj)
 .debug_loc     0x00004e0e       0x2c lib/MT3620_M4_Driver/lib/MT3620_M4_BSP/libMT3620_M4_BSP.a(vector_table.c.obj)
 .debug_loc     0x00004e3a      0xb74 lib/MT3620_M4_Driver/MT3620_M4_BSP/FreeRTOS/libMT3620_M4_FreeRTOS.a(queue.c.obj)
 .debug_loc     0x000059ae     0x13aa lib/MT3620_M4_Driver/MT3620_M4_BSP/FreeRTOS/libMT3620_M4_FreeRTOS.a(tasks.c.obj)
 .debug_loc     0x00006d58      0x748 lib/MT3620_M4_Driver/MT3620_M4_BSP/FreeRTOS/libMT3620_M4_FreeRTOS.a(timers.c.obj)
 .debug_loc     0x000074a0      0x224 lib/MT3620_M4_Driver/MT3620_M4_BSP/FreeRTOS/libMT3620_M4_FreeRTOS.a(heap_4.c.obj)
 .debug_loc     0x000076c4      0x30c lib/MT3620_M4_Driver/MT3620_M4_BSP/FreeRTOS/libMT3620_M4_FreeRTOS.a(port.c.obj)
 .debug_loc     0x000079d0      0x1cc lib/MT3620_M4_Driver/MT3620_M4_BSP/FreeRTOS/libMT3620_M4_FreeRTOS.a(list.c.obj)

.debug_aranges  0x00000000      0x3e8
 .debug_aranges
                0x00000000       0x20 CMakeFiles/azure-sphere-combo-cifar10-rtcore.dir/main.c.obj
 .debug_aranges
                0x00000020       0x20 CMakeFiles/azure-sphere-combo-cifar10-rtcore.dir/D_/CareerHack2021/project/source/RTCORE_OS_HAL/src/os_hal_uart.c.obj
 .debug_aranges
                0x00000040       0x20 CMakeFiles/azure-sphere-combo-cifar10-rtcore.dir/D_/CareerHack2021/project/source/RTCORE_OS_HAL/src/os_hal_mbox.c.obj
 .debug_aranges
                0x00000060       0x20 CMakeFiles/azure-sphere-combo-cifar10-rtcore.dir/D_/CareerHack2021/project/source/RTCORE_OS_HAL/src/os_hal_mbox_shared_mem.c.obj
 .debug_aranges
                0x00000080       0x18 CMakeFiles/azure-sphere-combo-cifar10-rtcore.dir/D_/CareerHack2021/project/app/lib_src/emergency_detect/emergency-detect.cc.obj
 .debug_aranges
                0x00000098      0x150 CMakeFiles/azure-sphere-combo-cifar10-rtcore.dir/D_/CareerHack2021/project/app/lib_src/emergency_detect/main.cc.obj
 .debug_aranges
                0x000001e8       0x20 lib/MT3620_M4_Driver/libMT3620_M4_Driver.a(printf.c.obj)
 .debug_aranges
                0x00000208       0x20 lib/MT3620_M4_Driver/libMT3620_M4_Driver.a(mhal_uart.c.obj)
 .debug_aranges
                0x00000228       0x20 lib/MT3620_M4_Driver/libMT3620_M4_Driver.a(hdl_uart.c.obj)
 .debug_aranges
                0x00000248       0x20 lib/MT3620_M4_Driver/libMT3620_M4_Driver.a(mhal_mbox.c.obj)
 .debug_aranges
                0x00000268       0x20 lib/MT3620_M4_Driver/libMT3620_M4_Driver.a(hdl_mbox.c.obj)
 .debug_aranges
                0x00000288       0x20 lib/MT3620_M4_Driver/libMT3620_M4_Driver.a(mhal_osai.c.obj)
 .debug_aranges
                0x000002a8       0x20 lib/MT3620_M4_Driver/lib/MT3620_M4_BSP/libMT3620_M4_BSP.a(nvic.c.obj)
 .debug_aranges
                0x000002c8       0x20 lib/MT3620_M4_Driver/lib/MT3620_M4_BSP/libMT3620_M4_BSP.a(cirq_common.c.obj)
 .debug_aranges
                0x000002e8       0x20 lib/MT3620_M4_Driver/lib/MT3620_M4_BSP/libMT3620_M4_BSP.a(vector_table.c.obj)
 .debug_aranges
                0x00000308       0x20 lib/MT3620_M4_Driver/lib/MT3620_M4_BSP/libMT3620_M4_BSP.a(startup_mt3620.s.obj)
 .debug_aranges
                0x00000328       0x20 lib/MT3620_M4_Driver/MT3620_M4_BSP/FreeRTOS/libMT3620_M4_FreeRTOS.a(queue.c.obj)
 .debug_aranges
                0x00000348       0x20 lib/MT3620_M4_Driver/MT3620_M4_BSP/FreeRTOS/libMT3620_M4_FreeRTOS.a(tasks.c.obj)
 .debug_aranges
                0x00000368       0x20 lib/MT3620_M4_Driver/MT3620_M4_BSP/FreeRTOS/libMT3620_M4_FreeRTOS.a(timers.c.obj)
 .debug_aranges
                0x00000388       0x20 lib/MT3620_M4_Driver/MT3620_M4_BSP/FreeRTOS/libMT3620_M4_FreeRTOS.a(heap_4.c.obj)
 .debug_aranges
                0x000003a8       0x20 lib/MT3620_M4_Driver/MT3620_M4_BSP/FreeRTOS/libMT3620_M4_FreeRTOS.a(port.c.obj)
 .debug_aranges
                0x000003c8       0x20 lib/MT3620_M4_Driver/MT3620_M4_BSP/FreeRTOS/libMT3620_M4_FreeRTOS.a(list.c.obj)

.debug_line     0x00000000     0x8fec
 .debug_line    0x00000000      0x475 CMakeFiles/azure-sphere-combo-cifar10-rtcore.dir/main.c.obj
 .debug_line    0x00000475      0x5d9 CMakeFiles/azure-sphere-combo-cifar10-rtcore.dir/D_/CareerHack2021/project/source/RTCORE_OS_HAL/src/os_hal_uart.c.obj
 .debug_line    0x00000a4e      0x8e8 CMakeFiles/azure-sphere-combo-cifar10-rtcore.dir/D_/CareerHack2021/project/source/RTCORE_OS_HAL/src/os_hal_mbox.c.obj
 .debug_line    0x00001336      0x4e4 CMakeFiles/azure-sphere-combo-cifar10-rtcore.dir/D_/CareerHack2021/project/source/RTCORE_OS_HAL/src/os_hal_mbox_shared_mem.c.obj
 .debug_line    0x0000181a       0x81 CMakeFiles/azure-sphere-combo-cifar10-rtcore.dir/D_/CareerHack2021/project/app/lib_src/emergency_detect/emergency-detect.cc.obj
 .debug_line    0x0000189b     0x1081 CMakeFiles/azure-sphere-combo-cifar10-rtcore.dir/D_/CareerHack2021/project/app/lib_src/emergency_detect/main.cc.obj
 .debug_line    0x0000291c      0xc55 lib/MT3620_M4_Driver/libMT3620_M4_Driver.a(printf.c.obj)
 .debug_line    0x00003571      0x615 lib/MT3620_M4_Driver/libMT3620_M4_Driver.a(mhal_uart.c.obj)
 .debug_line    0x00003b86      0x366 lib/MT3620_M4_Driver/libMT3620_M4_Driver.a(hdl_uart.c.obj)
 .debug_line    0x00003eec      0x35a lib/MT3620_M4_Driver/libMT3620_M4_Driver.a(mhal_mbox.c.obj)
 .debug_line    0x00004246      0x29f lib/MT3620_M4_Driver/libMT3620_M4_Driver.a(hdl_mbox.c.obj)
 .debug_line    0x000044e5      0x38d lib/MT3620_M4_Driver/libMT3620_M4_Driver.a(mhal_osai.c.obj)
 .debug_line    0x00004872      0x358 lib/MT3620_M4_Driver/lib/MT3620_M4_BSP/libMT3620_M4_BSP.a(nvic.c.obj)
 .debug_line    0x00004bca      0xbc8 lib/MT3620_M4_Driver/lib/MT3620_M4_BSP/libMT3620_M4_BSP.a(cirq_common.c.obj)
 .debug_line    0x00005792      0x1a0 lib/MT3620_M4_Driver/lib/MT3620_M4_BSP/libMT3620_M4_BSP.a(vector_table.c.obj)
 .debug_line    0x00005932       0x7a lib/MT3620_M4_Driver/lib/MT3620_M4_BSP/libMT3620_M4_BSP.a(startup_mt3620.s.obj)
 .debug_line    0x000059ac      0xf0a lib/MT3620_M4_Driver/MT3620_M4_BSP/FreeRTOS/libMT3620_M4_FreeRTOS.a(queue.c.obj)
 .debug_line    0x000068b6     0x14a0 lib/MT3620_M4_Driver/MT3620_M4_BSP/FreeRTOS/libMT3620_M4_FreeRTOS.a(tasks.c.obj)
 .debug_line    0x00007d56      0x722 lib/MT3620_M4_Driver/MT3620_M4_BSP/FreeRTOS/libMT3620_M4_FreeRTOS.a(timers.c.obj)
 .debug_line    0x00008478      0x458 lib/MT3620_M4_Driver/MT3620_M4_BSP/FreeRTOS/libMT3620_M4_FreeRTOS.a(heap_4.c.obj)
 .debug_line    0x000088d0      0x3ee lib/MT3620_M4_Driver/MT3620_M4_BSP/FreeRTOS/libMT3620_M4_FreeRTOS.a(port.c.obj)
 .debug_line    0x00008cbe      0x32e lib/MT3620_M4_Driver/MT3620_M4_BSP/FreeRTOS/libMT3620_M4_FreeRTOS.a(list.c.obj)

.debug_str      0x00000000    0x6b880
 .debug_str     0x00000000      0x7cf CMakeFiles/azure-sphere-combo-cifar10-rtcore.dir/main.c.obj
                                0x8e9 (size before relaxing)
 .debug_str     0x000007cf      0x726 CMakeFiles/azure-sphere-combo-cifar10-rtcore.dir/D_/CareerHack2021/project/source/RTCORE_OS_HAL/src/os_hal_uart.c.obj
                                0xdcc (size before relaxing)
 .debug_str     0x00000ef5      0x757 CMakeFiles/azure-sphere-combo-cifar10-rtcore.dir/D_/CareerHack2021/project/source/RTCORE_OS_HAL/src/os_hal_mbox.c.obj
                                0xe6a (size before relaxing)
 .debug_str     0x0000164c      0x1e6 CMakeFiles/azure-sphere-combo-cifar10-rtcore.dir/D_/CareerHack2021/project/source/RTCORE_OS_HAL/src/os_hal_mbox_shared_mem.c.obj
                                0xa27 (size before relaxing)
 .debug_str     0x00001832      0x19f CMakeFiles/azure-sphere-combo-cifar10-rtcore.dir/D_/CareerHack2021/project/app/lib_src/emergency_detect/emergency-detect.cc.obj
                                0x1fd (size before relaxing)
 .debug_str     0x000019d1    0x66dee CMakeFiles/azure-sphere-combo-cifar10-rtcore.dir/D_/CareerHack2021/project/app/lib_src/emergency_detect/main.cc.obj
                              0x687a5 (size before relaxing)
 .debug_str     0x000687bf      0x178 lib/MT3620_M4_Driver/libMT3620_M4_Driver.a(printf.c.obj)
                                0x3be (size before relaxing)
 .debug_str     0x00068937      0x5e3 lib/MT3620_M4_Driver/libMT3620_M4_Driver.a(mhal_uart.c.obj)
                                0xdca (size before relaxing)
 .debug_str     0x00068f1a      0x258 lib/MT3620_M4_Driver/libMT3620_M4_Driver.a(hdl_uart.c.obj)
                                0x822 (size before relaxing)
 .debug_str     0x00069172      0x12b lib/MT3620_M4_Driver/libMT3620_M4_Driver.a(mhal_mbox.c.obj)
                                0x96f (size before relaxing)
 .debug_str     0x0006929d      0x2b7 lib/MT3620_M4_Driver/libMT3620_M4_Driver.a(hdl_mbox.c.obj)
                                0x892 (size before relaxing)
 .debug_str     0x00069554      0x1d4 lib/MT3620_M4_Driver/libMT3620_M4_Driver.a(mhal_osai.c.obj)
                                0x939 (size before relaxing)
 .debug_str     0x00069728      0x19b lib/MT3620_M4_Driver/lib/MT3620_M4_BSP/libMT3620_M4_BSP.a(nvic.c.obj)
                                0x563 (size before relaxing)
 .debug_str     0x000698c3      0x1c0 lib/MT3620_M4_Driver/lib/MT3620_M4_BSP/libMT3620_M4_BSP.a(cirq_common.c.obj)
                                0x76b (size before relaxing)
 .debug_str     0x00069a83       0x5b lib/MT3620_M4_Driver/lib/MT3620_M4_BSP/libMT3620_M4_BSP.a(vector_table.c.obj)
                                0x211 (size before relaxing)
 .debug_str     0x00069ade       0x4b lib/MT3620_M4_Driver/lib/MT3620_M4_BSP/libMT3620_M4_BSP.a(startup_mt3620.s.obj)
                                 0x8e (size before relaxing)
 .debug_str     0x00069b29      0x726 lib/MT3620_M4_Driver/MT3620_M4_BSP/FreeRTOS/libMT3620_M4_FreeRTOS.a(queue.c.obj)
                                0xd86 (size before relaxing)
 .debug_str     0x0006a24f      0xd22 lib/MT3620_M4_Driver/MT3620_M4_BSP/FreeRTOS/libMT3620_M4_FreeRTOS.a(tasks.c.obj)
                               0x14f0 (size before relaxing)
 .debug_str     0x0006af71      0x47c lib/MT3620_M4_Driver/MT3620_M4_BSP/FreeRTOS/libMT3620_M4_FreeRTOS.a(timers.c.obj)
                                0xb92 (size before relaxing)
 .debug_str     0x0006b3ed      0x1f0 lib/MT3620_M4_Driver/MT3620_M4_BSP/FreeRTOS/libMT3620_M4_FreeRTOS.a(heap_4.c.obj)
                                0x7ce (size before relaxing)
 .debug_str     0x0006b5dd      0x1f1 lib/MT3620_M4_Driver/MT3620_M4_BSP/FreeRTOS/libMT3620_M4_FreeRTOS.a(port.c.obj)
                                0x44c (size before relaxing)
 .debug_str     0x0006b7ce       0xb2 lib/MT3620_M4_Driver/MT3620_M4_BSP/FreeRTOS/libMT3620_M4_FreeRTOS.a(list.c.obj)
                                0x6ef (size before relaxing)

.comment        0x00000000       0xe5
 .comment       0x00000000       0x75 CMakeFiles/azure-sphere-combo-cifar10-rtcore.dir/main.c.obj
                                 0x76 (size before relaxing)
 .comment       0x00000075       0x76 CMakeFiles/azure-sphere-combo-cifar10-rtcore.dir/D_/CareerHack2021/project/source/RTCORE_OS_HAL/src/os_hal_uart.c.obj
 .comment       0x00000075       0x76 CMakeFiles/azure-sphere-combo-cifar10-rtcore.dir/D_/CareerHack2021/project/source/RTCORE_OS_HAL/src/os_hal_mbox.c.obj
 .comment       0x00000075       0x76 CMakeFiles/azure-sphere-combo-cifar10-rtcore.dir/D_/CareerHack2021/project/source/RTCORE_OS_HAL/src/os_hal_mbox_shared_mem.c.obj
 .comment       0x00000075       0x76 CMakeFiles/azure-sphere-combo-cifar10-rtcore.dir/D_/CareerHack2021/project/app/lib_src/emergency_detect/emergency-detect.cc.obj
 .comment       0x00000075       0x76 CMakeFiles/azure-sphere-combo-cifar10-rtcore.dir/D_/CareerHack2021/project/app/lib_src/emergency_detect/main.cc.obj
 .comment       0x00000075       0x76 lib/MT3620_M4_Driver/libMT3620_M4_Driver.a(printf.c.obj)
 .comment       0x00000075       0x76 lib/MT3620_M4_Driver/libMT3620_M4_Driver.a(mhal_uart.c.obj)
 .comment       0x00000075       0x76 lib/MT3620_M4_Driver/libMT3620_M4_Driver.a(hdl_uart.c.obj)
 .comment       0x00000075       0x76 lib/MT3620_M4_Driver/libMT3620_M4_Driver.a(mhal_mbox.c.obj)
 .comment       0x00000075       0x76 lib/MT3620_M4_Driver/libMT3620_M4_Driver.a(hdl_mbox.c.obj)
 .comment       0x00000075       0x76 lib/MT3620_M4_Driver/libMT3620_M4_Driver.a(mhal_osai.c.obj)
 .comment       0x00000075       0x70 ../../../../../../prebuilts/lib/libtensorflow-microlite.a(micro_error_reporter.o)
                                 0x71 (size before relaxing)
 .comment       0x000000e5       0x71 ../../../../../../prebuilts/lib/libtensorflow-microlite.a(micro_interpreter.o)
 .comment       0x000000e5       0x71 ../../../../../../prebuilts/lib/libtensorflow-microlite.a(micro_string.o)
 .comment       0x000000e5       0x71 ../../../../../../prebuilts/lib/libtensorflow-microlite.a(simple_memory_allocator.o)
 .comment       0x000000e5       0x71 ../../../../../../prebuilts/lib/libtensorflow-microlite.a(error_reporter.o)
 .comment       0x000000e5       0x71 ../../../../../../prebuilts/lib/libtensorflow-microlite.a(flatbuffer_conversions.o)
 .comment       0x000000e5       0x71 ../../../../../../prebuilts/lib/libtensorflow-microlite.a(tensor_utils.o)
 .comment       0x000000e5       0x71 ../../../../../../prebuilts/lib/libtensorflow-microlite.a(dynamic_agent.o)
 .comment       0x000000e5       0x71 ../../../../../../prebuilts/lib/libtensorflow-microlite.a(dynamic_context.o)
 .comment       0x000000e5       0x71 ../../../../../../prebuilts/lib/libtensorflow-microlite.a(npu_platform.o)
 .comment       0x000000e5       0x71 ../../../../../../prebuilts/lib/libtensorflow-microlite.a(fully_connected.o)
 .comment       0x000000e5       0x71 ../../../../../../prebuilts/lib/libtensorflow-microlite.a(pooling.o)
 .comment       0x000000e5       0x71 ../../../../../../prebuilts/lib/libtensorflow-microlite.a(reshape.o)
 .comment       0x000000e5       0x71 ../../../../../../prebuilts/lib/libtensorflow-microlite.a(softmax.o)
 .comment       0x000000e5       0x71 ../../../../../../prebuilts/lib/libtensorflow-microlite.a(quantization_util.o)
 .comment       0x000000e5       0x71 ../../../../../../prebuilts/lib/libtensorflow-microlite.a(kernel_util.o)
 .comment       0x000000e5       0x71 ../../../../../../prebuilts/lib/libtensorflow-microlite.a(conv.o)
 .comment       0x000000e5       0x71 ../../../../../../prebuilts/lib/libtensorflow-microlite.a(depthwise_conv.o)
 .comment       0x000000e5       0x71 ../../../../../../prebuilts/lib/libtensorflow-microlite.a(debug_log.o)
 .comment       0x000000e5       0x71 ../../../../../../prebuilts/lib/libtensorflow-microlite.a(memory_helpers.o)
 .comment       0x000000e5       0x71 ../../../../../../prebuilts/lib/libtensorflow-microlite.a(micro_allocator.o)
 .comment       0x000000e5       0x71 ../../../../../../prebuilts/lib/libtensorflow-microlite.a(greedy_memory_planner.o)
 .comment       0x000000e5       0x71 ../../../../../../prebuilts/lib/libtensorflow-microlite.a(common.o)
 .comment       0x000000e5       0x71 ../../../../../../prebuilts/lib/libtensorflow-microlite.a(op_resolver.o)
 .comment       0x000000e5       0x76 ../../../../../../prebuilts/lib/libcmsis.a(arm_convolve_wrapper_s8.o)
 .comment       0x000000e5       0x76 ../../../../../../prebuilts/lib/libcmsis.a(arm_depthwise_conv_s8.o)
 .comment       0x000000e5       0x76 ../../../../../../prebuilts/lib/libcmsis.a(arm_depthwise_conv_s8_opt.o)
 .comment       0x000000e5       0x76 ../../../../../../prebuilts/lib/libcmsis.a(arm_depthwise_conv_u8_basic_ver1.o)
 .comment       0x000000e5       0x76 ../../../../../../prebuilts/lib/libcmsis.a(arm_fully_connected_s8.o)
 .comment       0x000000e5       0x76 ../../../../../../prebuilts/lib/libcmsis.a(arm_nn_vec_mat_mult_t_s8.o)
 .comment       0x000000e5       0x76 ../../../../../../prebuilts/lib/libcmsis.a(arm_q7_to_q15_with_offset.o)
 .comment       0x000000e5       0x76 ../../../../../../prebuilts/lib/libcmsis.a(arm_avgpool_s8.o)
 .comment       0x000000e5       0x76 ../../../../../../prebuilts/lib/libcmsis.a(arm_max_pool_s8_opt.o)
 .comment       0x000000e5       0x76 ../../../../../../prebuilts/lib/libcmsis.a(arm_softmax_s8.o)
 .comment       0x000000e5       0x76 ../../../../../../prebuilts/lib/libcmsis.a(arm_convolve_1x1_s8_fast.o)
 .comment       0x000000e5       0x76 ../../../../../../prebuilts/lib/libcmsis.a(arm_convolve_1_x_n_s8.o)
 .comment       0x000000e5       0x76 ../../../../../../prebuilts/lib/libcmsis.a(arm_convolve_s8.o)
 .comment       0x000000e5       0x76 ../../../../../../prebuilts/lib/libcmsis.a(arm_nn_mat_mult_kernel_s8_s16.o)
 .comment       0x000000e5       0x76 ../../../../../../prebuilts/lib/libcmsis.a(arm_nn_accumulate_q7_to_q15.o)
 .comment       0x000000e5       0x76 ../../../../../../prebuilts/lib/libcmsis.a(arm_nn_mat_mult_nt_t_s8.o)
 .comment       0x000000e5       0x76 ../../../../../../prebuilts/lib/libcmsis.a(arm_q7_to_q15_no_shift.o)
 .comment       0x000000e5       0x76 lib/MT3620_M4_Driver/lib/MT3620_M4_BSP/libMT3620_M4_BSP.a(nvic.c.obj)
 .comment       0x000000e5       0x76 lib/MT3620_M4_Driver/lib/MT3620_M4_BSP/libMT3620_M4_BSP.a(cirq_common.c.obj)
 .comment       0x000000e5       0x76 lib/MT3620_M4_Driver/lib/MT3620_M4_BSP/libMT3620_M4_BSP.a(vector_table.c.obj)
 .comment       0x000000e5       0x76 lib/MT3620_M4_Driver/MT3620_M4_BSP/FreeRTOS/libMT3620_M4_FreeRTOS.a(queue.c.obj)
 .comment       0x000000e5       0x76 lib/MT3620_M4_Driver/MT3620_M4_BSP/FreeRTOS/libMT3620_M4_FreeRTOS.a(tasks.c.obj)
 .comment       0x000000e5       0x76 lib/MT3620_M4_Driver/MT3620_M4_BSP/FreeRTOS/libMT3620_M4_FreeRTOS.a(timers.c.obj)
 .comment       0x000000e5       0x76 lib/MT3620_M4_Driver/MT3620_M4_BSP/FreeRTOS/libMT3620_M4_FreeRTOS.a(heap_4.c.obj)
 .comment       0x000000e5       0x76 lib/MT3620_M4_Driver/MT3620_M4_BSP/FreeRTOS/libMT3620_M4_FreeRTOS.a(port.c.obj)
 .comment       0x000000e5       0x76 lib/MT3620_M4_Driver/MT3620_M4_BSP/FreeRTOS/libMT3620_M4_FreeRTOS.a(list.c.obj)

.ARM.attributes
                0x00000000       0x30
 .ARM.attributes
                0x00000000       0x34 CMakeFiles/azure-sphere-combo-cifar10-rtcore.dir/main.c.obj
 .ARM.attributes
                0x00000034       0x34 CMakeFiles/azure-sphere-combo-cifar10-rtcore.dir/D_/CareerHack2021/project/source/RTCORE_OS_HAL/src/os_hal_uart.c.obj
 .ARM.attributes
                0x00000068       0x34 CMakeFiles/azure-sphere-combo-cifar10-rtcore.dir/D_/CareerHack2021/project/source/RTCORE_OS_HAL/src/os_hal_mbox.c.obj
 .ARM.attributes
                0x0000009c       0x34 CMakeFiles/azure-sphere-combo-cifar10-rtcore.dir/D_/CareerHack2021/project/source/RTCORE_OS_HAL/src/os_hal_mbox_shared_mem.c.obj
 .ARM.attributes
                0x000000d0       0x39 CMakeFiles/azure-sphere-combo-cifar10-rtcore.dir/D_/CareerHack2021/project/app/lib_src/emergency_detect/emergency-detect.cc.obj
 .ARM.attributes
                0x00000109       0x34 CMakeFiles/azure-sphere-combo-cifar10-rtcore.dir/D_/CareerHack2021/project/app/lib_src/emergency_detect/main.cc.obj
 .ARM.attributes
                0x0000013d       0x34 lib/MT3620_M4_Driver/libMT3620_M4_Driver.a(printf.c.obj)
 .ARM.attributes
                0x00000171       0x34 lib/MT3620_M4_Driver/libMT3620_M4_Driver.a(mhal_uart.c.obj)
 .ARM.attributes
                0x000001a5       0x34 lib/MT3620_M4_Driver/libMT3620_M4_Driver.a(hdl_uart.c.obj)
 .ARM.attributes
                0x000001d9       0x34 lib/MT3620_M4_Driver/libMT3620_M4_Driver.a(mhal_mbox.c.obj)
 .ARM.attributes
                0x0000020d       0x34 lib/MT3620_M4_Driver/libMT3620_M4_Driver.a(hdl_mbox.c.obj)
 .ARM.attributes
                0x00000241       0x34 lib/MT3620_M4_Driver/libMT3620_M4_Driver.a(mhal_osai.c.obj)
 .ARM.attributes
                0x00000275       0x39 ../../../../../../prebuilts/lib/libtensorflow-microlite.a(micro_error_reporter.o)
 .ARM.attributes
                0x000002ae       0x39 ../../../../../../prebuilts/lib/libtensorflow-microlite.a(micro_interpreter.o)
 .ARM.attributes
                0x000002e7       0x39 ../../../../../../prebuilts/lib/libtensorflow-microlite.a(micro_string.o)
 .ARM.attributes
                0x00000320       0x39 ../../../../../../prebuilts/lib/libtensorflow-microlite.a(simple_memory_allocator.o)
 .ARM.attributes
                0x00000359       0x39 ../../../../../../prebuilts/lib/libtensorflow-microlite.a(error_reporter.o)
 .ARM.attributes
                0x00000392       0x39 ../../../../../../prebuilts/lib/libtensorflow-microlite.a(flatbuffer_conversions.o)
 .ARM.attributes
                0x000003cb       0x39 ../../../../../../prebuilts/lib/libtensorflow-microlite.a(tensor_utils.o)
 .ARM.attributes
                0x00000404       0x39 ../../../../../../prebuilts/lib/libtensorflow-microlite.a(dynamic_agent.o)
 .ARM.attributes
                0x0000043d       0x39 ../../../../../../prebuilts/lib/libtensorflow-microlite.a(dynamic_context.o)
 .ARM.attributes
                0x00000476       0x39 ../../../../../../prebuilts/lib/libtensorflow-microlite.a(npu_platform.o)
 .ARM.attributes
                0x000004af       0x39 ../../../../../../prebuilts/lib/libtensorflow-microlite.a(fully_connected.o)
 .ARM.attributes
                0x000004e8       0x39 ../../../../../../prebuilts/lib/libtensorflow-microlite.a(pooling.o)
 .ARM.attributes
                0x00000521       0x39 ../../../../../../prebuilts/lib/libtensorflow-microlite.a(reshape.o)
 .ARM.attributes
                0x0000055a       0x39 ../../../../../../prebuilts/lib/libtensorflow-microlite.a(softmax.o)
 .ARM.attributes
                0x00000593       0x39 ../../../../../../prebuilts/lib/libtensorflow-microlite.a(quantization_util.o)
 .ARM.attributes
                0x000005cc       0x39 ../../../../../../prebuilts/lib/libtensorflow-microlite.a(kernel_util.o)
 .ARM.attributes
                0x00000605       0x39 ../../../../../../prebuilts/lib/libtensorflow-microlite.a(conv.o)
 .ARM.attributes
                0x0000063e       0x39 ../../../../../../prebuilts/lib/libtensorflow-microlite.a(depthwise_conv.o)
 .ARM.attributes
                0x00000677       0x39 ../../../../../../prebuilts/lib/libtensorflow-microlite.a(debug_log.o)
 .ARM.attributes
                0x000006b0       0x39 ../../../../../../prebuilts/lib/libtensorflow-microlite.a(memory_helpers.o)
 .ARM.attributes
                0x000006e9       0x39 ../../../../../../prebuilts/lib/libtensorflow-microlite.a(micro_allocator.o)
 .ARM.attributes
                0x00000722       0x39 ../../../../../../prebuilts/lib/libtensorflow-microlite.a(greedy_memory_planner.o)
 .ARM.attributes
                0x0000075b       0x39 ../../../../../../prebuilts/lib/libtensorflow-microlite.a(common.o)
 .ARM.attributes
                0x00000794       0x39 ../../../../../../prebuilts/lib/libtensorflow-microlite.a(op_resolver.o)
 .ARM.attributes
                0x000007cd       0x34 ../../../../../../prebuilts/lib/libcmsis.a(arm_convolve_wrapper_s8.o)
 .ARM.attributes
                0x00000801       0x34 ../../../../../../prebuilts/lib/libcmsis.a(arm_depthwise_conv_s8.o)
 .ARM.attributes
                0x00000835       0x34 ../../../../../../prebuilts/lib/libcmsis.a(arm_depthwise_conv_s8_opt.o)
 .ARM.attributes
                0x00000869       0x34 ../../../../../../prebuilts/lib/libcmsis.a(arm_depthwise_conv_u8_basic_ver1.o)
 .ARM.attributes
                0x0000089d       0x34 ../../../../../../prebuilts/lib/libcmsis.a(arm_fully_connected_s8.o)
 .ARM.attributes
                0x000008d1       0x34 ../../../../../../prebuilts/lib/libcmsis.a(arm_nn_vec_mat_mult_t_s8.o)
 .ARM.attributes
                0x00000905       0x34 ../../../../../../prebuilts/lib/libcmsis.a(arm_q7_to_q15_with_offset.o)
 .ARM.attributes
                0x00000939       0x34 ../../../../../../prebuilts/lib/libcmsis.a(arm_avgpool_s8.o)
 .ARM.attributes
                0x0000096d       0x34 ../../../../../../prebuilts/lib/libcmsis.a(arm_max_pool_s8_opt.o)
 .ARM.attributes
                0x000009a1       0x34 ../../../../../../prebuilts/lib/libcmsis.a(arm_softmax_s8.o)
 .ARM.attributes
                0x000009d5       0x34 ../../../../../../prebuilts/lib/libcmsis.a(arm_convolve_1x1_s8_fast.o)
 .ARM.attributes
                0x00000a09       0x34 ../../../../../../prebuilts/lib/libcmsis.a(arm_convolve_1_x_n_s8.o)
 .ARM.attributes
                0x00000a3d       0x34 ../../../../../../prebuilts/lib/libcmsis.a(arm_convolve_s8.o)
 .ARM.attributes
                0x00000a71       0x34 ../../../../../../prebuilts/lib/libcmsis.a(arm_nn_mat_mult_kernel_s8_s16.o)
 .ARM.attributes
                0x00000aa5       0x34 ../../../../../../prebuilts/lib/libcmsis.a(arm_nn_accumulate_q7_to_q15.o)
 .ARM.attributes
                0x00000ad9       0x34 ../../../../../../prebuilts/lib/libcmsis.a(arm_nn_mat_mult_nt_t_s8.o)
 .ARM.attributes
                0x00000b0d       0x34 ../../../../../../prebuilts/lib/libcmsis.a(arm_q7_to_q15_no_shift.o)
 .ARM.attributes
                0x00000b41       0x34 c:/progra~2/microsoft visual studio/2019/community/linux/gcc_arm/bin/../lib/gcc/arm-none-eabi/8.2.1/../../../../arm-none-eabi/lib/thumb/v7e-m+fp/hard\libstdc++_nano.a(guard.o)
 .ARM.attributes
                0x00000b75       0x34 c:/progra~2/microsoft visual studio/2019/community/linux/gcc_arm/bin/../lib/gcc/arm-none-eabi/8.2.1/../../../../arm-none-eabi/lib/thumb/v7e-m+fp/hard\libstdc++_nano.a(del_op.o)
 .ARM.attributes
                0x00000ba9       0x34 c:/progra~2/microsoft visual studio/2019/community/linux/gcc_arm/bin/../lib/gcc/arm-none-eabi/8.2.1/../../../../arm-none-eabi/lib/thumb/v7e-m+fp/hard\libstdc++_nano.a(pure.o)
 .ARM.attributes
                0x00000bdd       0x34 c:/progra~2/microsoft visual studio/2019/community/linux/gcc_arm/bin/../lib/gcc/arm-none-eabi/8.2.1/../../../../arm-none-eabi/lib/thumb/v7e-m+fp/hard\libstdc++_nano.a(eh_terminate.o)
 .ARM.attributes
                0x00000c11       0x34 c:/progra~2/microsoft visual studio/2019/community/linux/gcc_arm/bin/../lib/gcc/arm-none-eabi/8.2.1/../../../../arm-none-eabi/lib/thumb/v7e-m+fp/hard\libstdc++_nano.a(atexit_arm.o)
 .ARM.attributes
                0x00000c45       0x32 c:/progra~2/microsoft visual studio/2019/community/linux/gcc_arm/bin/../lib/gcc/arm-none-eabi/8.2.1/../../../../arm-none-eabi/lib/thumb/v7e-m+fp/hard\libstdc++_nano.a(eh_term_handler.o)
 .ARM.attributes
                0x00000c77       0x1e c:/progra~2/microsoft visual studio/2019/community/linux/gcc_arm/bin/../lib/gcc/arm-none-eabi/8.2.1/thumb/v7e-m+fp/hard\libgcc.a(_arm_addsubdf3.o)
 .ARM.attributes
                0x00000c95       0x1e c:/progra~2/microsoft visual studio/2019/community/linux/gcc_arm/bin/../lib/gcc/arm-none-eabi/8.2.1/thumb/v7e-m+fp/hard\libgcc.a(_arm_muldivdf3.o)
 .ARM.attributes
                0x00000cb3       0x1e c:/progra~2/microsoft visual studio/2019/community/linux/gcc_arm/bin/../lib/gcc/arm-none-eabi/8.2.1/thumb/v7e-m+fp/hard\libgcc.a(_arm_cmpdf2.o)
 .ARM.attributes
                0x00000cd1       0x1e c:/progra~2/microsoft visual studio/2019/community/linux/gcc_arm/bin/../lib/gcc/arm-none-eabi/8.2.1/thumb/v7e-m+fp/hard\libgcc.a(_arm_fixdfsi.o)
 .ARM.attributes
                0x00000cef       0x1e c:/progra~2/microsoft visual studio/2019/community/linux/gcc_arm/bin/../lib/gcc/arm-none-eabi/8.2.1/thumb/v7e-m+fp/hard\libgcc.a(_arm_fixunsdfsi.o)
 .ARM.attributes
                0x00000d0d       0x1e c:/progra~2/microsoft visual studio/2019/community/linux/gcc_arm/bin/../lib/gcc/arm-none-eabi/8.2.1/thumb/v7e-m+fp/hard\libgcc.a(_arm_truncdfsf2.o)
 .ARM.attributes
                0x00000d2b       0x1e c:/progra~2/microsoft visual studio/2019/community/linux/gcc_arm/bin/../lib/gcc/arm-none-eabi/8.2.1/thumb/v7e-m+fp/hard\libgcc.a(_aeabi_uldivmod.o)
 .ARM.attributes
                0x00000d49       0x34 c:/progra~2/microsoft visual studio/2019/community/linux/gcc_arm/bin/../lib/gcc/arm-none-eabi/8.2.1/thumb/v7e-m+fp/hard\libgcc.a(_fixdfdi.o)
 .ARM.attributes
                0x00000d7d       0x34 c:/progra~2/microsoft visual studio/2019/community/linux/gcc_arm/bin/../lib/gcc/arm-none-eabi/8.2.1/thumb/v7e-m+fp/hard\libgcc.a(_fixunsdfdi.o)
 .ARM.attributes
                0x00000db1       0x34 c:/progra~2/microsoft visual studio/2019/community/linux/gcc_arm/bin/../lib/gcc/arm-none-eabi/8.2.1/thumb/v7e-m+fp/hard\libgcc.a(_udivmoddi4.o)
 .ARM.attributes
                0x00000de5       0x1e c:/progra~2/microsoft visual studio/2019/community/linux/gcc_arm/bin/../lib/gcc/arm-none-eabi/8.2.1/thumb/v7e-m+fp/hard\libgcc.a(_dvmd_tls.o)
 .ARM.attributes
                0x00000e03       0x34 lib/MT3620_M4_Driver/lib/MT3620_M4_BSP/libMT3620_M4_BSP.a(nvic.c.obj)
 .ARM.attributes
                0x00000e37       0x34 lib/MT3620_M4_Driver/lib/MT3620_M4_BSP/libMT3620_M4_BSP.a(cirq_common.c.obj)
 .ARM.attributes
                0x00000e6b       0x34 lib/MT3620_M4_Driver/lib/MT3620_M4_BSP/libMT3620_M4_BSP.a(vector_table.c.obj)
 .ARM.attributes
                0x00000e9f       0x1b lib/MT3620_M4_Driver/lib/MT3620_M4_BSP/libMT3620_M4_BSP.a(startup_mt3620.s.obj)
 .ARM.attributes
                0x00000eba       0x34 lib/MT3620_M4_Driver/MT3620_M4_BSP/FreeRTOS/libMT3620_M4_FreeRTOS.a(queue.c.obj)
 .ARM.attributes
                0x00000eee       0x34 lib/MT3620_M4_Driver/MT3620_M4_BSP/FreeRTOS/libMT3620_M4_FreeRTOS.a(tasks.c.obj)
 .ARM.attributes
                0x00000f22       0x34 lib/MT3620_M4_Driver/MT3620_M4_BSP/FreeRTOS/libMT3620_M4_FreeRTOS.a(timers.c.obj)
 .ARM.attributes
                0x00000f56       0x34 lib/MT3620_M4_Driver/MT3620_M4_BSP/FreeRTOS/libMT3620_M4_FreeRTOS.a(heap_4.c.obj)
 .ARM.attributes
                0x00000f8a       0x34 lib/MT3620_M4_Driver/MT3620_M4_BSP/FreeRTOS/libMT3620_M4_FreeRTOS.a(port.c.obj)
 .ARM.attributes
                0x00000fbe       0x34 lib/MT3620_M4_Driver/MT3620_M4_BSP/FreeRTOS/libMT3620_M4_FreeRTOS.a(list.c.obj)
 .ARM.attributes
                0x00000ff2       0x34 c:/progra~2/microsoft visual studio/2019/community/linux/gcc_arm/bin/../lib/gcc/arm-none-eabi/8.2.1/../../../../arm-none-eabi/lib/thumb/v7e-m+fp/hard\libm.a(lib_a-s_floor.o)
 .ARM.attributes
                0x00001026       0x34 c:/progra~2/microsoft visual studio/2019/community/linux/gcc_arm/bin/../lib/gcc/arm-none-eabi/8.2.1/../../../../arm-none-eabi/lib/thumb/v7e-m+fp/hard\libm.a(lib_a-s_frexp.o)
 .ARM.attributes
                0x0000105a       0x34 c:/progra~2/microsoft visual studio/2019/community/linux/gcc_arm/bin/../lib/gcc/arm-none-eabi/8.2.1/../../../../arm-none-eabi/lib/thumb/v7e-m+fp/hard\libm.a(lib_a-s_round.o)
 .ARM.attributes
                0x0000108e       0x34 c:/progra~2/microsoft visual studio/2019/community/linux/gcc_arm/bin/../lib/gcc/arm-none-eabi/8.2.1/../../../../arm-none-eabi/lib/thumb/v7e-m+fp/hard\libm.a(lib_a-wf_exp.o)
 .ARM.attributes
                0x000010c2       0x34 c:/progra~2/microsoft visual studio/2019/community/linux/gcc_arm/bin/../lib/gcc/arm-none-eabi/8.2.1/../../../../arm-none-eabi/lib/thumb/v7e-m+fp/hard\libm.a(lib_a-ef_exp.o)
 .ARM.attributes
                0x000010f6       0x32 c:/progra~2/microsoft visual studio/2019/community/linux/gcc_arm/bin/../lib/gcc/arm-none-eabi/8.2.1/../../../../arm-none-eabi/lib/thumb/v7e-m+fp/hard\libm.a(lib_a-s_lib_ver.o)
 .ARM.attributes
                0x00001128       0x34 c:/progra~2/microsoft visual studio/2019/community/linux/gcc_arm/bin/../lib/gcc/arm-none-eabi/8.2.1/../../../../arm-none-eabi/lib/thumb/v7e-m+fp/hard\libm.a(lib_a-s_matherr.o)
 .ARM.attributes
                0x0000115c       0x34 c:/progra~2/microsoft visual studio/2019/community/linux/gcc_arm/bin/../lib/gcc/arm-none-eabi/8.2.1/../../../../arm-none-eabi/lib/thumb/v7e-m+fp/hard\libm.a(lib_a-sf_finite.o)
 .ARM.attributes
                0x00001190       0x34 c:/progra~2/microsoft visual studio/2019/community/linux/gcc_arm/bin/../lib/gcc/arm-none-eabi/8.2.1/../../../../arm-none-eabi/lib/thumb/v7e-m+fp/hard\libc_nano.a(lib_a-abort.o)
 .ARM.attributes
                0x000011c4       0x34 c:/progra~2/microsoft visual studio/2019/community/linux/gcc_arm/bin/../lib/gcc/arm-none-eabi/8.2.1/../../../../arm-none-eabi/lib/thumb/v7e-m+fp/hard\libc_nano.a(lib_a-cxa_atexit.o)
 .ARM.attributes
                0x000011f8       0x34 c:/progra~2/microsoft visual studio/2019/community/linux/gcc_arm/bin/../lib/gcc/arm-none-eabi/8.2.1/../../../../arm-none-eabi/lib/thumb/v7e-m+fp/hard\libc_nano.a(lib_a-errno.o)
 .ARM.attributes
                0x0000122c       0x32 c:/progra~2/microsoft visual studio/2019/community/linux/gcc_arm/bin/../lib/gcc/arm-none-eabi/8.2.1/../../../../arm-none-eabi/lib/thumb/v7e-m+fp/hard\libc_nano.a(lib_a-impure.o)
 .ARM.attributes
                0x0000125e       0x34 c:/progra~2/microsoft visual studio/2019/community/linux/gcc_arm/bin/../lib/gcc/arm-none-eabi/8.2.1/../../../../arm-none-eabi/lib/thumb/v7e-m+fp/hard\libc_nano.a(lib_a-malloc.o)
 .ARM.attributes
                0x00001292       0x34 c:/progra~2/microsoft visual studio/2019/community/linux/gcc_arm/bin/../lib/gcc/arm-none-eabi/8.2.1/../../../../arm-none-eabi/lib/thumb/v7e-m+fp/hard\libc_nano.a(lib_a-memcpy-stub.o)
 .ARM.attributes
                0x000012c6       0x34 c:/progra~2/microsoft visual studio/2019/community/linux/gcc_arm/bin/../lib/gcc/arm-none-eabi/8.2.1/../../../../arm-none-eabi/lib/thumb/v7e-m+fp/hard\libc_nano.a(lib_a-memmove.o)
 .ARM.attributes
                0x000012fa       0x34 c:/progra~2/microsoft visual studio/2019/community/linux/gcc_arm/bin/../lib/gcc/arm-none-eabi/8.2.1/../../../../arm-none-eabi/lib/thumb/v7e-m+fp/hard\libc_nano.a(lib_a-memset.o)
 .ARM.attributes
                0x0000132e       0x34 c:/progra~2/microsoft visual studio/2019/community/linux/gcc_arm/bin/../lib/gcc/arm-none-eabi/8.2.1/../../../../arm-none-eabi/lib/thumb/v7e-m+fp/hard\libc_nano.a(lib_a-nano-freer.o)
 .ARM.attributes
                0x00001362       0x34 c:/progra~2/microsoft visual studio/2019/community/linux/gcc_arm/bin/../lib/gcc/arm-none-eabi/8.2.1/../../../../arm-none-eabi/lib/thumb/v7e-m+fp/hard\libc_nano.a(lib_a-nano-mallocr.o)
 .ARM.attributes
                0x00001396       0x34 c:/progra~2/microsoft visual studio/2019/community/linux/gcc_arm/bin/../lib/gcc/arm-none-eabi/8.2.1/../../../../arm-none-eabi/lib/thumb/v7e-m+fp/hard\libc_nano.a(lib_a-signal.o)
 .ARM.attributes
                0x000013ca       0x34 c:/progra~2/microsoft visual studio/2019/community/linux/gcc_arm/bin/../lib/gcc/arm-none-eabi/8.2.1/../../../../arm-none-eabi/lib/thumb/v7e-m+fp/hard\libc_nano.a(lib_a-signalr.o)
 .ARM.attributes
                0x000013fe       0x1c c:/progra~2/microsoft visual studio/2019/community/linux/gcc_arm/bin/../lib/gcc/arm-none-eabi/8.2.1/../../../../arm-none-eabi/lib/thumb/v7e-m+fp/hard\libc_nano.a(lib_a-strcmp.o)
 .ARM.attributes
                0x0000141a       0x34 c:/progra~2/microsoft visual studio/2019/community/linux/gcc_arm/bin/../lib/gcc/arm-none-eabi/8.2.1/../../../../arm-none-eabi/lib/thumb/v7e-m+fp/hard\libc_nano.a(lib_a-mlock.o)
 .ARM.attributes
                0x0000144e       0x34 c:/progra~2/microsoft visual studio/2019/community/linux/gcc_arm/bin/../lib/gcc/arm-none-eabi/8.2.1/../../../../arm-none-eabi/lib/thumb/v7e-m+fp/hard\libc_nano.a(lib_a-reent.o)
 .ARM.attributes
                0x00001482       0x34 c:/progra~2/microsoft visual studio/2019/community/linux/gcc_arm/bin/../lib/gcc/arm-none-eabi/8.2.1/../../../../arm-none-eabi/lib/thumb/v7e-m+fp/hard\libc_nano.a(lib_a-lock.o)
 .ARM.attributes
                0x000014b6       0x34 c:/progra~2/microsoft visual studio/2019/community/linux/gcc_arm/bin/../lib/gcc/arm-none-eabi/8.2.1/../../../../arm-none-eabi/lib/thumb/v7e-m+fp/hard\libnosys.a(getpid.o)
 .ARM.attributes
                0x000014ea       0x34 c:/progra~2/microsoft visual studio/2019/community/linux/gcc_arm/bin/../lib/gcc/arm-none-eabi/8.2.1/../../../../arm-none-eabi/lib/thumb/v7e-m+fp/hard\libnosys.a(kill.o)
 .ARM.attributes
                0x0000151e       0x34 c:/progra~2/microsoft visual studio/2019/community/linux/gcc_arm/bin/../lib/gcc/arm-none-eabi/8.2.1/../../../../arm-none-eabi/lib/thumb/v7e-m+fp/hard\libnosys.a(_exit.o)

.debug_frame    0x00000000     0x4354
 .debug_frame   0x00000000      0x124 CMakeFiles/azure-sphere-combo-cifar10-rtcore.dir/main.c.obj
 .debug_frame   0x00000124      0x2ec CMakeFiles/azure-sphere-combo-cifar10-rtcore.dir/D_/CareerHack2021/project/source/RTCORE_OS_HAL/src/os_hal_uart.c.obj
 .debug_frame   0x00000410      0x2b0 CMakeFiles/azure-sphere-combo-cifar10-rtcore.dir/D_/CareerHack2021/project/source/RTCORE_OS_HAL/src/os_hal_mbox.c.obj
 .debug_frame   0x000006c0      0x168 CMakeFiles/azure-sphere-combo-cifar10-rtcore.dir/D_/CareerHack2021/project/source/RTCORE_OS_HAL/src/os_hal_mbox_shared_mem.c.obj
 .debug_frame   0x00000828      0x5c8 CMakeFiles/azure-sphere-combo-cifar10-rtcore.dir/D_/CareerHack2021/project/app/lib_src/emergency_detect/main.cc.obj
 .debug_frame   0x00000df0      0x378 lib/MT3620_M4_Driver/libMT3620_M4_Driver.a(printf.c.obj)
 .debug_frame   0x00001168      0x4a4 lib/MT3620_M4_Driver/libMT3620_M4_Driver.a(mhal_uart.c.obj)
 .debug_frame   0x0000160c      0x254 lib/MT3620_M4_Driver/libMT3620_M4_Driver.a(hdl_uart.c.obj)
 .debug_frame   0x00001860       0xf4 lib/MT3620_M4_Driver/libMT3620_M4_Driver.a(mhal_mbox.c.obj)
 .debug_frame   0x00001954      0x394 lib/MT3620_M4_Driver/libMT3620_M4_Driver.a(hdl_mbox.c.obj)
 .debug_frame   0x00001ce8      0x300 lib/MT3620_M4_Driver/libMT3620_M4_Driver.a(mhal_osai.c.obj)
 .debug_frame   0x00001fe8       0x40 c:/progra~2/microsoft visual studio/2019/community/linux/gcc_arm/bin/../lib/gcc/arm-none-eabi/8.2.1/../../../../arm-none-eabi/lib/thumb/v7e-m+fp/hard\libstdc++_nano.a(guard.o)
 .debug_frame   0x00002028       0x20 c:/progra~2/microsoft visual studio/2019/community/linux/gcc_arm/bin/../lib/gcc/arm-none-eabi/8.2.1/../../../../arm-none-eabi/lib/thumb/v7e-m+fp/hard\libstdc++_nano.a(del_op.o)
 .debug_frame   0x00002048       0x40 c:/progra~2/microsoft visual studio/2019/community/linux/gcc_arm/bin/../lib/gcc/arm-none-eabi/8.2.1/../../../../arm-none-eabi/lib/thumb/v7e-m+fp/hard\libstdc++_nano.a(pure.o)
 .debug_frame   0x00002088       0xb0 c:/progra~2/microsoft visual studio/2019/community/linux/gcc_arm/bin/../lib/gcc/arm-none-eabi/8.2.1/../../../../arm-none-eabi/lib/thumb/v7e-m+fp/hard\libstdc++_nano.a(eh_terminate.o)
 .debug_frame   0x00002138       0x20 c:/progra~2/microsoft visual studio/2019/community/linux/gcc_arm/bin/../lib/gcc/arm-none-eabi/8.2.1/../../../../arm-none-eabi/lib/thumb/v7e-m+fp/hard\libstdc++_nano.a(atexit_arm.o)
 .debug_frame   0x00002158       0xac c:/progra~2/microsoft visual studio/2019/community/linux/gcc_arm/bin/../lib/gcc/arm-none-eabi/8.2.1/thumb/v7e-m+fp/hard\libgcc.a(_arm_addsubdf3.o)
 .debug_frame   0x00002204       0x50 c:/progra~2/microsoft visual studio/2019/community/linux/gcc_arm/bin/../lib/gcc/arm-none-eabi/8.2.1/thumb/v7e-m+fp/hard\libgcc.a(_arm_muldivdf3.o)
 .debug_frame   0x00002254       0xc4 c:/progra~2/microsoft visual studio/2019/community/linux/gcc_arm/bin/../lib/gcc/arm-none-eabi/8.2.1/thumb/v7e-m+fp/hard\libgcc.a(_arm_cmpdf2.o)
 .debug_frame   0x00002318       0x24 c:/progra~2/microsoft visual studio/2019/community/linux/gcc_arm/bin/../lib/gcc/arm-none-eabi/8.2.1/thumb/v7e-m+fp/hard\libgcc.a(_arm_fixdfsi.o)
 .debug_frame   0x0000233c       0x24 c:/progra~2/microsoft visual studio/2019/community/linux/gcc_arm/bin/../lib/gcc/arm-none-eabi/8.2.1/thumb/v7e-m+fp/hard\libgcc.a(_arm_fixunsdfsi.o)
 .debug_frame   0x00002360       0x24 c:/progra~2/microsoft visual studio/2019/community/linux/gcc_arm/bin/../lib/gcc/arm-none-eabi/8.2.1/thumb/v7e-m+fp/hard\libgcc.a(_arm_truncdfsf2.o)
 .debug_frame   0x00002384       0x2c c:/progra~2/microsoft visual studio/2019/community/linux/gcc_arm/bin/../lib/gcc/arm-none-eabi/8.2.1/thumb/v7e-m+fp/hard\libgcc.a(_aeabi_uldivmod.o)
 .debug_frame   0x000023b0       0x38 c:/progra~2/microsoft visual studio/2019/community/linux/gcc_arm/bin/../lib/gcc/arm-none-eabi/8.2.1/thumb/v7e-m+fp/hard\libgcc.a(_fixdfdi.o)
 .debug_frame   0x000023e8       0x2c c:/progra~2/microsoft visual studio/2019/community/linux/gcc_arm/bin/../lib/gcc/arm-none-eabi/8.2.1/thumb/v7e-m+fp/hard\libgcc.a(_fixunsdfdi.o)
 .debug_frame   0x00002414       0x34 c:/progra~2/microsoft visual studio/2019/community/linux/gcc_arm/bin/../lib/gcc/arm-none-eabi/8.2.1/thumb/v7e-m+fp/hard\libgcc.a(_udivmoddi4.o)
 .debug_frame   0x00002448      0x250 lib/MT3620_M4_Driver/lib/MT3620_M4_BSP/libMT3620_M4_BSP.a(nvic.c.obj)
 .debug_frame   0x00002698      0x218 lib/MT3620_M4_Driver/lib/MT3620_M4_BSP/libMT3620_M4_BSP.a(cirq_common.c.obj)
 .debug_frame   0x000028b0       0x28 lib/MT3620_M4_Driver/lib/MT3620_M4_BSP/libMT3620_M4_BSP.a(vector_table.c.obj)
 .debug_frame   0x000028d8      0x530 lib/MT3620_M4_Driver/MT3620_M4_BSP/FreeRTOS/libMT3620_M4_FreeRTOS.a(queue.c.obj)
 .debug_frame   0x00002e08      0x8e4 lib/MT3620_M4_Driver/MT3620_M4_BSP/FreeRTOS/libMT3620_M4_FreeRTOS.a(tasks.c.obj)
 .debug_frame   0x000036ec      0x368 lib/MT3620_M4_Driver/MT3620_M4_BSP/FreeRTOS/libMT3620_M4_FreeRTOS.a(timers.c.obj)
 .debug_frame   0x00003a54      0x108 lib/MT3620_M4_Driver/MT3620_M4_BSP/FreeRTOS/libMT3620_M4_FreeRTOS.a(heap_4.c.obj)
 .debug_frame   0x00003b5c      0x1a8 lib/MT3620_M4_Driver/MT3620_M4_BSP/FreeRTOS/libMT3620_M4_FreeRTOS.a(port.c.obj)
 .debug_frame   0x00003d04       0xd8 lib/MT3620_M4_Driver/MT3620_M4_BSP/FreeRTOS/libMT3620_M4_FreeRTOS.a(list.c.obj)
 .debug_frame   0x00003ddc       0x30 c:/progra~2/microsoft visual studio/2019/community/linux/gcc_arm/bin/../lib/gcc/arm-none-eabi/8.2.1/../../../../arm-none-eabi/lib/thumb/v7e-m+fp/hard\libm.a(lib_a-s_floor.o)
 .debug_frame   0x00003e0c       0x2c c:/progra~2/microsoft visual studio/2019/community/linux/gcc_arm/bin/../lib/gcc/arm-none-eabi/8.2.1/../../../../arm-none-eabi/lib/thumb/v7e-m+fp/hard\libm.a(lib_a-s_frexp.o)
 .debug_frame   0x00003e38       0x2c c:/progra~2/microsoft visual studio/2019/community/linux/gcc_arm/bin/../lib/gcc/arm-none-eabi/8.2.1/../../../../arm-none-eabi/lib/thumb/v7e-m+fp/hard\libm.a(lib_a-s_round.o)
 .debug_frame   0x00003e64       0x54 c:/progra~2/microsoft visual studio/2019/community/linux/gcc_arm/bin/../lib/gcc/arm-none-eabi/8.2.1/../../../../arm-none-eabi/lib/thumb/v7e-m+fp/hard\libm.a(lib_a-wf_exp.o)
 .debug_frame   0x00003eb8       0x20 c:/progra~2/microsoft visual studio/2019/community/linux/gcc_arm/bin/../lib/gcc/arm-none-eabi/8.2.1/../../../../arm-none-eabi/lib/thumb/v7e-m+fp/hard\libm.a(lib_a-ef_exp.o)
 .debug_frame   0x00003ed8       0x20 c:/progra~2/microsoft visual studio/2019/community/linux/gcc_arm/bin/../lib/gcc/arm-none-eabi/8.2.1/../../../../arm-none-eabi/lib/thumb/v7e-m+fp/hard\libm.a(lib_a-s_matherr.o)
 .debug_frame   0x00003ef8       0x20 c:/progra~2/microsoft visual studio/2019/community/linux/gcc_arm/bin/../lib/gcc/arm-none-eabi/8.2.1/../../../../arm-none-eabi/lib/thumb/v7e-m+fp/hard\libm.a(lib_a-sf_finite.o)
 .debug_frame   0x00003f18       0x28 c:/progra~2/microsoft visual studio/2019/community/linux/gcc_arm/bin/../lib/gcc/arm-none-eabi/8.2.1/../../../../arm-none-eabi/lib/thumb/v7e-m+fp/hard\libc_nano.a(lib_a-abort.o)
 .debug_frame   0x00003f40       0x28 c:/progra~2/microsoft visual studio/2019/community/linux/gcc_arm/bin/../lib/gcc/arm-none-eabi/8.2.1/../../../../arm-none-eabi/lib/thumb/v7e-m+fp/hard\libc_nano.a(lib_a-cxa_atexit.o)
 .debug_frame   0x00003f68       0x20 c:/progra~2/microsoft visual studio/2019/community/linux/gcc_arm/bin/../lib/gcc/arm-none-eabi/8.2.1/../../../../arm-none-eabi/lib/thumb/v7e-m+fp/hard\libc_nano.a(lib_a-errno.o)
 .debug_frame   0x00003f88       0x30 c:/progra~2/microsoft visual studio/2019/community/linux/gcc_arm/bin/../lib/gcc/arm-none-eabi/8.2.1/../../../../arm-none-eabi/lib/thumb/v7e-m+fp/hard\libc_nano.a(lib_a-malloc.o)
 .debug_frame   0x00003fb8       0x28 c:/progra~2/microsoft visual studio/2019/community/linux/gcc_arm/bin/../lib/gcc/arm-none-eabi/8.2.1/../../../../arm-none-eabi/lib/thumb/v7e-m+fp/hard\libc_nano.a(lib_a-memcpy-stub.o)
 .debug_frame   0x00003fe0       0x28 c:/progra~2/microsoft visual studio/2019/community/linux/gcc_arm/bin/../lib/gcc/arm-none-eabi/8.2.1/../../../../arm-none-eabi/lib/thumb/v7e-m+fp/hard\libc_nano.a(lib_a-memmove.o)
 .debug_frame   0x00004008       0x20 c:/progra~2/microsoft visual studio/2019/community/linux/gcc_arm/bin/../lib/gcc/arm-none-eabi/8.2.1/../../../../arm-none-eabi/lib/thumb/v7e-m+fp/hard\libc_nano.a(lib_a-memset.o)
 .debug_frame   0x00004028       0x38 c:/progra~2/microsoft visual studio/2019/community/linux/gcc_arm/bin/../lib/gcc/arm-none-eabi/8.2.1/../../../../arm-none-eabi/lib/thumb/v7e-m+fp/hard\libc_nano.a(lib_a-nano-freer.o)
 .debug_frame   0x00004060       0x30 c:/progra~2/microsoft visual studio/2019/community/linux/gcc_arm/bin/../lib/gcc/arm-none-eabi/8.2.1/../../../../arm-none-eabi/lib/thumb/v7e-m+fp/hard\libc_nano.a(lib_a-nano-mallocr.o)
 .debug_frame   0x00004090       0xcc c:/progra~2/microsoft visual studio/2019/community/linux/gcc_arm/bin/../lib/gcc/arm-none-eabi/8.2.1/../../../../arm-none-eabi/lib/thumb/v7e-m+fp/hard\libc_nano.a(lib_a-signal.o)
 .debug_frame   0x0000415c       0x3c c:/progra~2/microsoft visual studio/2019/community/linux/gcc_arm/bin/../lib/gcc/arm-none-eabi/8.2.1/../../../../arm-none-eabi/lib/thumb/v7e-m+fp/hard\libc_nano.a(lib_a-signalr.o)
 .debug_frame   0x00004198       0x20 c:/progra~2/microsoft visual studio/2019/community/linux/gcc_arm/bin/../lib/gcc/arm-none-eabi/8.2.1/../../../../arm-none-eabi/lib/thumb/v7e-m+fp/hard\libc_nano.a(lib_a-strcmp.o)
 .debug_frame   0x000041b8       0x30 c:/progra~2/microsoft visual studio/2019/community/linux/gcc_arm/bin/../lib/gcc/arm-none-eabi/8.2.1/../../../../arm-none-eabi/lib/thumb/v7e-m+fp/hard\libc_nano.a(lib_a-mlock.o)
 .debug_frame   0x000041e8       0x5c c:/progra~2/microsoft visual studio/2019/community/linux/gcc_arm/bin/../lib/gcc/arm-none-eabi/8.2.1/../../../../arm-none-eabi/lib/thumb/v7e-m+fp/hard\libc_nano.a(lib_a-reent.o)
 .debug_frame   0x00004244       0xb0 c:/progra~2/microsoft visual studio/2019/community/linux/gcc_arm/bin/../lib/gcc/arm-none-eabi/8.2.1/../../../../arm-none-eabi/lib/thumb/v7e-m+fp/hard\libc_nano.a(lib_a-lock.o)
 .debug_frame   0x000042f4       0x20 c:/progra~2/microsoft visual studio/2019/community/linux/gcc_arm/bin/../lib/gcc/arm-none-eabi/8.2.1/../../../../arm-none-eabi/lib/thumb/v7e-m+fp/hard\libnosys.a(getpid.o)
 .debug_frame   0x00004314       0x20 c:/progra~2/microsoft visual studio/2019/community/linux/gcc_arm/bin/../lib/gcc/arm-none-eabi/8.2.1/../../../../arm-none-eabi/lib/thumb/v7e-m+fp/hard\libnosys.a(kill.o)
 .debug_frame   0x00004334       0x20 c:/progra~2/microsoft visual studio/2019/community/linux/gcc_arm/bin/../lib/gcc/arm-none-eabi/8.2.1/../../../../arm-none-eabi/lib/thumb/v7e-m+fp/hard\libnosys.a(_exit.o)

.debug_ranges   0x00000000      0x140
 .debug_ranges  0x00000000      0x140 CMakeFiles/azure-sphere-combo-cifar10-rtcore.dir/D_/CareerHack2021/project/app/lib_src/emergency_detect/main.cc.obj

.stab           0x00000000       0x3c
 .stab          0x00000000       0x24 c:/progra~2/microsoft visual studio/2019/community/linux/gcc_arm/bin/../lib/gcc/arm-none-eabi/8.2.1/../../../../arm-none-eabi/lib/thumb/v7e-m+fp/hard\libnosys.a(getpid.o)
 .stab          0x00000024       0x18 c:/progra~2/microsoft visual studio/2019/community/linux/gcc_arm/bin/../lib/gcc/arm-none-eabi/8.2.1/../../../../arm-none-eabi/lib/thumb/v7e-m+fp/hard\libnosys.a(kill.o)
                                 0x24 (size before relaxing)

.stabstr        0x00000000       0x76
 .stabstr       0x00000000       0x76 c:/progra~2/microsoft visual studio/2019/community/linux/gcc_arm/bin/../lib/gcc/arm-none-eabi/8.2.1/../../../../arm-none-eabi/lib/thumb/v7e-m+fp/hard\libnosys.a(getpid.o)
