Archive member included to satisfy reference by file (symbol)

lib/MT3620_M4_Driver/libMT3620_M4_Driver.a(printf.c.obj)
                              CMakeFiles/azure-sphere-combo-cifar10-rtcore.dir/main.c.obj (printf_)
lib/MT3620_M4_Driver/libMT3620_M4_Driver.a(mhal_gpio.c.obj)
                              CMakeFiles/azure-sphere-combo-cifar10-rtcore.dir/f0775b8a0a1a4f21b831569dbc2a2e8d/project/source/RTCORE_OS_HAL/src/os_hal_gpio.c.obj (mtk_mhal_gpio_get_input)
lib/MT3620_M4_Driver/libMT3620_M4_Driver.a(hdl_gpio.c.obj)
                              lib/MT3620_M4_Driver/libMT3620_M4_Driver.a(mhal_gpio.c.obj) (mtk_hdl_gpio_modify_reg)
lib/MT3620_M4_Driver/libMT3620_M4_Driver.a(mhal_uart.c.obj)
                              CMakeFiles/azure-sphere-combo-cifar10-rtcore.dir/f0775b8a0a1a4f21b831569dbc2a2e8d/project/source/RTCORE_OS_HAL/src/os_hal_uart.c.obj (mtk_mhal_uart_enable_clk)
lib/MT3620_M4_Driver/libMT3620_M4_Driver.a(hdl_uart.c.obj)
                              lib/MT3620_M4_Driver/libMT3620_M4_Driver.a(mhal_uart.c.obj) (mtk_hdl_uart_cg_config)
lib/MT3620_M4_Driver/libMT3620_M4_Driver.a(mhal_mbox.c.obj)
                              CMakeFiles/azure-sphere-combo-cifar10-rtcore.dir/f0775b8a0a1a4f21b831569dbc2a2e8d/project/source/RTCORE_OS_HAL/src/os_hal_mbox.c.obj (mtk_mhal_mbox_reset)
lib/MT3620_M4_Driver/libMT3620_M4_Driver.a(hdl_mbox.c.obj)
                              lib/MT3620_M4_Driver/libMT3620_M4_Driver.a(mhal_mbox.c.obj) (mtk_hdl_mbox_sem_post)
lib/MT3620_M4_Driver/libMT3620_M4_Driver.a(mhal_osai.c.obj)
                              lib/MT3620_M4_Driver/libMT3620_M4_Driver.a(hdl_gpio.c.obj) (osai_readl)
../../../../../../prebuilts/lib/libtensorflow-microlite.a(micro_error_reporter.o)
                              CMakeFiles/azure-sphere-combo-cifar10-rtcore.dir/f0775b8a0a1a4f21b831569dbc2a2e8d/project/app/lib_src/emergency_detect/main.cc.obj (vtable for tflite::MicroErrorReporter)
../../../../../../prebuilts/lib/libtensorflow-microlite.a(micro_interpreter.o)
                              CMakeFiles/azure-sphere-combo-cifar10-rtcore.dir/f0775b8a0a1a4f21b831569dbc2a2e8d/project/app/lib_src/emergency_detect/main.cc.obj (tflite::MicroInterpreter::~MicroInterpreter())
../../../../../../prebuilts/lib/libtensorflow-microlite.a(micro_string.o)
                              ../../../../../../prebuilts/lib/libtensorflow-microlite.a(micro_error_reporter.o) (MicroVsnprintf)
../../../../../../prebuilts/lib/libtensorflow-microlite.a(simple_memory_allocator.o)
                              ../../../../../../prebuilts/lib/libtensorflow-microlite.a(micro_interpreter.o) (tflite::SimpleMemoryAllocator::GetHead() const)
../../../../../../prebuilts/lib/libtensorflow-microlite.a(error_reporter.o)
                              CMakeFiles/azure-sphere-combo-cifar10-rtcore.dir/f0775b8a0a1a4f21b831569dbc2a2e8d/project/app/lib_src/emergency_detect/main.cc.obj (tflite::ErrorReporter::Report(char const*, ...))
../../../../../../prebuilts/lib/libtensorflow-microlite.a(flatbuffer_conversions.o)
                              CMakeFiles/azure-sphere-combo-cifar10-rtcore.dir/f0775b8a0a1a4f21b831569dbc2a2e8d/project/app/lib_src/emergency_detect/main.cc.obj (tflite::ParseOpData(tflite::Operator const*, tflite::BuiltinOperator, tflite::ErrorReporter*, tflite::BuiltinDataAllocator*, void**))
../../../../../../prebuilts/lib/libtensorflow-microlite.a(tensor_utils.o)
                              ../../../../../../prebuilts/lib/libtensorflow-microlite.a(micro_interpreter.o) (tflite::ResetVariableTensor(TfLiteTensor*))
../../../../../../prebuilts/lib/libtensorflow-microlite.a(dynamic_agent.o)
                              ../../../../../../prebuilts/lib/libtensorflow-microlite.a(micro_interpreter.o) (tflite::DynamicAgent::Init(TfLiteContext&, tflite::ErrorReporter*, unsigned char*, unsigned int))
../../../../../../prebuilts/lib/libtensorflow-microlite.a(dynamic_context.o)
                              ../../../../../../prebuilts/lib/libtensorflow-microlite.a(dynamic_agent.o) (IsFineGrainedOPSupport)
../../../../../../prebuilts/lib/libtensorflow-microlite.a(npu_platform.o)
                              ../../../../../../prebuilts/lib/libtensorflow-microlite.a(dynamic_agent.o) (LoadFromExternal)
../../../../../../prebuilts/lib/libtensorflow-microlite.a(pooling.o)
                              CMakeFiles/azure-sphere-combo-cifar10-rtcore.dir/f0775b8a0a1a4f21b831569dbc2a2e8d/project/app/lib_src/emergency_detect/main.cc.obj (tflite::ops::micro::Register_AVERAGE_POOL_2D())
../../../../../../prebuilts/lib/libtensorflow-microlite.a(kernel_util.o)
                              ../../../../../../prebuilts/lib/libtensorflow-microlite.a(pooling.o) (tflite::CalculateActivationRangeQuantized(TfLiteContext*, TfLiteFusedActivation, TfLiteTensor*, long*, long*))
../../../../../../prebuilts/lib/libtensorflow-microlite.a(conv.o)
                              CMakeFiles/azure-sphere-combo-cifar10-rtcore.dir/f0775b8a0a1a4f21b831569dbc2a2e8d/project/app/lib_src/emergency_detect/main.cc.obj (tflite::ops::micro::Register_CONV_2D())
../../../../../../prebuilts/lib/libtensorflow-microlite.a(depthwise_conv.o)
                              CMakeFiles/azure-sphere-combo-cifar10-rtcore.dir/f0775b8a0a1a4f21b831569dbc2a2e8d/project/app/lib_src/emergency_detect/main.cc.obj (tflite::ops::micro::Register_DEPTHWISE_CONV_2D())
../../../../../../prebuilts/lib/libtensorflow-microlite.a(debug_log.o)
                              ../../../../../../prebuilts/lib/libtensorflow-microlite.a(micro_error_reporter.o) (DebugLog)
../../../../../../prebuilts/lib/libtensorflow-microlite.a(memory_helpers.o)
                              ../../../../../../prebuilts/lib/libtensorflow-microlite.a(simple_memory_allocator.o) (tflite::AlignPointerUp(unsigned char*, unsigned int))
../../../../../../prebuilts/lib/libtensorflow-microlite.a(micro_allocator.o)
                              ../../../../../../prebuilts/lib/libtensorflow-microlite.a(micro_interpreter.o) (tflite::MicroAllocator::Create(unsigned char*, unsigned int, tflite::ErrorReporter*))
../../../../../../prebuilts/lib/libtensorflow-microlite.a(greedy_memory_planner.o)
                              ../../../../../../prebuilts/lib/libtensorflow-microlite.a(micro_allocator.o) (tflite::GreedyMemoryPlanner::~GreedyMemoryPlanner())
../../../../../../prebuilts/lib/libtensorflow-microlite.a(common.o)
                              ../../../../../../prebuilts/lib/libtensorflow-microlite.a(micro_allocator.o) (TfLiteIntArrayGetSizeInBytes)
../../../../../../prebuilts/lib/libtensorflow-microlite.a(op_resolver.o)
                              ../../../../../../prebuilts/lib/libtensorflow-microlite.a(micro_allocator.o) (tflite::GetRegistrationFromOpCode(tflite::OperatorCode const*, tflite::OpResolver const&, tflite::ErrorReporter*, TfLiteRegistration const**))
../../../../../../prebuilts/lib/libtensorflow-microlite.a(quantization_util.o)
                              ../../../../../../prebuilts/lib/libtensorflow-microlite.a(kernel_util.o) (tflite::QuantizeMultiplier(double, long*, int*))
../../../../../../prebuilts/lib/libcmsis.a(arm_convolve_wrapper_s8.o)
                              ../../../../../../prebuilts/lib/libtensorflow-microlite.a(conv.o) (arm_convolve_wrapper_s8)
../../../../../../prebuilts/lib/libcmsis.a(arm_depthwise_conv_s8.o)
                              ../../../../../../prebuilts/lib/libtensorflow-microlite.a(depthwise_conv.o) (arm_depthwise_conv_s8)
../../../../../../prebuilts/lib/libcmsis.a(arm_depthwise_conv_s8_opt.o)
                              ../../../../../../prebuilts/lib/libtensorflow-microlite.a(depthwise_conv.o) (arm_depthwise_conv_s8_opt)
../../../../../../prebuilts/lib/libcmsis.a(arm_depthwise_conv_u8_basic_ver1.o)
                              ../../../../../../prebuilts/lib/libtensorflow-microlite.a(depthwise_conv.o) (arm_depthwise_conv_u8_basic_ver1)
../../../../../../prebuilts/lib/libcmsis.a(arm_q7_to_q15_with_offset.o)
                              ../../../../../../prebuilts/lib/libcmsis.a(arm_depthwise_conv_s8_opt.o) (arm_q7_to_q15_with_offset)
../../../../../../prebuilts/lib/libcmsis.a(arm_avgpool_s8.o)
                              ../../../../../../prebuilts/lib/libtensorflow-microlite.a(pooling.o) (arm_avgpool_s8)
../../../../../../prebuilts/lib/libcmsis.a(arm_max_pool_s8_opt.o)
                              ../../../../../../prebuilts/lib/libtensorflow-microlite.a(pooling.o) (arm_max_pool_s8_opt)
../../../../../../prebuilts/lib/libcmsis.a(arm_convolve_1x1_s8_fast.o)
                              ../../../../../../prebuilts/lib/libcmsis.a(arm_convolve_wrapper_s8.o) (arm_convolve_1x1_s8_fast)
../../../../../../prebuilts/lib/libcmsis.a(arm_convolve_1_x_n_s8.o)
                              ../../../../../../prebuilts/lib/libcmsis.a(arm_convolve_wrapper_s8.o) (arm_convolve_1_x_n_s8)
../../../../../../prebuilts/lib/libcmsis.a(arm_convolve_s8.o)
                              ../../../../../../prebuilts/lib/libcmsis.a(arm_convolve_wrapper_s8.o) (arm_convolve_s8)
../../../../../../prebuilts/lib/libcmsis.a(arm_nn_mat_mult_kernel_s8_s16.o)
                              ../../../../../../prebuilts/lib/libcmsis.a(arm_convolve_s8.o) (arm_nn_mat_mult_kernel_s8_s16)
../../../../../../prebuilts/lib/libcmsis.a(arm_nn_accumulate_q7_to_q15.o)
                              ../../../../../../prebuilts/lib/libcmsis.a(arm_avgpool_s8.o) (arm_nn_accumulate_q7_to_q15)
../../../../../../prebuilts/lib/libcmsis.a(arm_nn_mat_mult_nt_t_s8.o)
                              ../../../../../../prebuilts/lib/libcmsis.a(arm_convolve_1x1_s8_fast.o) (arm_nn_mat_mult_nt_t_s8)
../../../../../../prebuilts/lib/libcmsis.a(arm_q7_to_q15_no_shift.o)
                              ../../../../../../prebuilts/lib/libcmsis.a(arm_avgpool_s8.o) (arm_q7_to_q15_no_shift)
c:/progra~2/microsoft visual studio/2019/community/linux/gcc_arm/bin/../lib/gcc/arm-none-eabi/8.2.1/../../../../arm-none-eabi/lib/thumb/v7e-m+fp/hard\libstdc++_nano.a(guard.o)
                              CMakeFiles/azure-sphere-combo-cifar10-rtcore.dir/f0775b8a0a1a4f21b831569dbc2a2e8d/project/app/lib_src/emergency_detect/main.cc.obj (__cxa_guard_acquire)
c:/progra~2/microsoft visual studio/2019/community/linux/gcc_arm/bin/../lib/gcc/arm-none-eabi/8.2.1/../../../../arm-none-eabi/lib/thumb/v7e-m+fp/hard\libstdc++_nano.a(del_op.o)
                              ../../../../../../prebuilts/lib/libtensorflow-microlite.a(micro_error_reporter.o) (operator delete(void*))
c:/progra~2/microsoft visual studio/2019/community/linux/gcc_arm/bin/../lib/gcc/arm-none-eabi/8.2.1/../../../../arm-none-eabi/lib/thumb/v7e-m+fp/hard\libstdc++_nano.a(pure.o)
                              ../../../../../../prebuilts/lib/libtensorflow-microlite.a(micro_error_reporter.o) (__cxa_pure_virtual)
c:/progra~2/microsoft visual studio/2019/community/linux/gcc_arm/bin/../lib/gcc/arm-none-eabi/8.2.1/../../../../arm-none-eabi/lib/thumb/v7e-m+fp/hard\libstdc++_nano.a(eh_terminate.o)
                              c:/progra~2/microsoft visual studio/2019/community/linux/gcc_arm/bin/../lib/gcc/arm-none-eabi/8.2.1/../../../../arm-none-eabi/lib/thumb/v7e-m+fp/hard\libstdc++_nano.a(pure.o) (std::terminate())
c:/progra~2/microsoft visual studio/2019/community/linux/gcc_arm/bin/../lib/gcc/arm-none-eabi/8.2.1/../../../../arm-none-eabi/lib/thumb/v7e-m+fp/hard\libstdc++_nano.a(atexit_arm.o)
                              CMakeFiles/azure-sphere-combo-cifar10-rtcore.dir/f0775b8a0a1a4f21b831569dbc2a2e8d/project/app/lib_src/emergency_detect/main.cc.obj (__aeabi_atexit)
c:/progra~2/microsoft visual studio/2019/community/linux/gcc_arm/bin/../lib/gcc/arm-none-eabi/8.2.1/../../../../arm-none-eabi/lib/thumb/v7e-m+fp/hard\libstdc++_nano.a(eh_term_handler.o)
                              c:/progra~2/microsoft visual studio/2019/community/linux/gcc_arm/bin/../lib/gcc/arm-none-eabi/8.2.1/../../../../arm-none-eabi/lib/thumb/v7e-m+fp/hard\libstdc++_nano.a(eh_terminate.o) (__cxxabiv1::__terminate_handler)
c:/progra~2/microsoft visual studio/2019/community/linux/gcc_arm/bin/../lib/gcc/arm-none-eabi/8.2.1/../../../../arm-none-eabi/lib/thumb/v7e-m+fp/hard\libstdc++_nano.a(eh_unex_handler.o)
                              c:/progra~2/microsoft visual studio/2019/community/linux/gcc_arm/bin/../lib/gcc/arm-none-eabi/8.2.1/../../../../arm-none-eabi/lib/thumb/v7e-m+fp/hard\libstdc++_nano.a(eh_terminate.o) (__cxxabiv1::__unexpected_handler)
c:/progra~2/microsoft visual studio/2019/community/linux/gcc_arm/bin/../lib/gcc/arm-none-eabi/8.2.1/thumb/v7e-m+fp/hard\libgcc.a(_arm_addsubdf3.o)
                              lib/MT3620_M4_Driver/libMT3620_M4_Driver.a(printf.c.obj) (__aeabi_dsub)
c:/progra~2/microsoft visual studio/2019/community/linux/gcc_arm/bin/../lib/gcc/arm-none-eabi/8.2.1/thumb/v7e-m+fp/hard\libgcc.a(_arm_muldivdf3.o)
                              lib/MT3620_M4_Driver/libMT3620_M4_Driver.a(printf.c.obj) (__aeabi_dmul)
c:/progra~2/microsoft visual studio/2019/community/linux/gcc_arm/bin/../lib/gcc/arm-none-eabi/8.2.1/thumb/v7e-m+fp/hard\libgcc.a(_arm_cmpdf2.o)
                              lib/MT3620_M4_Driver/libMT3620_M4_Driver.a(printf.c.obj) (__aeabi_dcmpeq)
c:/progra~2/microsoft visual studio/2019/community/linux/gcc_arm/bin/../lib/gcc/arm-none-eabi/8.2.1/thumb/v7e-m+fp/hard\libgcc.a(_arm_fixdfsi.o)
                              lib/MT3620_M4_Driver/libMT3620_M4_Driver.a(printf.c.obj) (__aeabi_d2iz)
c:/progra~2/microsoft visual studio/2019/community/linux/gcc_arm/bin/../lib/gcc/arm-none-eabi/8.2.1/thumb/v7e-m+fp/hard\libgcc.a(_arm_fixunsdfsi.o)
                              lib/MT3620_M4_Driver/libMT3620_M4_Driver.a(printf.c.obj) (__aeabi_d2uiz)
c:/progra~2/microsoft visual studio/2019/community/linux/gcc_arm/bin/../lib/gcc/arm-none-eabi/8.2.1/thumb/v7e-m+fp/hard\libgcc.a(_arm_truncdfsf2.o)
                              ../../../../../../prebuilts/lib/libtensorflow-microlite.a(micro_string.o) (__aeabi_d2f)
c:/progra~2/microsoft visual studio/2019/community/linux/gcc_arm/bin/../lib/gcc/arm-none-eabi/8.2.1/thumb/v7e-m+fp/hard\libgcc.a(_aeabi_uldivmod.o)
                              lib/MT3620_M4_Driver/libMT3620_M4_Driver.a(printf.c.obj) (__aeabi_uldivmod)
c:/progra~2/microsoft visual studio/2019/community/linux/gcc_arm/bin/../lib/gcc/arm-none-eabi/8.2.1/thumb/v7e-m+fp/hard\libgcc.a(_fixdfdi.o)
                              ../../../../../../prebuilts/lib/libtensorflow-microlite.a(quantization_util.o) (__aeabi_d2lz)
c:/progra~2/microsoft visual studio/2019/community/linux/gcc_arm/bin/../lib/gcc/arm-none-eabi/8.2.1/thumb/v7e-m+fp/hard\libgcc.a(_fixunsdfdi.o)
                              c:/progra~2/microsoft visual studio/2019/community/linux/gcc_arm/bin/../lib/gcc/arm-none-eabi/8.2.1/thumb/v7e-m+fp/hard\libgcc.a(_fixdfdi.o) (__aeabi_d2ulz)
c:/progra~2/microsoft visual studio/2019/community/linux/gcc_arm/bin/../lib/gcc/arm-none-eabi/8.2.1/thumb/v7e-m+fp/hard\libgcc.a(_udivmoddi4.o)
                              c:/progra~2/microsoft visual studio/2019/community/linux/gcc_arm/bin/../lib/gcc/arm-none-eabi/8.2.1/thumb/v7e-m+fp/hard\libgcc.a(_aeabi_uldivmod.o) (__udivmoddi4)
c:/progra~2/microsoft visual studio/2019/community/linux/gcc_arm/bin/../lib/gcc/arm-none-eabi/8.2.1/thumb/v7e-m+fp/hard\libgcc.a(_dvmd_tls.o)
                              c:/progra~2/microsoft visual studio/2019/community/linux/gcc_arm/bin/../lib/gcc/arm-none-eabi/8.2.1/thumb/v7e-m+fp/hard\libgcc.a(_aeabi_uldivmod.o) (__aeabi_ldiv0)
lib/MT3620_M4_Driver/lib/MT3620_M4_BSP/libMT3620_M4_BSP.a(nvic.c.obj)
                              CMakeFiles/azure-sphere-combo-cifar10-rtcore.dir/f0775b8a0a1a4f21b831569dbc2a2e8d/project/source/RTCORE_OS_HAL/src/os_hal_mbox.c.obj (NVIC_Register)
lib/MT3620_M4_Driver/lib/MT3620_M4_BSP/libMT3620_M4_BSP.a(cirq_common.c.obj)
                              lib/MT3620_M4_Driver/lib/MT3620_M4_BSP/libMT3620_M4_BSP.a(nvic.c.obj) (cirq_gpio_irq_ctl_set_edge2lvl)
lib/MT3620_M4_Driver/lib/MT3620_M4_BSP/libMT3620_M4_BSP.a(vector_table.c.obj)
                              lib/MT3620_M4_Driver/lib/MT3620_M4_BSP/libMT3620_M4_BSP.a(nvic.c.obj) (__isr_vector)
lib/MT3620_M4_Driver/lib/MT3620_M4_BSP/libMT3620_M4_BSP.a(startup_mt3620.s.obj)
                              lib/MT3620_M4_Driver/lib/MT3620_M4_BSP/libMT3620_M4_BSP.a(vector_table.c.obj) (Reset_Handler)
lib/MT3620_M4_Driver/MT3620_M4_BSP/FreeRTOS/libMT3620_M4_FreeRTOS.a(queue.c.obj)
                              CMakeFiles/azure-sphere-combo-cifar10-rtcore.dir/main.c.obj (xQueueGenericCreate)
lib/MT3620_M4_Driver/MT3620_M4_BSP/FreeRTOS/libMT3620_M4_FreeRTOS.a(tasks.c.obj)
                              CMakeFiles/azure-sphere-combo-cifar10-rtcore.dir/main.c.obj (xTaskCreate)
lib/MT3620_M4_Driver/MT3620_M4_BSP/FreeRTOS/libMT3620_M4_FreeRTOS.a(timers.c.obj)
                              lib/MT3620_M4_Driver/MT3620_M4_BSP/FreeRTOS/libMT3620_M4_FreeRTOS.a(tasks.c.obj) (xTimerCreateTimerTask)
lib/MT3620_M4_Driver/MT3620_M4_BSP/FreeRTOS/libMT3620_M4_FreeRTOS.a(heap_4.c.obj)
                              lib/MT3620_M4_Driver/MT3620_M4_BSP/FreeRTOS/libMT3620_M4_FreeRTOS.a(queue.c.obj) (pvPortMalloc)
lib/MT3620_M4_Driver/MT3620_M4_BSP/FreeRTOS/libMT3620_M4_FreeRTOS.a(port.c.obj)
                              lib/MT3620_M4_Driver/MT3620_M4_BSP/FreeRTOS/libMT3620_M4_FreeRTOS.a(tasks.c.obj) (pxPortInitialiseStack)
lib/MT3620_M4_Driver/MT3620_M4_BSP/FreeRTOS/libMT3620_M4_FreeRTOS.a(list.c.obj)
                              lib/MT3620_M4_Driver/MT3620_M4_BSP/FreeRTOS/libMT3620_M4_FreeRTOS.a(queue.c.obj) (vListInitialise)
c:/progra~2/microsoft visual studio/2019/community/linux/gcc_arm/bin/../lib/gcc/arm-none-eabi/8.2.1/../../../../arm-none-eabi/lib/thumb/v7e-m+fp/hard\libm.a(lib_a-s_floor.o)
                              ../../../../../../prebuilts/lib/libtensorflow-microlite.a(quantization_util.o) (floor)
c:/progra~2/microsoft visual studio/2019/community/linux/gcc_arm/bin/../lib/gcc/arm-none-eabi/8.2.1/../../../../arm-none-eabi/lib/thumb/v7e-m+fp/hard\libm.a(lib_a-s_frexp.o)
                              ../../../../../../prebuilts/lib/libtensorflow-microlite.a(quantization_util.o) (frexp)
c:/progra~2/microsoft visual studio/2019/community/linux/gcc_arm/bin/../lib/gcc/arm-none-eabi/8.2.1/../../../../arm-none-eabi/lib/thumb/v7e-m+fp/hard\libm.a(lib_a-s_round.o)
                              ../../../../../../prebuilts/lib/libtensorflow-microlite.a(kernel_util.o) (round)
c:/progra~2/microsoft visual studio/2019/community/linux/gcc_arm/bin/../lib/gcc/arm-none-eabi/8.2.1/../../../../arm-none-eabi/lib/thumb/v7e-m+fp/hard\libm.a(lib_a-wf_log.o)
                              ../../../../../../prebuilts/lib/libtensorflow-microlite.a(quantization_util.o) (logf)
c:/progra~2/microsoft visual studio/2019/community/linux/gcc_arm/bin/../lib/gcc/arm-none-eabi/8.2.1/../../../../arm-none-eabi/lib/thumb/v7e-m+fp/hard\libm.a(lib_a-ef_log.o)
                              c:/progra~2/microsoft visual studio/2019/community/linux/gcc_arm/bin/../lib/gcc/arm-none-eabi/8.2.1/../../../../arm-none-eabi/lib/thumb/v7e-m+fp/hard\libm.a(lib_a-wf_log.o) (__ieee754_logf)
c:/progra~2/microsoft visual studio/2019/community/linux/gcc_arm/bin/../lib/gcc/arm-none-eabi/8.2.1/../../../../arm-none-eabi/lib/thumb/v7e-m+fp/hard\libm.a(lib_a-s_lib_ver.o)
                              c:/progra~2/microsoft visual studio/2019/community/linux/gcc_arm/bin/../lib/gcc/arm-none-eabi/8.2.1/../../../../arm-none-eabi/lib/thumb/v7e-m+fp/hard\libm.a(lib_a-wf_log.o) (__fdlib_version)
c:/progra~2/microsoft visual studio/2019/community/linux/gcc_arm/bin/../lib/gcc/arm-none-eabi/8.2.1/../../../../arm-none-eabi/lib/thumb/v7e-m+fp/hard\libm.a(lib_a-s_matherr.o)
                              c:/progra~2/microsoft visual studio/2019/community/linux/gcc_arm/bin/../lib/gcc/arm-none-eabi/8.2.1/../../../../arm-none-eabi/lib/thumb/v7e-m+fp/hard\libm.a(lib_a-wf_log.o) (matherr)
c:/progra~2/microsoft visual studio/2019/community/linux/gcc_arm/bin/../lib/gcc/arm-none-eabi/8.2.1/../../../../arm-none-eabi/lib/thumb/v7e-m+fp/hard\libm.a(lib_a-s_nan.o)
                              c:/progra~2/microsoft visual studio/2019/community/linux/gcc_arm/bin/../lib/gcc/arm-none-eabi/8.2.1/../../../../arm-none-eabi/lib/thumb/v7e-m+fp/hard\libm.a(lib_a-wf_log.o) (nan)
c:/progra~2/microsoft visual studio/2019/community/linux/gcc_arm/bin/../lib/gcc/arm-none-eabi/8.2.1/../../../../arm-none-eabi/lib/thumb/v7e-m+fp/hard\libc_nano.a(lib_a-abort.o)
                              ../../../../../../prebuilts/lib/libtensorflow-microlite.a(pooling.o) (abort)
c:/progra~2/microsoft visual studio/2019/community/linux/gcc_arm/bin/../lib/gcc/arm-none-eabi/8.2.1/../../../../arm-none-eabi/lib/thumb/v7e-m+fp/hard\libc_nano.a(lib_a-cxa_atexit.o)
                              c:/progra~2/microsoft visual studio/2019/community/linux/gcc_arm/bin/../lib/gcc/arm-none-eabi/8.2.1/../../../../arm-none-eabi/lib/thumb/v7e-m+fp/hard\libstdc++_nano.a(atexit_arm.o) (__cxa_atexit)
c:/progra~2/microsoft visual studio/2019/community/linux/gcc_arm/bin/../lib/gcc/arm-none-eabi/8.2.1/../../../../arm-none-eabi/lib/thumb/v7e-m+fp/hard\libc_nano.a(lib_a-errno.o)
                              c:/progra~2/microsoft visual studio/2019/community/linux/gcc_arm/bin/../lib/gcc/arm-none-eabi/8.2.1/../../../../arm-none-eabi/lib/thumb/v7e-m+fp/hard\libm.a(lib_a-wf_log.o) (__errno)
c:/progra~2/microsoft visual studio/2019/community/linux/gcc_arm/bin/../lib/gcc/arm-none-eabi/8.2.1/../../../../arm-none-eabi/lib/thumb/v7e-m+fp/hard\libc_nano.a(lib_a-impure.o)
                              c:/progra~2/microsoft visual studio/2019/community/linux/gcc_arm/bin/../lib/gcc/arm-none-eabi/8.2.1/../../../../arm-none-eabi/lib/thumb/v7e-m+fp/hard\libc_nano.a(lib_a-errno.o) (_impure_ptr)
c:/progra~2/microsoft visual studio/2019/community/linux/gcc_arm/bin/../lib/gcc/arm-none-eabi/8.2.1/../../../../arm-none-eabi/lib/thumb/v7e-m+fp/hard\libc_nano.a(lib_a-malloc.o)
                              c:/progra~2/microsoft visual studio/2019/community/linux/gcc_arm/bin/../lib/gcc/arm-none-eabi/8.2.1/../../../../arm-none-eabi/lib/thumb/v7e-m+fp/hard\libstdc++_nano.a(del_op.o) (free)
c:/progra~2/microsoft visual studio/2019/community/linux/gcc_arm/bin/../lib/gcc/arm-none-eabi/8.2.1/../../../../arm-none-eabi/lib/thumb/v7e-m+fp/hard\libc_nano.a(lib_a-memcpy-stub.o)
                              CMakeFiles/azure-sphere-combo-cifar10-rtcore.dir/main.c.obj (memcpy)
c:/progra~2/microsoft visual studio/2019/community/linux/gcc_arm/bin/../lib/gcc/arm-none-eabi/8.2.1/../../../../arm-none-eabi/lib/thumb/v7e-m+fp/hard\libc_nano.a(lib_a-memmove.o)
                              ../../../../../../prebuilts/lib/libcmsis.a(arm_max_pool_s8_opt.o) (memmove)
c:/progra~2/microsoft visual studio/2019/community/linux/gcc_arm/bin/../lib/gcc/arm-none-eabi/8.2.1/../../../../arm-none-eabi/lib/thumb/v7e-m+fp/hard\libc_nano.a(lib_a-memset.o)
                              lib/MT3620_M4_Driver/libMT3620_M4_Driver.a(mhal_uart.c.obj) (memset)
c:/progra~2/microsoft visual studio/2019/community/linux/gcc_arm/bin/../lib/gcc/arm-none-eabi/8.2.1/../../../../arm-none-eabi/lib/thumb/v7e-m+fp/hard\libc_nano.a(lib_a-nano-freer.o)
                              c:/progra~2/microsoft visual studio/2019/community/linux/gcc_arm/bin/../lib/gcc/arm-none-eabi/8.2.1/../../../../arm-none-eabi/lib/thumb/v7e-m+fp/hard\libc_nano.a(lib_a-malloc.o) (_free_r)
c:/progra~2/microsoft visual studio/2019/community/linux/gcc_arm/bin/../lib/gcc/arm-none-eabi/8.2.1/../../../../arm-none-eabi/lib/thumb/v7e-m+fp/hard\libc_nano.a(lib_a-nano-mallocr.o)
                              c:/progra~2/microsoft visual studio/2019/community/linux/gcc_arm/bin/../lib/gcc/arm-none-eabi/8.2.1/../../../../arm-none-eabi/lib/thumb/v7e-m+fp/hard\libc_nano.a(lib_a-malloc.o) (_malloc_r)
c:/progra~2/microsoft visual studio/2019/community/linux/gcc_arm/bin/../lib/gcc/arm-none-eabi/8.2.1/../../../../arm-none-eabi/lib/thumb/v7e-m+fp/hard\libc_nano.a(lib_a-on_exit_args.o)
                              c:/progra~2/microsoft visual studio/2019/community/linux/gcc_arm/bin/../lib/gcc/arm-none-eabi/8.2.1/../../../../arm-none-eabi/lib/thumb/v7e-m+fp/hard\libc_nano.a(lib_a-cxa_atexit.o) (__on_exit_args)
c:/progra~2/microsoft visual studio/2019/community/linux/gcc_arm/bin/../lib/gcc/arm-none-eabi/8.2.1/../../../../arm-none-eabi/lib/thumb/v7e-m+fp/hard\libc_nano.a(lib_a-sbrkr.o)
                              c:/progra~2/microsoft visual studio/2019/community/linux/gcc_arm/bin/../lib/gcc/arm-none-eabi/8.2.1/../../../../arm-none-eabi/lib/thumb/v7e-m+fp/hard\libc_nano.a(lib_a-nano-mallocr.o) (_sbrk_r)
c:/progra~2/microsoft visual studio/2019/community/linux/gcc_arm/bin/../lib/gcc/arm-none-eabi/8.2.1/../../../../arm-none-eabi/lib/thumb/v7e-m+fp/hard\libc_nano.a(lib_a-signal.o)
                              c:/progra~2/microsoft visual studio/2019/community/linux/gcc_arm/bin/../lib/gcc/arm-none-eabi/8.2.1/../../../../arm-none-eabi/lib/thumb/v7e-m+fp/hard\libc_nano.a(lib_a-abort.o) (raise)
c:/progra~2/microsoft visual studio/2019/community/linux/gcc_arm/bin/../lib/gcc/arm-none-eabi/8.2.1/../../../../arm-none-eabi/lib/thumb/v7e-m+fp/hard\libc_nano.a(lib_a-signalr.o)
                              c:/progra~2/microsoft visual studio/2019/community/linux/gcc_arm/bin/../lib/gcc/arm-none-eabi/8.2.1/../../../../arm-none-eabi/lib/thumb/v7e-m+fp/hard\libc_nano.a(lib_a-signal.o) (_kill_r)
c:/progra~2/microsoft visual studio/2019/community/linux/gcc_arm/bin/../lib/gcc/arm-none-eabi/8.2.1/../../../../arm-none-eabi/lib/thumb/v7e-m+fp/hard\libc_nano.a(lib_a-strcmp.o)
                              CMakeFiles/azure-sphere-combo-cifar10-rtcore.dir/f0775b8a0a1a4f21b831569dbc2a2e8d/project/app/lib_src/emergency_detect/main.cc.obj (strcmp)
c:/progra~2/microsoft visual studio/2019/community/linux/gcc_arm/bin/../lib/gcc/arm-none-eabi/8.2.1/../../../../arm-none-eabi/lib/thumb/v7e-m+fp/hard\libc_nano.a(lib_a-mlock.o)
                              c:/progra~2/microsoft visual studio/2019/community/linux/gcc_arm/bin/../lib/gcc/arm-none-eabi/8.2.1/../../../../arm-none-eabi/lib/thumb/v7e-m+fp/hard\libc_nano.a(lib_a-nano-freer.o) (__malloc_lock)
c:/progra~2/microsoft visual studio/2019/community/linux/gcc_arm/bin/../lib/gcc/arm-none-eabi/8.2.1/../../../../arm-none-eabi/lib/thumb/v7e-m+fp/hard\libc_nano.a(lib_a-reent.o)
                              c:/progra~2/microsoft visual studio/2019/community/linux/gcc_arm/bin/../lib/gcc/arm-none-eabi/8.2.1/../../../../arm-none-eabi/lib/thumb/v7e-m+fp/hard\libc_nano.a(lib_a-sbrkr.o) (errno)
c:/progra~2/microsoft visual studio/2019/community/linux/gcc_arm/bin/../lib/gcc/arm-none-eabi/8.2.1/../../../../arm-none-eabi/lib/thumb/v7e-m+fp/hard\libc_nano.a(lib_a-lock.o)
                              c:/progra~2/microsoft visual studio/2019/community/linux/gcc_arm/bin/../lib/gcc/arm-none-eabi/8.2.1/../../../../arm-none-eabi/lib/thumb/v7e-m+fp/hard\libc_nano.a(lib_a-mlock.o) (__retarget_lock_acquire_recursive)
c:/progra~2/microsoft visual studio/2019/community/linux/gcc_arm/bin/../lib/gcc/arm-none-eabi/8.2.1/../../../../arm-none-eabi/lib/thumb/v7e-m+fp/hard\libnosys.a(getpid.o)
                              c:/progra~2/microsoft visual studio/2019/community/linux/gcc_arm/bin/../lib/gcc/arm-none-eabi/8.2.1/../../../../arm-none-eabi/lib/thumb/v7e-m+fp/hard\libc_nano.a(lib_a-signalr.o) (_getpid)
c:/progra~2/microsoft visual studio/2019/community/linux/gcc_arm/bin/../lib/gcc/arm-none-eabi/8.2.1/../../../../arm-none-eabi/lib/thumb/v7e-m+fp/hard\libnosys.a(kill.o)
                              c:/progra~2/microsoft visual studio/2019/community/linux/gcc_arm/bin/../lib/gcc/arm-none-eabi/8.2.1/../../../../arm-none-eabi/lib/thumb/v7e-m+fp/hard\libc_nano.a(lib_a-signalr.o) (_kill)
c:/progra~2/microsoft visual studio/2019/community/linux/gcc_arm/bin/../lib/gcc/arm-none-eabi/8.2.1/../../../../arm-none-eabi/lib/thumb/v7e-m+fp/hard\libnosys.a(sbrk.o)
                              c:/progra~2/microsoft visual studio/2019/community/linux/gcc_arm/bin/../lib/gcc/arm-none-eabi/8.2.1/../../../../arm-none-eabi/lib/thumb/v7e-m+fp/hard\libc_nano.a(lib_a-sbrkr.o) (_sbrk)
c:/progra~2/microsoft visual studio/2019/community/linux/gcc_arm/bin/../lib/gcc/arm-none-eabi/8.2.1/../../../../arm-none-eabi/lib/thumb/v7e-m+fp/hard\libnosys.a(_exit.o)
                              c:/progra~2/microsoft visual studio/2019/community/linux/gcc_arm/bin/../lib/gcc/arm-none-eabi/8.2.1/../../../../arm-none-eabi/lib/thumb/v7e-m+fp/hard\libc_nano.a(lib_a-abort.o) (_exit)

Allocating common symbols
Common symbol       size              file

__lock___atexit_recursive_mutex
                    0x1               c:/progra~2/microsoft visual studio/2019/community/linux/gcc_arm/bin/../lib/gcc/arm-none-eabi/8.2.1/../../../../arm-none-eabi/lib/thumb/v7e-m+fp/hard\libc_nano.a(lib_a-lock.o)
__lock___arc4random_mutex
                    0x1               c:/progra~2/microsoft visual studio/2019/community/linux/gcc_arm/bin/../lib/gcc/arm-none-eabi/8.2.1/../../../../arm-none-eabi/lib/thumb/v7e-m+fp/hard\libc_nano.a(lib_a-lock.o)
errno               0x4               c:/progra~2/microsoft visual studio/2019/community/linux/gcc_arm/bin/../lib/gcc/arm-none-eabi/8.2.1/../../../../arm-none-eabi/lib/thumb/v7e-m+fp/hard\libc_nano.a(lib_a-reent.o)
__lock___env_recursive_mutex
                    0x1               c:/progra~2/microsoft visual studio/2019/community/linux/gcc_arm/bin/../lib/gcc/arm-none-eabi/8.2.1/../../../../arm-none-eabi/lib/thumb/v7e-m+fp/hard\libc_nano.a(lib_a-lock.o)
__lock___sinit_recursive_mutex
                    0x1               c:/progra~2/microsoft visual studio/2019/community/linux/gcc_arm/bin/../lib/gcc/arm-none-eabi/8.2.1/../../../../arm-none-eabi/lib/thumb/v7e-m+fp/hard\libc_nano.a(lib_a-lock.o)
__lock___malloc_recursive_mutex
                    0x1               c:/progra~2/microsoft visual studio/2019/community/linux/gcc_arm/bin/../lib/gcc/arm-none-eabi/8.2.1/../../../../arm-none-eabi/lib/thumb/v7e-m+fp/hard\libc_nano.a(lib_a-lock.o)
__lock___at_quick_exit_mutex
                    0x1               c:/progra~2/microsoft visual studio/2019/community/linux/gcc_arm/bin/../lib/gcc/arm-none-eabi/8.2.1/../../../../arm-none-eabi/lib/thumb/v7e-m+fp/hard\libc_nano.a(lib_a-lock.o)
__lock___dd_hash_mutex
                    0x1               c:/progra~2/microsoft visual studio/2019/community/linux/gcc_arm/bin/../lib/gcc/arm-none-eabi/8.2.1/../../../../arm-none-eabi/lib/thumb/v7e-m+fp/hard\libc_nano.a(lib_a-lock.o)
__lock___tz_mutex   0x1               c:/progra~2/microsoft visual studio/2019/community/linux/gcc_arm/bin/../lib/gcc/arm-none-eabi/8.2.1/../../../../arm-none-eabi/lib/thumb/v7e-m+fp/hard\libc_nano.a(lib_a-lock.o)
__lock___sfp_recursive_mutex
                    0x1               c:/progra~2/microsoft visual studio/2019/community/linux/gcc_arm/bin/../lib/gcc/arm-none-eabi/8.2.1/../../../../arm-none-eabi/lib/thumb/v7e-m+fp/hard\libc_nano.a(lib_a-lock.o)

Discarded input sections

 .data          0x00000000        0x0 CMakeFiles/azure-sphere-combo-cifar10-rtcore.dir/main.c.obj
 .text          0x00000000       0x78 CMakeFiles/azure-sphere-combo-cifar10-rtcore.dir/f0775b8a0a1a4f21b831569dbc2a2e8d/project/source/RTCORE_OS_HAL/src/os_hal_gpio.c.obj
 .data          0x00000000       0x50 CMakeFiles/azure-sphere-combo-cifar10-rtcore.dir/f0775b8a0a1a4f21b831569dbc2a2e8d/project/source/RTCORE_OS_HAL/src/os_hal_gpio.c.obj
 .bss           0x00000000        0x0 CMakeFiles/azure-sphere-combo-cifar10-rtcore.dir/f0775b8a0a1a4f21b831569dbc2a2e8d/project/source/RTCORE_OS_HAL/src/os_hal_gpio.c.obj
 .debug_info    0x00000000       0xb6 CMakeFiles/azure-sphere-combo-cifar10-rtcore.dir/f0775b8a0a1a4f21b831569dbc2a2e8d/project/source/RTCORE_OS_HAL/src/os_hal_gpio.c.obj
 .debug_abbrev  0x00000000       0x29 CMakeFiles/azure-sphere-combo-cifar10-rtcore.dir/f0775b8a0a1a4f21b831569dbc2a2e8d/project/source/RTCORE_OS_HAL/src/os_hal_gpio.c.obj
 .debug_aranges
                0x00000000       0x20 CMakeFiles/azure-sphere-combo-cifar10-rtcore.dir/f0775b8a0a1a4f21b831569dbc2a2e8d/project/source/RTCORE_OS_HAL/src/os_hal_gpio.c.obj
 .debug_line    0x00000000       0xc5 CMakeFiles/azure-sphere-combo-cifar10-rtcore.dir/f0775b8a0a1a4f21b831569dbc2a2e8d/project/source/RTCORE_OS_HAL/src/os_hal_gpio.c.obj
 .debug_str     0x00000000      0x25b CMakeFiles/azure-sphere-combo-cifar10-rtcore.dir/f0775b8a0a1a4f21b831569dbc2a2e8d/project/source/RTCORE_OS_HAL/src/os_hal_gpio.c.obj
 .comment       0x00000000       0x76 CMakeFiles/azure-sphere-combo-cifar10-rtcore.dir/f0775b8a0a1a4f21b831569dbc2a2e8d/project/source/RTCORE_OS_HAL/src/os_hal_gpio.c.obj
 .debug_frame   0x00000000       0x90 CMakeFiles/azure-sphere-combo-cifar10-rtcore.dir/f0775b8a0a1a4f21b831569dbc2a2e8d/project/source/RTCORE_OS_HAL/src/os_hal_gpio.c.obj
 .ARM.attributes
                0x00000000       0x34 CMakeFiles/azure-sphere-combo-cifar10-rtcore.dir/f0775b8a0a1a4f21b831569dbc2a2e8d/project/source/RTCORE_OS_HAL/src/os_hal_gpio.c.obj
 .data          0x00000000        0x0 CMakeFiles/azure-sphere-combo-cifar10-rtcore.dir/f0775b8a0a1a4f21b831569dbc2a2e8d/project/source/RTCORE_OS_HAL/src/os_hal_uart.c.obj
 .data          0x00000000        0x0 CMakeFiles/azure-sphere-combo-cifar10-rtcore.dir/f0775b8a0a1a4f21b831569dbc2a2e8d/project/source/RTCORE_OS_HAL/src/os_hal_mbox.c.obj
 .data          0x00000000        0x0 CMakeFiles/azure-sphere-combo-cifar10-rtcore.dir/e19389ff1b18dd4296d4faeafb009a24/source/RTCORE_OS_HAL/src/os_hal_mbox_shared_mem.c.obj
 .bss           0x00000000        0x0 CMakeFiles/azure-sphere-combo-cifar10-rtcore.dir/e19389ff1b18dd4296d4faeafb009a24/source/RTCORE_OS_HAL/src/os_hal_mbox_shared_mem.c.obj
 .text          0x00000000        0x0 CMakeFiles/azure-sphere-combo-cifar10-rtcore.dir/f0775b8a0a1a4f21b831569dbc2a2e8d/project/app/lib_src/emergency_detect/emergency-detect.cc.obj
 .data          0x00000000        0x0 CMakeFiles/azure-sphere-combo-cifar10-rtcore.dir/f0775b8a0a1a4f21b831569dbc2a2e8d/project/app/lib_src/emergency_detect/emergency-detect.cc.obj
 .bss           0x00000000        0x0 CMakeFiles/azure-sphere-combo-cifar10-rtcore.dir/f0775b8a0a1a4f21b831569dbc2a2e8d/project/app/lib_src/emergency_detect/emergency-detect.cc.obj
 .group         0x00000000        0x8 CMakeFiles/azure-sphere-combo-cifar10-rtcore.dir/f0775b8a0a1a4f21b831569dbc2a2e8d/project/app/lib_src/emergency_detect/main.cc.obj
 .group         0x00000000        0x8 CMakeFiles/azure-sphere-combo-cifar10-rtcore.dir/f0775b8a0a1a4f21b831569dbc2a2e8d/project/app/lib_src/emergency_detect/main.cc.obj
 .group         0x00000000        0x8 CMakeFiles/azure-sphere-combo-cifar10-rtcore.dir/f0775b8a0a1a4f21b831569dbc2a2e8d/project/app/lib_src/emergency_detect/main.cc.obj
 .group         0x00000000        0x8 CMakeFiles/azure-sphere-combo-cifar10-rtcore.dir/f0775b8a0a1a4f21b831569dbc2a2e8d/project/app/lib_src/emergency_detect/main.cc.obj
 .group         0x00000000        0xc CMakeFiles/azure-sphere-combo-cifar10-rtcore.dir/f0775b8a0a1a4f21b831569dbc2a2e8d/project/app/lib_src/emergency_detect/main.cc.obj
 .group         0x00000000        0xc CMakeFiles/azure-sphere-combo-cifar10-rtcore.dir/f0775b8a0a1a4f21b831569dbc2a2e8d/project/app/lib_src/emergency_detect/main.cc.obj
 .group         0x00000000        0xc CMakeFiles/azure-sphere-combo-cifar10-rtcore.dir/f0775b8a0a1a4f21b831569dbc2a2e8d/project/app/lib_src/emergency_detect/main.cc.obj
 .group         0x00000000        0xc CMakeFiles/azure-sphere-combo-cifar10-rtcore.dir/f0775b8a0a1a4f21b831569dbc2a2e8d/project/app/lib_src/emergency_detect/main.cc.obj
 .text          0x00000000        0x0 CMakeFiles/azure-sphere-combo-cifar10-rtcore.dir/f0775b8a0a1a4f21b831569dbc2a2e8d/project/app/lib_src/emergency_detect/main.cc.obj
 .data          0x00000000        0x0 CMakeFiles/azure-sphere-combo-cifar10-rtcore.dir/f0775b8a0a1a4f21b831569dbc2a2e8d/project/app/lib_src/emergency_detect/main.cc.obj
 .bss           0x00000000        0x0 CMakeFiles/azure-sphere-combo-cifar10-rtcore.dir/f0775b8a0a1a4f21b831569dbc2a2e8d/project/app/lib_src/emergency_detect/main.cc.obj
 .data._ZN11flatbuffers25flatbuffer_version_stringE
                0x00000000        0x4 CMakeFiles/azure-sphere-combo-cifar10-rtcore.dir/f0775b8a0a1a4f21b831569dbc2a2e8d/project/app/lib_src/emergency_detect/main.cc.obj
 .data          0x00000000        0x0 lib/MT3620_M4_Driver/libMT3620_M4_Driver.a(printf.c.obj)
 .bss           0x00000000        0x0 lib/MT3620_M4_Driver/libMT3620_M4_Driver.a(printf.c.obj)
 .text          0x00000000     0x183c lib/MT3620_M4_Driver/libMT3620_M4_Driver.a(mhal_gpio.c.obj)
 .data          0x00000000        0x0 lib/MT3620_M4_Driver/libMT3620_M4_Driver.a(mhal_gpio.c.obj)
 .bss           0x00000000        0x0 lib/MT3620_M4_Driver/libMT3620_M4_Driver.a(mhal_gpio.c.obj)
 .rodata        0x00000000       0x9c lib/MT3620_M4_Driver/libMT3620_M4_Driver.a(mhal_gpio.c.obj)
 .debug_info    0x00000000      0x32a lib/MT3620_M4_Driver/libMT3620_M4_Driver.a(mhal_gpio.c.obj)
 .debug_abbrev  0x00000000       0xa7 lib/MT3620_M4_Driver/libMT3620_M4_Driver.a(mhal_gpio.c.obj)
 .debug_aranges
                0x00000000       0x20 lib/MT3620_M4_Driver/libMT3620_M4_Driver.a(mhal_gpio.c.obj)
 .debug_ranges  0x00000000      0x360 lib/MT3620_M4_Driver/libMT3620_M4_Driver.a(mhal_gpio.c.obj)
 .debug_line    0x00000000      0xa77 lib/MT3620_M4_Driver/libMT3620_M4_Driver.a(mhal_gpio.c.obj)
 .debug_str     0x00000000      0x31b lib/MT3620_M4_Driver/libMT3620_M4_Driver.a(mhal_gpio.c.obj)
 .comment       0x00000000       0x76 lib/MT3620_M4_Driver/libMT3620_M4_Driver.a(mhal_gpio.c.obj)
 .debug_frame   0x00000000      0x2c0 lib/MT3620_M4_Driver/libMT3620_M4_Driver.a(mhal_gpio.c.obj)
 .ARM.attributes
                0x00000000       0x34 lib/MT3620_M4_Driver/libMT3620_M4_Driver.a(mhal_gpio.c.obj)
 .text          0x00000000       0x90 lib/MT3620_M4_Driver/libMT3620_M4_Driver.a(hdl_gpio.c.obj)
 .data          0x00000000        0x0 lib/MT3620_M4_Driver/libMT3620_M4_Driver.a(hdl_gpio.c.obj)
 .bss           0x00000000        0x0 lib/MT3620_M4_Driver/libMT3620_M4_Driver.a(hdl_gpio.c.obj)
 .debug_info    0x00000000       0x6e lib/MT3620_M4_Driver/libMT3620_M4_Driver.a(hdl_gpio.c.obj)
 .debug_abbrev  0x00000000       0x41 lib/MT3620_M4_Driver/libMT3620_M4_Driver.a(hdl_gpio.c.obj)
 .debug_aranges
                0x00000000       0x20 lib/MT3620_M4_Driver/libMT3620_M4_Driver.a(hdl_gpio.c.obj)
 .debug_line    0x00000000       0xf4 lib/MT3620_M4_Driver/libMT3620_M4_Driver.a(hdl_gpio.c.obj)
 .debug_str     0x00000000      0x1e9 lib/MT3620_M4_Driver/libMT3620_M4_Driver.a(hdl_gpio.c.obj)
 .comment       0x00000000       0x76 lib/MT3620_M4_Driver/libMT3620_M4_Driver.a(hdl_gpio.c.obj)
 .debug_frame   0x00000000       0x9c lib/MT3620_M4_Driver/libMT3620_M4_Driver.a(hdl_gpio.c.obj)
 .ARM.attributes
                0x00000000       0x34 lib/MT3620_M4_Driver/libMT3620_M4_Driver.a(hdl_gpio.c.obj)
 .data          0x00000000        0x0 lib/MT3620_M4_Driver/libMT3620_M4_Driver.a(mhal_uart.c.obj)
 .bss           0x00000000        0x0 lib/MT3620_M4_Driver/libMT3620_M4_Driver.a(mhal_uart.c.obj)
 .data          0x00000000        0x0 lib/MT3620_M4_Driver/libMT3620_M4_Driver.a(hdl_uart.c.obj)
 .bss           0x00000000        0x0 lib/MT3620_M4_Driver/libMT3620_M4_Driver.a(hdl_uart.c.obj)
 .data          0x00000000        0x0 lib/MT3620_M4_Driver/libMT3620_M4_Driver.a(mhal_mbox.c.obj)
 .bss           0x00000000        0x0 lib/MT3620_M4_Driver/libMT3620_M4_Driver.a(mhal_mbox.c.obj)
 .data          0x00000000        0x0 lib/MT3620_M4_Driver/libMT3620_M4_Driver.a(hdl_mbox.c.obj)
 .bss           0x00000000        0x0 lib/MT3620_M4_Driver/libMT3620_M4_Driver.a(hdl_mbox.c.obj)
 .data          0x00000000        0x0 lib/MT3620_M4_Driver/libMT3620_M4_Driver.a(mhal_osai.c.obj)
 .bss           0x00000000        0x0 lib/MT3620_M4_Driver/libMT3620_M4_Driver.a(mhal_osai.c.obj)
 .group         0x00000000        0x8 ../../../../../../prebuilts/lib/libtensorflow-microlite.a(micro_error_reporter.o)
 .group         0x00000000        0x8 ../../../../../../prebuilts/lib/libtensorflow-microlite.a(micro_error_reporter.o)
 .group         0x00000000        0x8 ../../../../../../prebuilts/lib/libtensorflow-microlite.a(micro_error_reporter.o)
 .group         0x00000000        0x8 ../../../../../../prebuilts/lib/libtensorflow-microlite.a(micro_error_reporter.o)
 .group         0x00000000        0x8 ../../../../../../prebuilts/lib/libtensorflow-microlite.a(micro_error_reporter.o)
 .text          0x00000000        0x0 ../../../../../../prebuilts/lib/libtensorflow-microlite.a(micro_error_reporter.o)
 .data          0x00000000        0x0 ../../../../../../prebuilts/lib/libtensorflow-microlite.a(micro_error_reporter.o)
 .bss           0x00000000        0x0 ../../../../../../prebuilts/lib/libtensorflow-microlite.a(micro_error_reporter.o)
 .text._ZN6tflite13ErrorReporterD2Ev
                0x00000000        0xc ../../../../../../prebuilts/lib/libtensorflow-microlite.a(micro_error_reporter.o)
 .text._ZN6tflite18MicroErrorReporterD2Ev
                0x00000000        0xc ../../../../../../prebuilts/lib/libtensorflow-microlite.a(micro_error_reporter.o)
 .text._ZN6tflite18MicroErrorReporterD0Ev
                0x00000000        0xc ../../../../../../prebuilts/lib/libtensorflow-microlite.a(micro_error_reporter.o)
 .text._ZN6tflite13ErrorReporterD0Ev
                0x00000000       0x14 ../../../../../../prebuilts/lib/libtensorflow-microlite.a(micro_error_reporter.o)
 .rodata._ZTVN6tflite13ErrorReporterE
                0x00000000       0x18 ../../../../../../prebuilts/lib/libtensorflow-microlite.a(micro_error_reporter.o)
 .group         0x00000000        0x8 ../../../../../../prebuilts/lib/libtensorflow-microlite.a(micro_interpreter.o)
 .group         0x00000000        0x8 ../../../../../../prebuilts/lib/libtensorflow-microlite.a(micro_interpreter.o)
 .group         0x00000000        0x8 ../../../../../../prebuilts/lib/libtensorflow-microlite.a(micro_interpreter.o)
 .group         0x00000000        0x8 ../../../../../../prebuilts/lib/libtensorflow-microlite.a(micro_interpreter.o)
 .text          0x00000000        0x0 ../../../../../../prebuilts/lib/libtensorflow-microlite.a(micro_interpreter.o)
 .data          0x00000000        0x0 ../../../../../../prebuilts/lib/libtensorflow-microlite.a(micro_interpreter.o)
 .bss           0x00000000        0x0 ../../../../../../prebuilts/lib/libtensorflow-microlite.a(micro_interpreter.o)
 .text._ZN6tflite16MicroInterpreterC2EPKNS_5ModelEPKNS_15MicroOpResolverEPNS_14MicroAllocatorEPNS_13ErrorReporterEPNS_8ProfilerE
                0x00000000       0x44 ../../../../../../prebuilts/lib/libtensorflow-microlite.a(micro_interpreter.o)
 .text._ZN6tflite16MicroInterpreter23CorrectTensorEndiannessEP12TfLiteTensor
                0x00000000        0x2 ../../../../../../prebuilts/lib/libtensorflow-microlite.a(micro_interpreter.o)
 .text._ZN6tflite16MicroInterpreter6tensorEj
                0x00000000       0x24 ../../../../../../prebuilts/lib/libtensorflow-microlite.a(micro_interpreter.o)
 .text._ZN6tflite16MicroInterpreter20ResetVariableTensorsEv
                0x00000000       0x3c ../../../../../../prebuilts/lib/libtensorflow-microlite.a(micro_interpreter.o)
 .data._ZN11flatbuffers25flatbuffer_version_stringE
                0x00000000        0x4 ../../../../../../prebuilts/lib/libtensorflow-microlite.a(micro_interpreter.o)
 .text          0x00000000        0x0 ../../../../../../prebuilts/lib/libtensorflow-microlite.a(micro_string.o)
 .data          0x00000000        0x0 ../../../../../../prebuilts/lib/libtensorflow-microlite.a(micro_string.o)
 .bss           0x00000000        0x0 ../../../../../../prebuilts/lib/libtensorflow-microlite.a(micro_string.o)
 .text.MicroSnprintf
                0x00000000       0x1a ../../../../../../prebuilts/lib/libtensorflow-microlite.a(micro_string.o)
 .text          0x00000000        0x0 ../../../../../../prebuilts/lib/libtensorflow-microlite.a(simple_memory_allocator.o)
 .data          0x00000000        0x0 ../../../../../../prebuilts/lib/libtensorflow-microlite.a(simple_memory_allocator.o)
 .bss           0x00000000        0x0 ../../../../../../prebuilts/lib/libtensorflow-microlite.a(simple_memory_allocator.o)
 .text._ZN6tflite21SimpleMemoryAllocatorC2EPNS_13ErrorReporterEPhj
                0x00000000       0x18 ../../../../../../prebuilts/lib/libtensorflow-microlite.a(simple_memory_allocator.o)
 .text._ZNK6tflite21SimpleMemoryAllocator16GetHeadUsedBytesEv
                0x00000000        0x8 ../../../../../../prebuilts/lib/libtensorflow-microlite.a(simple_memory_allocator.o)
 .text._ZNK6tflite21SimpleMemoryAllocator16GetTailUsedBytesEv
                0x00000000        0x8 ../../../../../../prebuilts/lib/libtensorflow-microlite.a(simple_memory_allocator.o)
 .text._ZNK6tflite21SimpleMemoryAllocator12GetUsedBytesEv
                0x00000000       0x10 ../../../../../../prebuilts/lib/libtensorflow-microlite.a(simple_memory_allocator.o)
 .text._ZNK6tflite21SimpleMemoryAllocator13GetBufferSizeEv
                0x00000000        0x8 ../../../../../../prebuilts/lib/libtensorflow-microlite.a(simple_memory_allocator.o)
 .data._ZN11flatbuffers25flatbuffer_version_stringE
                0x00000000        0x4 ../../../../../../prebuilts/lib/libtensorflow-microlite.a(simple_memory_allocator.o)
 .text          0x00000000        0x0 ../../../../../../prebuilts/lib/libtensorflow-microlite.a(error_reporter.o)
 .data          0x00000000        0x0 ../../../../../../prebuilts/lib/libtensorflow-microlite.a(error_reporter.o)
 .bss           0x00000000        0x0 ../../../../../../prebuilts/lib/libtensorflow-microlite.a(error_reporter.o)
 .group         0x00000000        0x8 ../../../../../../prebuilts/lib/libtensorflow-microlite.a(flatbuffer_conversions.o)
 .group         0x00000000        0x8 ../../../../../../prebuilts/lib/libtensorflow-microlite.a(flatbuffer_conversions.o)
 .group         0x00000000        0x8 ../../../../../../prebuilts/lib/libtensorflow-microlite.a(flatbuffer_conversions.o)
 .group         0x00000000        0x8 ../../../../../../prebuilts/lib/libtensorflow-microlite.a(flatbuffer_conversions.o)
 .group         0x00000000        0x8 ../../../../../../prebuilts/lib/libtensorflow-microlite.a(flatbuffer_conversions.o)
 .group         0x00000000        0x8 ../../../../../../prebuilts/lib/libtensorflow-microlite.a(flatbuffer_conversions.o)
 .group         0x00000000        0x8 ../../../../../../prebuilts/lib/libtensorflow-microlite.a(flatbuffer_conversions.o)
 .text          0x00000000        0x0 ../../../../../../prebuilts/lib/libtensorflow-microlite.a(flatbuffer_conversions.o)
 .data          0x00000000        0x0 ../../../../../../prebuilts/lib/libtensorflow-microlite.a(flatbuffer_conversions.o)
 .bss           0x00000000        0x0 ../../../../../../prebuilts/lib/libtensorflow-microlite.a(flatbuffer_conversions.o)
 .text._ZNK11flatbuffers5Table22GetOptionalFieldOffsetEt
                0x00000000       0x12 ../../../../../../prebuilts/lib/libtensorflow-microlite.a(flatbuffer_conversions.o)
 .text._ZN6tflite15ParseDequantizeEPKNS_8OperatorENS_15BuiltinOperatorEPNS_13ErrorReporterEPNS_20BuiltinDataAllocatorEPPv
                0x00000000        0x4 ../../../../../../prebuilts/lib/libtensorflow-microlite.a(flatbuffer_conversions.o)
 .text._ZN6tflite13ParseQuantizeEPKNS_8OperatorENS_15BuiltinOperatorEPNS_13ErrorReporterEPNS_20BuiltinDataAllocatorEPPv
                0x00000000        0x4 ../../../../../../prebuilts/lib/libtensorflow-microlite.a(flatbuffer_conversions.o)
 .data._ZN11flatbuffers25flatbuffer_version_stringE
                0x00000000        0x4 ../../../../../../prebuilts/lib/libtensorflow-microlite.a(flatbuffer_conversions.o)
 .text          0x00000000        0x0 ../../../../../../prebuilts/lib/libtensorflow-microlite.a(tensor_utils.o)
 .data          0x00000000        0x0 ../../../../../../prebuilts/lib/libtensorflow-microlite.a(tensor_utils.o)
 .bss           0x00000000        0x0 ../../../../../../prebuilts/lib/libtensorflow-microlite.a(tensor_utils.o)
 .text          0x00000000        0x0 ../../../../../../prebuilts/lib/libtensorflow-microlite.a(dynamic_agent.o)
 .data          0x00000000        0x0 ../../../../../../prebuilts/lib/libtensorflow-microlite.a(dynamic_agent.o)
 .bss           0x00000000        0x0 ../../../../../../prebuilts/lib/libtensorflow-microlite.a(dynamic_agent.o)
 .text._ZN6tflite12DynamicAgent17EnableDynamicLoadEv
                0x00000000        0x8 ../../../../../../prebuilts/lib/libtensorflow-microlite.a(dynamic_agent.o)
 .text._ZN6tflite12DynamicAgent18DisableDynamicLoadEv
                0x00000000       0x18 ../../../../../../prebuilts/lib/libtensorflow-microlite.a(dynamic_agent.o)
 .text._ZN6tflite12DynamicAgent19IsFineGrainedOpcodeEl
                0x00000000       0x1c ../../../../../../prebuilts/lib/libtensorflow-microlite.a(dynamic_agent.o)
 .text._ZN6tflite12DynamicAgent20SetFineGrainedEnableEb
                0x00000000        0x6 ../../../../../../prebuilts/lib/libtensorflow-microlite.a(dynamic_agent.o)
 .text._ZN6tflite12DynamicAgent15SetSizeOrientedEb
                0x00000000        0x6 ../../../../../../prebuilts/lib/libtensorflow-microlite.a(dynamic_agent.o)
 .text._ZN6tflite12DynamicAgent19SetDynamicArenaSizeEj
                0x00000000       0x12 ../../../../../../prebuilts/lib/libtensorflow-microlite.a(dynamic_agent.o)
 .text._ZN6tflite12DynamicAgent18SetFineGrainedSizeEj
                0x00000000        0xe ../../../../../../prebuilts/lib/libtensorflow-microlite.a(dynamic_agent.o)
 .text._ZN6tflite12DynamicAgent14SetCacheEnableEb
                0x00000000        0x8 ../../../../../../prebuilts/lib/libtensorflow-microlite.a(dynamic_agent.o)
 .text._ZN6tflite12DynamicAgent11PrintConfigEv
                0x00000000       0x7c ../../../../../../prebuilts/lib/libtensorflow-microlite.a(dynamic_agent.o)
 .data._ZN11flatbuffers25flatbuffer_version_stringE
                0x00000000        0x4 ../../../../../../prebuilts/lib/libtensorflow-microlite.a(dynamic_agent.o)
 .text          0x00000000        0x0 ../../../../../../prebuilts/lib/libtensorflow-microlite.a(dynamic_context.o)
 .data          0x00000000        0x0 ../../../../../../prebuilts/lib/libtensorflow-microlite.a(dynamic_context.o)
 .bss           0x00000000        0x0 ../../../../../../prebuilts/lib/libtensorflow-microlite.a(dynamic_context.o)
 .text          0x00000000        0x0 ../../../../../../prebuilts/lib/libtensorflow-microlite.a(npu_platform.o)
 .data          0x00000000        0x0 ../../../../../../prebuilts/lib/libtensorflow-microlite.a(npu_platform.o)
 .bss           0x00000000        0x0 ../../../../../../prebuilts/lib/libtensorflow-microlite.a(npu_platform.o)
 .text.PlatMemoryCopy
                0x00000000        0x4 ../../../../../../prebuilts/lib/libtensorflow-microlite.a(npu_platform.o)
 .text          0x00000000        0x0 ../../../../../../prebuilts/lib/libtensorflow-microlite.a(pooling.o)
 .data          0x00000000        0x0 ../../../../../../prebuilts/lib/libtensorflow-microlite.a(pooling.o)
 .bss           0x00000000        0x0 ../../../../../../prebuilts/lib/libtensorflow-microlite.a(pooling.o)
 .text._ZN6tflite3ops5micro7pooling7MaxEvalEP13TfLiteContextP10TfLiteNode
                0x00000000      0x694 ../../../../../../prebuilts/lib/libtensorflow-microlite.a(pooling.o)
 .text._ZN6tflite3ops5micro20Register_MAX_POOL_2DEv
                0x00000000        0x8 ../../../../../../prebuilts/lib/libtensorflow-microlite.a(pooling.o)
 .data._ZZN6tflite3ops5micro20Register_MAX_POOL_2DEvE1r
                0x00000000       0x20 ../../../../../../prebuilts/lib/libtensorflow-microlite.a(pooling.o)
 .data._ZN11flatbuffers25flatbuffer_version_stringE
                0x00000000        0x4 ../../../../../../prebuilts/lib/libtensorflow-microlite.a(pooling.o)
 .text          0x00000000        0x0 ../../../../../../prebuilts/lib/libtensorflow-microlite.a(kernel_util.o)
 .data          0x00000000        0x0 ../../../../../../prebuilts/lib/libtensorflow-microlite.a(kernel_util.o)
 .bss           0x00000000        0x0 ../../../../../../prebuilts/lib/libtensorflow-microlite.a(kernel_util.o)
 .text._ZN6tflite32GetQuantizedConvolutionMultiplerEP13TfLiteContextPK12TfLiteTensorS4_S4_PS2_Pd
                0x00000000      0x108 ../../../../../../prebuilts/lib/libtensorflow-microlite.a(kernel_util.o)
 .text._ZN6tflite32GetQuantizedConvolutionMultiplerEP13TfLiteContextPK12TfLiteTensorS4_PS2_Pd
                0x00000000       0x68 ../../../../../../prebuilts/lib/libtensorflow-microlite.a(kernel_util.o)
 .text._ZN6tflite37PopulateConvolutionQuantizationParamsEP13TfLiteContextPK12TfLiteTensorS4_S4_PS2_RK21TfLiteFusedActivationPlPiS9_S9_S9_SA_
                0x00000000      0x318 ../../../../../../prebuilts/lib/libtensorflow-microlite.a(kernel_util.o)
 .text._ZN6tflite14HaveSameShapesEPK12TfLiteTensorS2_
                0x00000000       0x14 ../../../../../../prebuilts/lib/libtensorflow-microlite.a(kernel_util.o)
 .data._ZN11flatbuffers25flatbuffer_version_stringE
                0x00000000        0x4 ../../../../../../prebuilts/lib/libtensorflow-microlite.a(kernel_util.o)
 .text          0x00000000        0x0 ../../../../../../prebuilts/lib/libtensorflow-microlite.a(conv.o)
 .data          0x00000000        0x0 ../../../../../../prebuilts/lib/libtensorflow-microlite.a(conv.o)
 .bss           0x00000000        0x0 ../../../../../../prebuilts/lib/libtensorflow-microlite.a(conv.o)
 .text._ZN6tflite3ops5micro4conv15CalculateOpDataEP13TfLiteContextP10TfLiteNodeP16TfLiteConvParamsiiiiii10TfLiteTypePNS2_6OpDataE
                0x00000000      0x220 ../../../../../../prebuilts/lib/libtensorflow-microlite.a(conv.o)
 .data._ZN11flatbuffers25flatbuffer_version_stringE
                0x00000000        0x4 ../../../../../../prebuilts/lib/libtensorflow-microlite.a(conv.o)
 .text          0x00000000        0x0 ../../../../../../prebuilts/lib/libtensorflow-microlite.a(depthwise_conv.o)
 .data          0x00000000        0x0 ../../../../../../prebuilts/lib/libtensorflow-microlite.a(depthwise_conv.o)
 .bss           0x00000000        0x0 ../../../../../../prebuilts/lib/libtensorflow-microlite.a(depthwise_conv.o)
 .data._ZN11flatbuffers25flatbuffer_version_stringE
                0x00000000        0x4 ../../../../../../prebuilts/lib/libtensorflow-microlite.a(depthwise_conv.o)
 .text          0x00000000        0x0 ../../../../../../prebuilts/lib/libtensorflow-microlite.a(debug_log.o)
 .data          0x00000000        0x0 ../../../../../../prebuilts/lib/libtensorflow-microlite.a(debug_log.o)
 .bss           0x00000000        0x0 ../../../../../../prebuilts/lib/libtensorflow-microlite.a(debug_log.o)
 .text          0x00000000        0x0 ../../../../../../prebuilts/lib/libtensorflow-microlite.a(memory_helpers.o)
 .data          0x00000000        0x0 ../../../../../../prebuilts/lib/libtensorflow-microlite.a(memory_helpers.o)
 .bss           0x00000000        0x0 ../../../../../../prebuilts/lib/libtensorflow-microlite.a(memory_helpers.o)
 .data._ZN11flatbuffers25flatbuffer_version_stringE
                0x00000000        0x4 ../../../../../../prebuilts/lib/libtensorflow-microlite.a(memory_helpers.o)
 .group         0x00000000        0x8 ../../../../../../prebuilts/lib/libtensorflow-microlite.a(micro_allocator.o)
 .group         0x00000000        0x8 ../../../../../../prebuilts/lib/libtensorflow-microlite.a(micro_allocator.o)
 .group         0x00000000        0x8 ../../../../../../prebuilts/lib/libtensorflow-microlite.a(micro_allocator.o)
 .group         0x00000000        0x8 ../../../../../../prebuilts/lib/libtensorflow-microlite.a(micro_allocator.o)
 .group         0x00000000        0x8 ../../../../../../prebuilts/lib/libtensorflow-microlite.a(micro_allocator.o)
 .group         0x00000000        0x8 ../../../../../../prebuilts/lib/libtensorflow-microlite.a(micro_allocator.o)
 .group         0x00000000        0x8 ../../../../../../prebuilts/lib/libtensorflow-microlite.a(micro_allocator.o)
 .group         0x00000000        0x8 ../../../../../../prebuilts/lib/libtensorflow-microlite.a(micro_allocator.o)
 .group         0x00000000        0x8 ../../../../../../prebuilts/lib/libtensorflow-microlite.a(micro_allocator.o)
 .group         0x00000000        0x8 ../../../../../../prebuilts/lib/libtensorflow-microlite.a(micro_allocator.o)
 .group         0x00000000        0x8 ../../../../../../prebuilts/lib/libtensorflow-microlite.a(micro_allocator.o)
 .group         0x00000000        0x8 ../../../../../../prebuilts/lib/libtensorflow-microlite.a(micro_allocator.o)
 .text          0x00000000        0x0 ../../../../../../prebuilts/lib/libtensorflow-microlite.a(micro_allocator.o)
 .data          0x00000000        0x0 ../../../../../../prebuilts/lib/libtensorflow-microlite.a(micro_allocator.o)
 .bss           0x00000000        0x0 ../../../../../../prebuilts/lib/libtensorflow-microlite.a(micro_allocator.o)
 .text._ZNK11flatbuffers5Table22GetOptionalFieldOffsetEt
                0x00000000       0x12 ../../../../../../prebuilts/lib/libtensorflow-microlite.a(micro_allocator.o)
 .text._ZN6tflite14MicroAllocatorC2EPNS_21SimpleMemoryAllocatorEPNS_13ErrorReporterE
                0x00000000       0x18 ../../../../../../prebuilts/lib/libtensorflow-microlite.a(micro_allocator.o)
 .text._ZNK6tflite14MicroAllocator10used_bytesEv
                0x00000000        0x6 ../../../../../../prebuilts/lib/libtensorflow-microlite.a(micro_allocator.o)
 .text._ZNK6tflite14MicroAllocator14error_reporterEv
                0x00000000        0x4 ../../../../../../prebuilts/lib/libtensorflow-microlite.a(micro_allocator.o)
 .text._ZN11flatbuffers5Table10GetPointerIPKNS_6VectorIlEEEET_t
                0x00000000       0x12 ../../../../../../prebuilts/lib/libtensorflow-microlite.a(micro_allocator.o)
 .rodata._ZZN6tflite24EnumNamesBuiltinOperatorEvE5names
                0x00000000      0x200 ../../../../../../prebuilts/lib/libtensorflow-microlite.a(micro_allocator.o)
 .data._ZN11flatbuffers25flatbuffer_version_stringE
                0x00000000        0x4 ../../../../../../prebuilts/lib/libtensorflow-microlite.a(micro_allocator.o)
 .group         0x00000000        0x8 ../../../../../../prebuilts/lib/libtensorflow-microlite.a(greedy_memory_planner.o)
 .group         0x00000000        0x8 ../../../../../../prebuilts/lib/libtensorflow-microlite.a(greedy_memory_planner.o)
 .group         0x00000000        0x8 ../../../../../../prebuilts/lib/libtensorflow-microlite.a(greedy_memory_planner.o)
 .text          0x00000000        0x0 ../../../../../../prebuilts/lib/libtensorflow-microlite.a(greedy_memory_planner.o)
 .data          0x00000000        0x0 ../../../../../../prebuilts/lib/libtensorflow-microlite.a(greedy_memory_planner.o)
 .bss           0x00000000        0x0 ../../../../../../prebuilts/lib/libtensorflow-microlite.a(greedy_memory_planner.o)
 .text._ZN6tflite19GreedyMemoryPlanner15PrintMemoryPlanEPNS_13ErrorReporterE
                0x00000000      0x120 ../../../../../../prebuilts/lib/libtensorflow-microlite.a(greedy_memory_planner.o)
 .text._ZN6tflite19GreedyMemoryPlanner19DoAnyBuffersOverlapEPNS_13ErrorReporterE
                0x00000000       0xa8 ../../../../../../prebuilts/lib/libtensorflow-microlite.a(greedy_memory_planner.o)
 .text          0x00000000        0x0 ../../../../../../prebuilts/lib/libtensorflow-microlite.a(common.o)
 .data          0x00000000        0x0 ../../../../../../prebuilts/lib/libtensorflow-microlite.a(common.o)
 .bss           0x00000000        0x0 ../../../../../../prebuilts/lib/libtensorflow-microlite.a(common.o)
 .text.TfLiteIntArrayEqualsArray
                0x00000000       0x34 ../../../../../../prebuilts/lib/libtensorflow-microlite.a(common.o)
 .text.TfLiteIntArrayEqual
                0x00000000       0x1c ../../../../../../prebuilts/lib/libtensorflow-microlite.a(common.o)
 .text.TfLiteDelegateCreate
                0x00000000       0x10 ../../../../../../prebuilts/lib/libtensorflow-microlite.a(common.o)
 .group         0x00000000        0x8 ../../../../../../prebuilts/lib/libtensorflow-microlite.a(op_resolver.o)
 .group         0x00000000        0x8 ../../../../../../prebuilts/lib/libtensorflow-microlite.a(op_resolver.o)
 .text          0x00000000        0x0 ../../../../../../prebuilts/lib/libtensorflow-microlite.a(op_resolver.o)
 .data          0x00000000        0x0 ../../../../../../prebuilts/lib/libtensorflow-microlite.a(op_resolver.o)
 .bss           0x00000000        0x0 ../../../../../../prebuilts/lib/libtensorflow-microlite.a(op_resolver.o)
 .text._ZNK11flatbuffers5Table22GetOptionalFieldOffsetEt
                0x00000000       0x12 ../../../../../../prebuilts/lib/libtensorflow-microlite.a(op_resolver.o)
 .rodata._ZZN6tflite24EnumNamesBuiltinOperatorEvE5names
                0x00000000      0x200 ../../../../../../prebuilts/lib/libtensorflow-microlite.a(op_resolver.o)
 .data._ZN11flatbuffers25flatbuffer_version_stringE
                0x00000000        0x4 ../../../../../../prebuilts/lib/libtensorflow-microlite.a(op_resolver.o)
 .text          0x00000000        0x0 ../../../../../../prebuilts/lib/libtensorflow-microlite.a(quantization_util.o)
 .data          0x00000000        0x0 ../../../../../../prebuilts/lib/libtensorflow-microlite.a(quantization_util.o)
 .bss           0x00000000        0x0 ../../../../../../prebuilts/lib/libtensorflow-microlite.a(quantization_util.o)
 .text._ZN6tflite32QuantizeMultiplierGreaterThanOneEdPlPi
                0x00000000       0xa0 ../../../../../../prebuilts/lib/libtensorflow-microlite.a(quantization_util.o)
 .text._ZN6tflite35QuantizeMultiplierSmallerThanOneExpEdPlPi
                0x00000000       0xb0 ../../../../../../prebuilts/lib/libtensorflow-microlite.a(quantization_util.o)
 .text._ZN6tflite12IntegerFrExpEdPi
                0x00000000      0x108 ../../../../../../prebuilts/lib/libtensorflow-microlite.a(quantization_util.o)
 .text._ZN6tflite26DoubleFromFractionAndShiftExi
                0x00000000      0x114 ../../../../../../prebuilts/lib/libtensorflow-microlite.a(quantization_util.o)
 .text._ZN6tflite21IntegerDoubleMultiplyEdd
                0x00000000      0x2e0 ../../../../../../prebuilts/lib/libtensorflow-microlite.a(quantization_util.o)
 .text._ZN6tflite20IntegerDoubleCompareEdd
                0x00000000      0x1e8 ../../../../../../prebuilts/lib/libtensorflow-microlite.a(quantization_util.o)
 .text._ZN6tflite24PreprocessSoftmaxScalingEddiPlPi
                0x00000000       0xf0 ../../../../../../prebuilts/lib/libtensorflow-microlite.a(quantization_util.o)
 .text._ZN6tflite30PreprocessLogSoftmaxScalingExpEddiPlPiS0_S1_
                0x00000000      0x1c0 ../../../../../../prebuilts/lib/libtensorflow-microlite.a(quantization_util.o)
 .text._ZN6tflite20CalculateInputRadiusEiii
                0x00000000       0x88 ../../../../../../prebuilts/lib/libtensorflow-microlite.a(quantization_util.o)
 .text._ZN6tflite22NudgeQuantizationRangeEffiiPfS0_S0_
                0x00000000       0xa0 ../../../../../../prebuilts/lib/libtensorflow-microlite.a(quantization_util.o)
 .text._ZN6tflite17FakeQuantizeArrayEfffPKfPff
                0x00000000       0x98 ../../../../../../prebuilts/lib/libtensorflow-microlite.a(quantization_util.o)
 .text._ZN6tflite11CheckedLog2EfPi
                0x00000000       0x60 ../../../../../../prebuilts/lib/libtensorflow-microlite.a(quantization_util.o)
 .text._ZN6tflite23QuantizeMultiplierArrayEPKdjPlPi
                0x00000000       0xa8 ../../../../../../prebuilts/lib/libtensorflow-microlite.a(quantization_util.o)
 .text          0x00000000        0x0 ../../../../../../prebuilts/lib/libcmsis.a(arm_convolve_wrapper_s8.o)
 .data          0x00000000        0x0 ../../../../../../prebuilts/lib/libcmsis.a(arm_convolve_wrapper_s8.o)
 .bss           0x00000000        0x0 ../../../../../../prebuilts/lib/libcmsis.a(arm_convolve_wrapper_s8.o)
 .text          0x00000000        0x0 ../../../../../../prebuilts/lib/libcmsis.a(arm_depthwise_conv_s8.o)
 .data          0x00000000        0x0 ../../../../../../prebuilts/lib/libcmsis.a(arm_depthwise_conv_s8.o)
 .bss           0x00000000        0x0 ../../../../../../prebuilts/lib/libcmsis.a(arm_depthwise_conv_s8.o)
 .text          0x00000000        0x0 ../../../../../../prebuilts/lib/libcmsis.a(arm_depthwise_conv_s8_opt.o)
 .data          0x00000000        0x0 ../../../../../../prebuilts/lib/libcmsis.a(arm_depthwise_conv_s8_opt.o)
 .bss           0x00000000        0x0 ../../../../../../prebuilts/lib/libcmsis.a(arm_depthwise_conv_s8_opt.o)
 .text          0x00000000        0x0 ../../../../../../prebuilts/lib/libcmsis.a(arm_depthwise_conv_u8_basic_ver1.o)
 .data          0x00000000        0x0 ../../../../../../prebuilts/lib/libcmsis.a(arm_depthwise_conv_u8_basic_ver1.o)
 .bss           0x00000000        0x0 ../../../../../../prebuilts/lib/libcmsis.a(arm_depthwise_conv_u8_basic_ver1.o)
 .text          0x00000000        0x0 ../../../../../../prebuilts/lib/libcmsis.a(arm_q7_to_q15_with_offset.o)
 .data          0x00000000        0x0 ../../../../../../prebuilts/lib/libcmsis.a(arm_q7_to_q15_with_offset.o)
 .bss           0x00000000        0x0 ../../../../../../prebuilts/lib/libcmsis.a(arm_q7_to_q15_with_offset.o)
 .text          0x00000000        0x0 ../../../../../../prebuilts/lib/libcmsis.a(arm_avgpool_s8.o)
 .data          0x00000000        0x0 ../../../../../../prebuilts/lib/libcmsis.a(arm_avgpool_s8.o)
 .bss           0x00000000        0x0 ../../../../../../prebuilts/lib/libcmsis.a(arm_avgpool_s8.o)
 .text          0x00000000        0x0 ../../../../../../prebuilts/lib/libcmsis.a(arm_max_pool_s8_opt.o)
 .data          0x00000000        0x0 ../../../../../../prebuilts/lib/libcmsis.a(arm_max_pool_s8_opt.o)
 .bss           0x00000000        0x0 ../../../../../../prebuilts/lib/libcmsis.a(arm_max_pool_s8_opt.o)
 .text.arm_max_pool_s8_opt
                0x00000000      0x470 ../../../../../../prebuilts/lib/libcmsis.a(arm_max_pool_s8_opt.o)
 .comment       0x00000000       0x76 ../../../../../../prebuilts/lib/libcmsis.a(arm_max_pool_s8_opt.o)
 .ARM.attributes
                0x00000000       0x34 ../../../../../../prebuilts/lib/libcmsis.a(arm_max_pool_s8_opt.o)
 .text          0x00000000        0x0 ../../../../../../prebuilts/lib/libcmsis.a(arm_convolve_1x1_s8_fast.o)
 .data          0x00000000        0x0 ../../../../../../prebuilts/lib/libcmsis.a(arm_convolve_1x1_s8_fast.o)
 .bss           0x00000000        0x0 ../../../../../../prebuilts/lib/libcmsis.a(arm_convolve_1x1_s8_fast.o)
 .text          0x00000000        0x0 ../../../../../../prebuilts/lib/libcmsis.a(arm_convolve_1_x_n_s8.o)
 .data          0x00000000        0x0 ../../../../../../prebuilts/lib/libcmsis.a(arm_convolve_1_x_n_s8.o)
 .bss           0x00000000        0x0 ../../../../../../prebuilts/lib/libcmsis.a(arm_convolve_1_x_n_s8.o)
 .text          0x00000000        0x0 ../../../../../../prebuilts/lib/libcmsis.a(arm_convolve_s8.o)
 .data          0x00000000        0x0 ../../../../../../prebuilts/lib/libcmsis.a(arm_convolve_s8.o)
 .bss           0x00000000        0x0 ../../../../../../prebuilts/lib/libcmsis.a(arm_convolve_s8.o)
 .text          0x00000000        0x0 ../../../../../../prebuilts/lib/libcmsis.a(arm_nn_mat_mult_kernel_s8_s16.o)
 .data          0x00000000        0x0 ../../../../../../prebuilts/lib/libcmsis.a(arm_nn_mat_mult_kernel_s8_s16.o)
 .bss           0x00000000        0x0 ../../../../../../prebuilts/lib/libcmsis.a(arm_nn_mat_mult_kernel_s8_s16.o)
 .text          0x00000000        0x0 ../../../../../../prebuilts/lib/libcmsis.a(arm_nn_accumulate_q7_to_q15.o)
 .data          0x00000000        0x0 ../../../../../../prebuilts/lib/libcmsis.a(arm_nn_accumulate_q7_to_q15.o)
 .bss           0x00000000        0x0 ../../../../../../prebuilts/lib/libcmsis.a(arm_nn_accumulate_q7_to_q15.o)
 .text          0x00000000        0x0 ../../../../../../prebuilts/lib/libcmsis.a(arm_nn_mat_mult_nt_t_s8.o)
 .data          0x00000000        0x0 ../../../../../../prebuilts/lib/libcmsis.a(arm_nn_mat_mult_nt_t_s8.o)
 .bss           0x00000000        0x0 ../../../../../../prebuilts/lib/libcmsis.a(arm_nn_mat_mult_nt_t_s8.o)
 .text          0x00000000        0x0 ../../../../../../prebuilts/lib/libcmsis.a(arm_q7_to_q15_no_shift.o)
 .data          0x00000000        0x0 ../../../../../../prebuilts/lib/libcmsis.a(arm_q7_to_q15_no_shift.o)
 .bss           0x00000000        0x0 ../../../../../../prebuilts/lib/libcmsis.a(arm_q7_to_q15_no_shift.o)
 .text          0x00000000        0x0 c:/progra~2/microsoft visual studio/2019/community/linux/gcc_arm/bin/../lib/gcc/arm-none-eabi/8.2.1/../../../../arm-none-eabi/lib/thumb/v7e-m+fp/hard\libstdc++_nano.a(guard.o)
 .data          0x00000000        0x0 c:/progra~2/microsoft visual studio/2019/community/linux/gcc_arm/bin/../lib/gcc/arm-none-eabi/8.2.1/../../../../arm-none-eabi/lib/thumb/v7e-m+fp/hard\libstdc++_nano.a(guard.o)
 .bss           0x00000000        0x0 c:/progra~2/microsoft visual studio/2019/community/linux/gcc_arm/bin/../lib/gcc/arm-none-eabi/8.2.1/../../../../arm-none-eabi/lib/thumb/v7e-m+fp/hard\libstdc++_nano.a(guard.o)
 .text.__cxa_guard_abort
                0x00000000        0x6 c:/progra~2/microsoft visual studio/2019/community/linux/gcc_arm/bin/../lib/gcc/arm-none-eabi/8.2.1/../../../../arm-none-eabi/lib/thumb/v7e-m+fp/hard\libstdc++_nano.a(guard.o)
 .text          0x00000000        0x0 c:/progra~2/microsoft visual studio/2019/community/linux/gcc_arm/bin/../lib/gcc/arm-none-eabi/8.2.1/../../../../arm-none-eabi/lib/thumb/v7e-m+fp/hard\libstdc++_nano.a(del_op.o)
 .data          0x00000000        0x0 c:/progra~2/microsoft visual studio/2019/community/linux/gcc_arm/bin/../lib/gcc/arm-none-eabi/8.2.1/../../../../arm-none-eabi/lib/thumb/v7e-m+fp/hard\libstdc++_nano.a(del_op.o)
 .bss           0x00000000        0x0 c:/progra~2/microsoft visual studio/2019/community/linux/gcc_arm/bin/../lib/gcc/arm-none-eabi/8.2.1/../../../../arm-none-eabi/lib/thumb/v7e-m+fp/hard\libstdc++_nano.a(del_op.o)
 .text          0x00000000        0x0 c:/progra~2/microsoft visual studio/2019/community/linux/gcc_arm/bin/../lib/gcc/arm-none-eabi/8.2.1/../../../../arm-none-eabi/lib/thumb/v7e-m+fp/hard\libstdc++_nano.a(pure.o)
 .data          0x00000000        0x0 c:/progra~2/microsoft visual studio/2019/community/linux/gcc_arm/bin/../lib/gcc/arm-none-eabi/8.2.1/../../../../arm-none-eabi/lib/thumb/v7e-m+fp/hard\libstdc++_nano.a(pure.o)
 .bss           0x00000000        0x0 c:/progra~2/microsoft visual studio/2019/community/linux/gcc_arm/bin/../lib/gcc/arm-none-eabi/8.2.1/../../../../arm-none-eabi/lib/thumb/v7e-m+fp/hard\libstdc++_nano.a(pure.o)
 .text.__cxa_deleted_virtual
                0x00000000        0x6 c:/progra~2/microsoft visual studio/2019/community/linux/gcc_arm/bin/../lib/gcc/arm-none-eabi/8.2.1/../../../../arm-none-eabi/lib/thumb/v7e-m+fp/hard\libstdc++_nano.a(pure.o)
 .text          0x00000000        0x0 c:/progra~2/microsoft visual studio/2019/community/linux/gcc_arm/bin/../lib/gcc/arm-none-eabi/8.2.1/../../../../arm-none-eabi/lib/thumb/v7e-m+fp/hard\libstdc++_nano.a(eh_terminate.o)
 .data          0x00000000        0x0 c:/progra~2/microsoft visual studio/2019/community/linux/gcc_arm/bin/../lib/gcc/arm-none-eabi/8.2.1/../../../../arm-none-eabi/lib/thumb/v7e-m+fp/hard\libstdc++_nano.a(eh_terminate.o)
 .bss           0x00000000        0x0 c:/progra~2/microsoft visual studio/2019/community/linux/gcc_arm/bin/../lib/gcc/arm-none-eabi/8.2.1/../../../../arm-none-eabi/lib/thumb/v7e-m+fp/hard\libstdc++_nano.a(eh_terminate.o)
 .text._ZSt13set_terminatePFvvE
                0x00000000       0x20 c:/progra~2/microsoft visual studio/2019/community/linux/gcc_arm/bin/../lib/gcc/arm-none-eabi/8.2.1/../../../../arm-none-eabi/lib/thumb/v7e-m+fp/hard\libstdc++_nano.a(eh_terminate.o)
 .text._ZN10__cxxabiv112__unexpectedEPFvvE
                0x00000000        0x8 c:/progra~2/microsoft visual studio/2019/community/linux/gcc_arm/bin/../lib/gcc/arm-none-eabi/8.2.1/../../../../arm-none-eabi/lib/thumb/v7e-m+fp/hard\libstdc++_nano.a(eh_terminate.o)
 .text._ZSt14set_unexpectedPFvvE
                0x00000000       0x20 c:/progra~2/microsoft visual studio/2019/community/linux/gcc_arm/bin/../lib/gcc/arm-none-eabi/8.2.1/../../../../arm-none-eabi/lib/thumb/v7e-m+fp/hard\libstdc++_nano.a(eh_terminate.o)
 .text._ZSt14get_unexpectedv
                0x00000000       0x10 c:/progra~2/microsoft visual studio/2019/community/linux/gcc_arm/bin/../lib/gcc/arm-none-eabi/8.2.1/../../../../arm-none-eabi/lib/thumb/v7e-m+fp/hard\libstdc++_nano.a(eh_terminate.o)
 .text._ZSt10unexpectedv
                0x00000000        0xa c:/progra~2/microsoft visual studio/2019/community/linux/gcc_arm/bin/../lib/gcc/arm-none-eabi/8.2.1/../../../../arm-none-eabi/lib/thumb/v7e-m+fp/hard\libstdc++_nano.a(eh_terminate.o)
 .text          0x00000000        0x0 c:/progra~2/microsoft visual studio/2019/community/linux/gcc_arm/bin/../lib/gcc/arm-none-eabi/8.2.1/../../../../arm-none-eabi/lib/thumb/v7e-m+fp/hard\libstdc++_nano.a(atexit_arm.o)
 .data          0x00000000        0x0 c:/progra~2/microsoft visual studio/2019/community/linux/gcc_arm/bin/../lib/gcc/arm-none-eabi/8.2.1/../../../../arm-none-eabi/lib/thumb/v7e-m+fp/hard\libstdc++_nano.a(atexit_arm.o)
 .bss           0x00000000        0x0 c:/progra~2/microsoft visual studio/2019/community/linux/gcc_arm/bin/../lib/gcc/arm-none-eabi/8.2.1/../../../../arm-none-eabi/lib/thumb/v7e-m+fp/hard\libstdc++_nano.a(atexit_arm.o)
 .text          0x00000000        0x0 c:/progra~2/microsoft visual studio/2019/community/linux/gcc_arm/bin/../lib/gcc/arm-none-eabi/8.2.1/../../../../arm-none-eabi/lib/thumb/v7e-m+fp/hard\libstdc++_nano.a(eh_term_handler.o)
 .data          0x00000000        0x0 c:/progra~2/microsoft visual studio/2019/community/linux/gcc_arm/bin/../lib/gcc/arm-none-eabi/8.2.1/../../../../arm-none-eabi/lib/thumb/v7e-m+fp/hard\libstdc++_nano.a(eh_term_handler.o)
 .bss           0x00000000        0x0 c:/progra~2/microsoft visual studio/2019/community/linux/gcc_arm/bin/../lib/gcc/arm-none-eabi/8.2.1/../../../../arm-none-eabi/lib/thumb/v7e-m+fp/hard\libstdc++_nano.a(eh_term_handler.o)
 .text          0x00000000        0x0 c:/progra~2/microsoft visual studio/2019/community/linux/gcc_arm/bin/../lib/gcc/arm-none-eabi/8.2.1/../../../../arm-none-eabi/lib/thumb/v7e-m+fp/hard\libstdc++_nano.a(eh_unex_handler.o)
 .data          0x00000000        0x0 c:/progra~2/microsoft visual studio/2019/community/linux/gcc_arm/bin/../lib/gcc/arm-none-eabi/8.2.1/../../../../arm-none-eabi/lib/thumb/v7e-m+fp/hard\libstdc++_nano.a(eh_unex_handler.o)
 .bss           0x00000000        0x0 c:/progra~2/microsoft visual studio/2019/community/linux/gcc_arm/bin/../lib/gcc/arm-none-eabi/8.2.1/../../../../arm-none-eabi/lib/thumb/v7e-m+fp/hard\libstdc++_nano.a(eh_unex_handler.o)
 .data._ZN10__cxxabiv120__unexpected_handlerE
                0x00000000        0x4 c:/progra~2/microsoft visual studio/2019/community/linux/gcc_arm/bin/../lib/gcc/arm-none-eabi/8.2.1/../../../../arm-none-eabi/lib/thumb/v7e-m+fp/hard\libstdc++_nano.a(eh_unex_handler.o)
 .ARM.attributes
                0x00000000       0x32 c:/progra~2/microsoft visual studio/2019/community/linux/gcc_arm/bin/../lib/gcc/arm-none-eabi/8.2.1/../../../../arm-none-eabi/lib/thumb/v7e-m+fp/hard\libstdc++_nano.a(eh_unex_handler.o)
 .data          0x00000000        0x0 c:/progra~2/microsoft visual studio/2019/community/linux/gcc_arm/bin/../lib/gcc/arm-none-eabi/8.2.1/thumb/v7e-m+fp/hard\libgcc.a(_arm_addsubdf3.o)
 .bss           0x00000000        0x0 c:/progra~2/microsoft visual studio/2019/community/linux/gcc_arm/bin/../lib/gcc/arm-none-eabi/8.2.1/thumb/v7e-m+fp/hard\libgcc.a(_arm_addsubdf3.o)
 .data          0x00000000        0x0 c:/progra~2/microsoft visual studio/2019/community/linux/gcc_arm/bin/../lib/gcc/arm-none-eabi/8.2.1/thumb/v7e-m+fp/hard\libgcc.a(_arm_muldivdf3.o)
 .bss           0x00000000        0x0 c:/progra~2/microsoft visual studio/2019/community/linux/gcc_arm/bin/../lib/gcc/arm-none-eabi/8.2.1/thumb/v7e-m+fp/hard\libgcc.a(_arm_muldivdf3.o)
 .data          0x00000000        0x0 c:/progra~2/microsoft visual studio/2019/community/linux/gcc_arm/bin/../lib/gcc/arm-none-eabi/8.2.1/thumb/v7e-m+fp/hard\libgcc.a(_arm_cmpdf2.o)
 .bss           0x00000000        0x0 c:/progra~2/microsoft visual studio/2019/community/linux/gcc_arm/bin/../lib/gcc/arm-none-eabi/8.2.1/thumb/v7e-m+fp/hard\libgcc.a(_arm_cmpdf2.o)
 .data          0x00000000        0x0 c:/progra~2/microsoft visual studio/2019/community/linux/gcc_arm/bin/../lib/gcc/arm-none-eabi/8.2.1/thumb/v7e-m+fp/hard\libgcc.a(_arm_fixdfsi.o)
 .bss           0x00000000        0x0 c:/progra~2/microsoft visual studio/2019/community/linux/gcc_arm/bin/../lib/gcc/arm-none-eabi/8.2.1/thumb/v7e-m+fp/hard\libgcc.a(_arm_fixdfsi.o)
 .data          0x00000000        0x0 c:/progra~2/microsoft visual studio/2019/community/linux/gcc_arm/bin/../lib/gcc/arm-none-eabi/8.2.1/thumb/v7e-m+fp/hard\libgcc.a(_arm_fixunsdfsi.o)
 .bss           0x00000000        0x0 c:/progra~2/microsoft visual studio/2019/community/linux/gcc_arm/bin/../lib/gcc/arm-none-eabi/8.2.1/thumb/v7e-m+fp/hard\libgcc.a(_arm_fixunsdfsi.o)
 .data          0x00000000        0x0 c:/progra~2/microsoft visual studio/2019/community/linux/gcc_arm/bin/../lib/gcc/arm-none-eabi/8.2.1/thumb/v7e-m+fp/hard\libgcc.a(_arm_truncdfsf2.o)
 .bss           0x00000000        0x0 c:/progra~2/microsoft visual studio/2019/community/linux/gcc_arm/bin/../lib/gcc/arm-none-eabi/8.2.1/thumb/v7e-m+fp/hard\libgcc.a(_arm_truncdfsf2.o)
 .data          0x00000000        0x0 c:/progra~2/microsoft visual studio/2019/community/linux/gcc_arm/bin/../lib/gcc/arm-none-eabi/8.2.1/thumb/v7e-m+fp/hard\libgcc.a(_aeabi_uldivmod.o)
 .bss           0x00000000        0x0 c:/progra~2/microsoft visual studio/2019/community/linux/gcc_arm/bin/../lib/gcc/arm-none-eabi/8.2.1/thumb/v7e-m+fp/hard\libgcc.a(_aeabi_uldivmod.o)
 .data          0x00000000        0x0 c:/progra~2/microsoft visual studio/2019/community/linux/gcc_arm/bin/../lib/gcc/arm-none-eabi/8.2.1/thumb/v7e-m+fp/hard\libgcc.a(_fixdfdi.o)
 .bss           0x00000000        0x0 c:/progra~2/microsoft visual studio/2019/community/linux/gcc_arm/bin/../lib/gcc/arm-none-eabi/8.2.1/thumb/v7e-m+fp/hard\libgcc.a(_fixdfdi.o)
 .data          0x00000000        0x0 c:/progra~2/microsoft visual studio/2019/community/linux/gcc_arm/bin/../lib/gcc/arm-none-eabi/8.2.1/thumb/v7e-m+fp/hard\libgcc.a(_fixunsdfdi.o)
 .bss           0x00000000        0x0 c:/progra~2/microsoft visual studio/2019/community/linux/gcc_arm/bin/../lib/gcc/arm-none-eabi/8.2.1/thumb/v7e-m+fp/hard\libgcc.a(_fixunsdfdi.o)
 .data          0x00000000        0x0 c:/progra~2/microsoft visual studio/2019/community/linux/gcc_arm/bin/../lib/gcc/arm-none-eabi/8.2.1/thumb/v7e-m+fp/hard\libgcc.a(_udivmoddi4.o)
 .bss           0x00000000        0x0 c:/progra~2/microsoft visual studio/2019/community/linux/gcc_arm/bin/../lib/gcc/arm-none-eabi/8.2.1/thumb/v7e-m+fp/hard\libgcc.a(_udivmoddi4.o)
 .ARM.extab     0x00000000        0x0 c:/progra~2/microsoft visual studio/2019/community/linux/gcc_arm/bin/../lib/gcc/arm-none-eabi/8.2.1/thumb/v7e-m+fp/hard\libgcc.a(_udivmoddi4.o)
 .data          0x00000000        0x0 c:/progra~2/microsoft visual studio/2019/community/linux/gcc_arm/bin/../lib/gcc/arm-none-eabi/8.2.1/thumb/v7e-m+fp/hard\libgcc.a(_dvmd_tls.o)
 .bss           0x00000000        0x0 c:/progra~2/microsoft visual studio/2019/community/linux/gcc_arm/bin/../lib/gcc/arm-none-eabi/8.2.1/thumb/v7e-m+fp/hard\libgcc.a(_dvmd_tls.o)
 .data          0x00000000        0x0 lib/MT3620_M4_Driver/lib/MT3620_M4_BSP/libMT3620_M4_BSP.a(nvic.c.obj)
 .bss           0x00000000        0x0 lib/MT3620_M4_Driver/lib/MT3620_M4_BSP/libMT3620_M4_BSP.a(cirq_common.c.obj)
 .data          0x00000000        0x0 lib/MT3620_M4_Driver/lib/MT3620_M4_BSP/libMT3620_M4_BSP.a(vector_table.c.obj)
 .bss           0x00000000        0x0 lib/MT3620_M4_Driver/lib/MT3620_M4_BSP/libMT3620_M4_BSP.a(vector_table.c.obj)
 .data          0x00000000        0x0 lib/MT3620_M4_Driver/lib/MT3620_M4_BSP/libMT3620_M4_BSP.a(startup_mt3620.s.obj)
 .bss           0x00000000        0x0 lib/MT3620_M4_Driver/lib/MT3620_M4_BSP/libMT3620_M4_BSP.a(startup_mt3620.s.obj)
 .data          0x00000000        0x0 lib/MT3620_M4_Driver/MT3620_M4_BSP/FreeRTOS/libMT3620_M4_FreeRTOS.a(queue.c.obj)
 .data          0x00000000        0x0 lib/MT3620_M4_Driver/MT3620_M4_BSP/FreeRTOS/libMT3620_M4_FreeRTOS.a(tasks.c.obj)
 .data          0x00000000        0x0 lib/MT3620_M4_Driver/MT3620_M4_BSP/FreeRTOS/libMT3620_M4_FreeRTOS.a(timers.c.obj)
 .data          0x00000000        0x0 lib/MT3620_M4_Driver/MT3620_M4_BSP/FreeRTOS/libMT3620_M4_FreeRTOS.a(heap_4.c.obj)
 .data          0x00000000        0x0 lib/MT3620_M4_Driver/MT3620_M4_BSP/FreeRTOS/libMT3620_M4_FreeRTOS.a(list.c.obj)
 .bss           0x00000000        0x0 lib/MT3620_M4_Driver/MT3620_M4_BSP/FreeRTOS/libMT3620_M4_FreeRTOS.a(list.c.obj)
 .text          0x00000000        0x0 c:/progra~2/microsoft visual studio/2019/community/linux/gcc_arm/bin/../lib/gcc/arm-none-eabi/8.2.1/../../../../arm-none-eabi/lib/thumb/v7e-m+fp/hard\libm.a(lib_a-s_floor.o)
 .data          0x00000000        0x0 c:/progra~2/microsoft visual studio/2019/community/linux/gcc_arm/bin/../lib/gcc/arm-none-eabi/8.2.1/../../../../arm-none-eabi/lib/thumb/v7e-m+fp/hard\libm.a(lib_a-s_floor.o)
 .bss           0x00000000        0x0 c:/progra~2/microsoft visual studio/2019/community/linux/gcc_arm/bin/../lib/gcc/arm-none-eabi/8.2.1/../../../../arm-none-eabi/lib/thumb/v7e-m+fp/hard\libm.a(lib_a-s_floor.o)
 .text.floor    0x00000000      0x108 c:/progra~2/microsoft visual studio/2019/community/linux/gcc_arm/bin/../lib/gcc/arm-none-eabi/8.2.1/../../../../arm-none-eabi/lib/thumb/v7e-m+fp/hard\libm.a(lib_a-s_floor.o)
 .debug_frame   0x00000000       0x30 c:/progra~2/microsoft visual studio/2019/community/linux/gcc_arm/bin/../lib/gcc/arm-none-eabi/8.2.1/../../../../arm-none-eabi/lib/thumb/v7e-m+fp/hard\libm.a(lib_a-s_floor.o)
 .ARM.attributes
                0x00000000       0x34 c:/progra~2/microsoft visual studio/2019/community/linux/gcc_arm/bin/../lib/gcc/arm-none-eabi/8.2.1/../../../../arm-none-eabi/lib/thumb/v7e-m+fp/hard\libm.a(lib_a-s_floor.o)
 .text          0x00000000        0x0 c:/progra~2/microsoft visual studio/2019/community/linux/gcc_arm/bin/../lib/gcc/arm-none-eabi/8.2.1/../../../../arm-none-eabi/lib/thumb/v7e-m+fp/hard\libm.a(lib_a-s_frexp.o)
 .data          0x00000000        0x0 c:/progra~2/microsoft visual studio/2019/community/linux/gcc_arm/bin/../lib/gcc/arm-none-eabi/8.2.1/../../../../arm-none-eabi/lib/thumb/v7e-m+fp/hard\libm.a(lib_a-s_frexp.o)
 .bss           0x00000000        0x0 c:/progra~2/microsoft visual studio/2019/community/linux/gcc_arm/bin/../lib/gcc/arm-none-eabi/8.2.1/../../../../arm-none-eabi/lib/thumb/v7e-m+fp/hard\libm.a(lib_a-s_frexp.o)
 .text          0x00000000        0x0 c:/progra~2/microsoft visual studio/2019/community/linux/gcc_arm/bin/../lib/gcc/arm-none-eabi/8.2.1/../../../../arm-none-eabi/lib/thumb/v7e-m+fp/hard\libm.a(lib_a-s_round.o)
 .data          0x00000000        0x0 c:/progra~2/microsoft visual studio/2019/community/linux/gcc_arm/bin/../lib/gcc/arm-none-eabi/8.2.1/../../../../arm-none-eabi/lib/thumb/v7e-m+fp/hard\libm.a(lib_a-s_round.o)
 .bss           0x00000000        0x0 c:/progra~2/microsoft visual studio/2019/community/linux/gcc_arm/bin/../lib/gcc/arm-none-eabi/8.2.1/../../../../arm-none-eabi/lib/thumb/v7e-m+fp/hard\libm.a(lib_a-s_round.o)
 .text          0x00000000        0x0 c:/progra~2/microsoft visual studio/2019/community/linux/gcc_arm/bin/../lib/gcc/arm-none-eabi/8.2.1/../../../../arm-none-eabi/lib/thumb/v7e-m+fp/hard\libm.a(lib_a-wf_log.o)
 .data          0x00000000        0x0 c:/progra~2/microsoft visual studio/2019/community/linux/gcc_arm/bin/../lib/gcc/arm-none-eabi/8.2.1/../../../../arm-none-eabi/lib/thumb/v7e-m+fp/hard\libm.a(lib_a-wf_log.o)
 .bss           0x00000000        0x0 c:/progra~2/microsoft visual studio/2019/community/linux/gcc_arm/bin/../lib/gcc/arm-none-eabi/8.2.1/../../../../arm-none-eabi/lib/thumb/v7e-m+fp/hard\libm.a(lib_a-wf_log.o)
 .text.logf     0x00000000      0x104 c:/progra~2/microsoft visual studio/2019/community/linux/gcc_arm/bin/../lib/gcc/arm-none-eabi/8.2.1/../../../../arm-none-eabi/lib/thumb/v7e-m+fp/hard\libm.a(lib_a-wf_log.o)
 .rodata.logf.str1.4
                0x00000000        0x9 c:/progra~2/microsoft visual studio/2019/community/linux/gcc_arm/bin/../lib/gcc/arm-none-eabi/8.2.1/../../../../arm-none-eabi/lib/thumb/v7e-m+fp/hard\libm.a(lib_a-wf_log.o)
 .debug_frame   0x00000000       0x50 c:/progra~2/microsoft visual studio/2019/community/linux/gcc_arm/bin/../lib/gcc/arm-none-eabi/8.2.1/../../../../arm-none-eabi/lib/thumb/v7e-m+fp/hard\libm.a(lib_a-wf_log.o)
 .ARM.attributes
                0x00000000       0x34 c:/progra~2/microsoft visual studio/2019/community/linux/gcc_arm/bin/../lib/gcc/arm-none-eabi/8.2.1/../../../../arm-none-eabi/lib/thumb/v7e-m+fp/hard\libm.a(lib_a-wf_log.o)
 .text          0x00000000        0x0 c:/progra~2/microsoft visual studio/2019/community/linux/gcc_arm/bin/../lib/gcc/arm-none-eabi/8.2.1/../../../../arm-none-eabi/lib/thumb/v7e-m+fp/hard\libm.a(lib_a-ef_log.o)
 .data          0x00000000        0x0 c:/progra~2/microsoft visual studio/2019/community/linux/gcc_arm/bin/../lib/gcc/arm-none-eabi/8.2.1/../../../../arm-none-eabi/lib/thumb/v7e-m+fp/hard\libm.a(lib_a-ef_log.o)
 .bss           0x00000000        0x0 c:/progra~2/microsoft visual studio/2019/community/linux/gcc_arm/bin/../lib/gcc/arm-none-eabi/8.2.1/../../../../arm-none-eabi/lib/thumb/v7e-m+fp/hard\libm.a(lib_a-ef_log.o)
 .text.__ieee754_logf
                0x00000000      0x1f4 c:/progra~2/microsoft visual studio/2019/community/linux/gcc_arm/bin/../lib/gcc/arm-none-eabi/8.2.1/../../../../arm-none-eabi/lib/thumb/v7e-m+fp/hard\libm.a(lib_a-ef_log.o)
 .debug_frame   0x00000000       0x48 c:/progra~2/microsoft visual studio/2019/community/linux/gcc_arm/bin/../lib/gcc/arm-none-eabi/8.2.1/../../../../arm-none-eabi/lib/thumb/v7e-m+fp/hard\libm.a(lib_a-ef_log.o)
 .ARM.attributes
                0x00000000       0x34 c:/progra~2/microsoft visual studio/2019/community/linux/gcc_arm/bin/../lib/gcc/arm-none-eabi/8.2.1/../../../../arm-none-eabi/lib/thumb/v7e-m+fp/hard\libm.a(lib_a-ef_log.o)
 .text          0x00000000        0x0 c:/progra~2/microsoft visual studio/2019/community/linux/gcc_arm/bin/../lib/gcc/arm-none-eabi/8.2.1/../../../../arm-none-eabi/lib/thumb/v7e-m+fp/hard\libm.a(lib_a-s_lib_ver.o)
 .data          0x00000000        0x0 c:/progra~2/microsoft visual studio/2019/community/linux/gcc_arm/bin/../lib/gcc/arm-none-eabi/8.2.1/../../../../arm-none-eabi/lib/thumb/v7e-m+fp/hard\libm.a(lib_a-s_lib_ver.o)
 .bss           0x00000000        0x0 c:/progra~2/microsoft visual studio/2019/community/linux/gcc_arm/bin/../lib/gcc/arm-none-eabi/8.2.1/../../../../arm-none-eabi/lib/thumb/v7e-m+fp/hard\libm.a(lib_a-s_lib_ver.o)
 .data.__fdlib_version
                0x00000000        0x1 c:/progra~2/microsoft visual studio/2019/community/linux/gcc_arm/bin/../lib/gcc/arm-none-eabi/8.2.1/../../../../arm-none-eabi/lib/thumb/v7e-m+fp/hard\libm.a(lib_a-s_lib_ver.o)
 .ARM.attributes
                0x00000000       0x32 c:/progra~2/microsoft visual studio/2019/community/linux/gcc_arm/bin/../lib/gcc/arm-none-eabi/8.2.1/../../../../arm-none-eabi/lib/thumb/v7e-m+fp/hard\libm.a(lib_a-s_lib_ver.o)
 .text          0x00000000        0x0 c:/progra~2/microsoft visual studio/2019/community/linux/gcc_arm/bin/../lib/gcc/arm-none-eabi/8.2.1/../../../../arm-none-eabi/lib/thumb/v7e-m+fp/hard\libm.a(lib_a-s_matherr.o)
 .data          0x00000000        0x0 c:/progra~2/microsoft visual studio/2019/community/linux/gcc_arm/bin/../lib/gcc/arm-none-eabi/8.2.1/../../../../arm-none-eabi/lib/thumb/v7e-m+fp/hard\libm.a(lib_a-s_matherr.o)
 .bss           0x00000000        0x0 c:/progra~2/microsoft visual studio/2019/community/linux/gcc_arm/bin/../lib/gcc/arm-none-eabi/8.2.1/../../../../arm-none-eabi/lib/thumb/v7e-m+fp/hard\libm.a(lib_a-s_matherr.o)
 .text.matherr  0x00000000        0x4 c:/progra~2/microsoft visual studio/2019/community/linux/gcc_arm/bin/../lib/gcc/arm-none-eabi/8.2.1/../../../../arm-none-eabi/lib/thumb/v7e-m+fp/hard\libm.a(lib_a-s_matherr.o)
 .debug_frame   0x00000000       0x20 c:/progra~2/microsoft visual studio/2019/community/linux/gcc_arm/bin/../lib/gcc/arm-none-eabi/8.2.1/../../../../arm-none-eabi/lib/thumb/v7e-m+fp/hard\libm.a(lib_a-s_matherr.o)
 .ARM.attributes
                0x00000000       0x34 c:/progra~2/microsoft visual studio/2019/community/linux/gcc_arm/bin/../lib/gcc/arm-none-eabi/8.2.1/../../../../arm-none-eabi/lib/thumb/v7e-m+fp/hard\libm.a(lib_a-s_matherr.o)
 .text          0x00000000        0x0 c:/progra~2/microsoft visual studio/2019/community/linux/gcc_arm/bin/../lib/gcc/arm-none-eabi/8.2.1/../../../../arm-none-eabi/lib/thumb/v7e-m+fp/hard\libm.a(lib_a-s_nan.o)
 .data          0x00000000        0x0 c:/progra~2/microsoft visual studio/2019/community/linux/gcc_arm/bin/../lib/gcc/arm-none-eabi/8.2.1/../../../../arm-none-eabi/lib/thumb/v7e-m+fp/hard\libm.a(lib_a-s_nan.o)
 .bss           0x00000000        0x0 c:/progra~2/microsoft visual studio/2019/community/linux/gcc_arm/bin/../lib/gcc/arm-none-eabi/8.2.1/../../../../arm-none-eabi/lib/thumb/v7e-m+fp/hard\libm.a(lib_a-s_nan.o)
 .text.nan      0x00000000       0x10 c:/progra~2/microsoft visual studio/2019/community/linux/gcc_arm/bin/../lib/gcc/arm-none-eabi/8.2.1/../../../../arm-none-eabi/lib/thumb/v7e-m+fp/hard\libm.a(lib_a-s_nan.o)
 .debug_frame   0x00000000       0x20 c:/progra~2/microsoft visual studio/2019/community/linux/gcc_arm/bin/../lib/gcc/arm-none-eabi/8.2.1/../../../../arm-none-eabi/lib/thumb/v7e-m+fp/hard\libm.a(lib_a-s_nan.o)
 .ARM.attributes
                0x00000000       0x34 c:/progra~2/microsoft visual studio/2019/community/linux/gcc_arm/bin/../lib/gcc/arm-none-eabi/8.2.1/../../../../arm-none-eabi/lib/thumb/v7e-m+fp/hard\libm.a(lib_a-s_nan.o)
 .text          0x00000000        0x0 c:/progra~2/microsoft visual studio/2019/community/linux/gcc_arm/bin/../lib/gcc/arm-none-eabi/8.2.1/../../../../arm-none-eabi/lib/thumb/v7e-m+fp/hard\libc_nano.a(lib_a-abort.o)
 .data          0x00000000        0x0 c:/progra~2/microsoft visual studio/2019/community/linux/gcc_arm/bin/../lib/gcc/arm-none-eabi/8.2.1/../../../../arm-none-eabi/lib/thumb/v7e-m+fp/hard\libc_nano.a(lib_a-abort.o)
 .bss           0x00000000        0x0 c:/progra~2/microsoft visual studio/2019/community/linux/gcc_arm/bin/../lib/gcc/arm-none-eabi/8.2.1/../../../../arm-none-eabi/lib/thumb/v7e-m+fp/hard\libc_nano.a(lib_a-abort.o)
 .text          0x00000000        0x0 c:/progra~2/microsoft visual studio/2019/community/linux/gcc_arm/bin/../lib/gcc/arm-none-eabi/8.2.1/../../../../arm-none-eabi/lib/thumb/v7e-m+fp/hard\libc_nano.a(lib_a-cxa_atexit.o)
 .data          0x00000000        0x0 c:/progra~2/microsoft visual studio/2019/community/linux/gcc_arm/bin/../lib/gcc/arm-none-eabi/8.2.1/../../../../arm-none-eabi/lib/thumb/v7e-m+fp/hard\libc_nano.a(lib_a-cxa_atexit.o)
 .bss           0x00000000        0x0 c:/progra~2/microsoft visual studio/2019/community/linux/gcc_arm/bin/../lib/gcc/arm-none-eabi/8.2.1/../../../../arm-none-eabi/lib/thumb/v7e-m+fp/hard\libc_nano.a(lib_a-cxa_atexit.o)
 .rodata.__cxa_atexit_dummy
                0x00000000        0x4 c:/progra~2/microsoft visual studio/2019/community/linux/gcc_arm/bin/../lib/gcc/arm-none-eabi/8.2.1/../../../../arm-none-eabi/lib/thumb/v7e-m+fp/hard\libc_nano.a(lib_a-cxa_atexit.o)
 .text          0x00000000        0x0 c:/progra~2/microsoft visual studio/2019/community/linux/gcc_arm/bin/../lib/gcc/arm-none-eabi/8.2.1/../../../../arm-none-eabi/lib/thumb/v7e-m+fp/hard\libc_nano.a(lib_a-errno.o)
 .data          0x00000000        0x0 c:/progra~2/microsoft visual studio/2019/community/linux/gcc_arm/bin/../lib/gcc/arm-none-eabi/8.2.1/../../../../arm-none-eabi/lib/thumb/v7e-m+fp/hard\libc_nano.a(lib_a-errno.o)
 .bss           0x00000000        0x0 c:/progra~2/microsoft visual studio/2019/community/linux/gcc_arm/bin/../lib/gcc/arm-none-eabi/8.2.1/../../../../arm-none-eabi/lib/thumb/v7e-m+fp/hard\libc_nano.a(lib_a-errno.o)
 .text.__errno  0x00000000        0xc c:/progra~2/microsoft visual studio/2019/community/linux/gcc_arm/bin/../lib/gcc/arm-none-eabi/8.2.1/../../../../arm-none-eabi/lib/thumb/v7e-m+fp/hard\libc_nano.a(lib_a-errno.o)
 .debug_frame   0x00000000       0x20 c:/progra~2/microsoft visual studio/2019/community/linux/gcc_arm/bin/../lib/gcc/arm-none-eabi/8.2.1/../../../../arm-none-eabi/lib/thumb/v7e-m+fp/hard\libc_nano.a(lib_a-errno.o)
 .ARM.attributes
                0x00000000       0x34 c:/progra~2/microsoft visual studio/2019/community/linux/gcc_arm/bin/../lib/gcc/arm-none-eabi/8.2.1/../../../../arm-none-eabi/lib/thumb/v7e-m+fp/hard\libc_nano.a(lib_a-errno.o)
 .text          0x00000000        0x0 c:/progra~2/microsoft visual studio/2019/community/linux/gcc_arm/bin/../lib/gcc/arm-none-eabi/8.2.1/../../../../arm-none-eabi/lib/thumb/v7e-m+fp/hard\libc_nano.a(lib_a-impure.o)
 .data          0x00000000        0x0 c:/progra~2/microsoft visual studio/2019/community/linux/gcc_arm/bin/../lib/gcc/arm-none-eabi/8.2.1/../../../../arm-none-eabi/lib/thumb/v7e-m+fp/hard\libc_nano.a(lib_a-impure.o)
 .bss           0x00000000        0x0 c:/progra~2/microsoft visual studio/2019/community/linux/gcc_arm/bin/../lib/gcc/arm-none-eabi/8.2.1/../../../../arm-none-eabi/lib/thumb/v7e-m+fp/hard\libc_nano.a(lib_a-impure.o)
 .rodata._global_impure_ptr
                0x00000000        0x4 c:/progra~2/microsoft visual studio/2019/community/linux/gcc_arm/bin/../lib/gcc/arm-none-eabi/8.2.1/../../../../arm-none-eabi/lib/thumb/v7e-m+fp/hard\libc_nano.a(lib_a-impure.o)
 .text          0x00000000        0x0 c:/progra~2/microsoft visual studio/2019/community/linux/gcc_arm/bin/../lib/gcc/arm-none-eabi/8.2.1/../../../../arm-none-eabi/lib/thumb/v7e-m+fp/hard\libc_nano.a(lib_a-malloc.o)
 .data          0x00000000        0x0 c:/progra~2/microsoft visual studio/2019/community/linux/gcc_arm/bin/../lib/gcc/arm-none-eabi/8.2.1/../../../../arm-none-eabi/lib/thumb/v7e-m+fp/hard\libc_nano.a(lib_a-malloc.o)
 .bss           0x00000000        0x0 c:/progra~2/microsoft visual studio/2019/community/linux/gcc_arm/bin/../lib/gcc/arm-none-eabi/8.2.1/../../../../arm-none-eabi/lib/thumb/v7e-m+fp/hard\libc_nano.a(lib_a-malloc.o)
 .text.malloc   0x00000000       0x10 c:/progra~2/microsoft visual studio/2019/community/linux/gcc_arm/bin/../lib/gcc/arm-none-eabi/8.2.1/../../../../arm-none-eabi/lib/thumb/v7e-m+fp/hard\libc_nano.a(lib_a-malloc.o)
 .text          0x00000000        0x0 c:/progra~2/microsoft visual studio/2019/community/linux/gcc_arm/bin/../lib/gcc/arm-none-eabi/8.2.1/../../../../arm-none-eabi/lib/thumb/v7e-m+fp/hard\libc_nano.a(lib_a-memcpy-stub.o)
 .data          0x00000000        0x0 c:/progra~2/microsoft visual studio/2019/community/linux/gcc_arm/bin/../lib/gcc/arm-none-eabi/8.2.1/../../../../arm-none-eabi/lib/thumb/v7e-m+fp/hard\libc_nano.a(lib_a-memcpy-stub.o)
 .bss           0x00000000        0x0 c:/progra~2/microsoft visual studio/2019/community/linux/gcc_arm/bin/../lib/gcc/arm-none-eabi/8.2.1/../../../../arm-none-eabi/lib/thumb/v7e-m+fp/hard\libc_nano.a(lib_a-memcpy-stub.o)
 .text          0x00000000        0x0 c:/progra~2/microsoft visual studio/2019/community/linux/gcc_arm/bin/../lib/gcc/arm-none-eabi/8.2.1/../../../../arm-none-eabi/lib/thumb/v7e-m+fp/hard\libc_nano.a(lib_a-memmove.o)
 .data          0x00000000        0x0 c:/progra~2/microsoft visual studio/2019/community/linux/gcc_arm/bin/../lib/gcc/arm-none-eabi/8.2.1/../../../../arm-none-eabi/lib/thumb/v7e-m+fp/hard\libc_nano.a(lib_a-memmove.o)
 .bss           0x00000000        0x0 c:/progra~2/microsoft visual studio/2019/community/linux/gcc_arm/bin/../lib/gcc/arm-none-eabi/8.2.1/../../../../arm-none-eabi/lib/thumb/v7e-m+fp/hard\libc_nano.a(lib_a-memmove.o)
 .text.memmove  0x00000000       0x34 c:/progra~2/microsoft visual studio/2019/community/linux/gcc_arm/bin/../lib/gcc/arm-none-eabi/8.2.1/../../../../arm-none-eabi/lib/thumb/v7e-m+fp/hard\libc_nano.a(lib_a-memmove.o)
 .debug_frame   0x00000000       0x28 c:/progra~2/microsoft visual studio/2019/community/linux/gcc_arm/bin/../lib/gcc/arm-none-eabi/8.2.1/../../../../arm-none-eabi/lib/thumb/v7e-m+fp/hard\libc_nano.a(lib_a-memmove.o)
 .ARM.attributes
                0x00000000       0x34 c:/progra~2/microsoft visual studio/2019/community/linux/gcc_arm/bin/../lib/gcc/arm-none-eabi/8.2.1/../../../../arm-none-eabi/lib/thumb/v7e-m+fp/hard\libc_nano.a(lib_a-memmove.o)
 .text          0x00000000        0x0 c:/progra~2/microsoft visual studio/2019/community/linux/gcc_arm/bin/../lib/gcc/arm-none-eabi/8.2.1/../../../../arm-none-eabi/lib/thumb/v7e-m+fp/hard\libc_nano.a(lib_a-memset.o)
 .data          0x00000000        0x0 c:/progra~2/microsoft visual studio/2019/community/linux/gcc_arm/bin/../lib/gcc/arm-none-eabi/8.2.1/../../../../arm-none-eabi/lib/thumb/v7e-m+fp/hard\libc_nano.a(lib_a-memset.o)
 .bss           0x00000000        0x0 c:/progra~2/microsoft visual studio/2019/community/linux/gcc_arm/bin/../lib/gcc/arm-none-eabi/8.2.1/../../../../arm-none-eabi/lib/thumb/v7e-m+fp/hard\libc_nano.a(lib_a-memset.o)
 .text          0x00000000        0x0 c:/progra~2/microsoft visual studio/2019/community/linux/gcc_arm/bin/../lib/gcc/arm-none-eabi/8.2.1/../../../../arm-none-eabi/lib/thumb/v7e-m+fp/hard\libc_nano.a(lib_a-nano-freer.o)
 .data          0x00000000        0x0 c:/progra~2/microsoft visual studio/2019/community/linux/gcc_arm/bin/../lib/gcc/arm-none-eabi/8.2.1/../../../../arm-none-eabi/lib/thumb/v7e-m+fp/hard\libc_nano.a(lib_a-nano-freer.o)
 .bss           0x00000000        0x0 c:/progra~2/microsoft visual studio/2019/community/linux/gcc_arm/bin/../lib/gcc/arm-none-eabi/8.2.1/../../../../arm-none-eabi/lib/thumb/v7e-m+fp/hard\libc_nano.a(lib_a-nano-freer.o)
 .text          0x00000000        0x0 c:/progra~2/microsoft visual studio/2019/community/linux/gcc_arm/bin/../lib/gcc/arm-none-eabi/8.2.1/../../../../arm-none-eabi/lib/thumb/v7e-m+fp/hard\libc_nano.a(lib_a-nano-mallocr.o)
 .data          0x00000000        0x0 c:/progra~2/microsoft visual studio/2019/community/linux/gcc_arm/bin/../lib/gcc/arm-none-eabi/8.2.1/../../../../arm-none-eabi/lib/thumb/v7e-m+fp/hard\libc_nano.a(lib_a-nano-mallocr.o)
 .bss           0x00000000        0x0 c:/progra~2/microsoft visual studio/2019/community/linux/gcc_arm/bin/../lib/gcc/arm-none-eabi/8.2.1/../../../../arm-none-eabi/lib/thumb/v7e-m+fp/hard\libc_nano.a(lib_a-nano-mallocr.o)
 .text._malloc_r
                0x00000000       0xb4 c:/progra~2/microsoft visual studio/2019/community/linux/gcc_arm/bin/../lib/gcc/arm-none-eabi/8.2.1/../../../../arm-none-eabi/lib/thumb/v7e-m+fp/hard\libc_nano.a(lib_a-nano-mallocr.o)
 .bss.__malloc_sbrk_start
                0x00000000        0x4 c:/progra~2/microsoft visual studio/2019/community/linux/gcc_arm/bin/../lib/gcc/arm-none-eabi/8.2.1/../../../../arm-none-eabi/lib/thumb/v7e-m+fp/hard\libc_nano.a(lib_a-nano-mallocr.o)
 .text          0x00000000        0x0 c:/progra~2/microsoft visual studio/2019/community/linux/gcc_arm/bin/../lib/gcc/arm-none-eabi/8.2.1/../../../../arm-none-eabi/lib/thumb/v7e-m+fp/hard\libc_nano.a(lib_a-on_exit_args.o)
 .data          0x00000000        0x0 c:/progra~2/microsoft visual studio/2019/community/linux/gcc_arm/bin/../lib/gcc/arm-none-eabi/8.2.1/../../../../arm-none-eabi/lib/thumb/v7e-m+fp/hard\libc_nano.a(lib_a-on_exit_args.o)
 .bss           0x00000000        0x0 c:/progra~2/microsoft visual studio/2019/community/linux/gcc_arm/bin/../lib/gcc/arm-none-eabi/8.2.1/../../../../arm-none-eabi/lib/thumb/v7e-m+fp/hard\libc_nano.a(lib_a-on_exit_args.o)
 .bss._on_exit_args_instance
                0x00000000      0x108 c:/progra~2/microsoft visual studio/2019/community/linux/gcc_arm/bin/../lib/gcc/arm-none-eabi/8.2.1/../../../../arm-none-eabi/lib/thumb/v7e-m+fp/hard\libc_nano.a(lib_a-on_exit_args.o)
 .rodata.__on_exit_args
                0x00000000        0x4 c:/progra~2/microsoft visual studio/2019/community/linux/gcc_arm/bin/../lib/gcc/arm-none-eabi/8.2.1/../../../../arm-none-eabi/lib/thumb/v7e-m+fp/hard\libc_nano.a(lib_a-on_exit_args.o)
 .ARM.attributes
                0x00000000       0x32 c:/progra~2/microsoft visual studio/2019/community/linux/gcc_arm/bin/../lib/gcc/arm-none-eabi/8.2.1/../../../../arm-none-eabi/lib/thumb/v7e-m+fp/hard\libc_nano.a(lib_a-on_exit_args.o)
 .text          0x00000000        0x0 c:/progra~2/microsoft visual studio/2019/community/linux/gcc_arm/bin/../lib/gcc/arm-none-eabi/8.2.1/../../../../arm-none-eabi/lib/thumb/v7e-m+fp/hard\libc_nano.a(lib_a-sbrkr.o)
 .data          0x00000000        0x0 c:/progra~2/microsoft visual studio/2019/community/linux/gcc_arm/bin/../lib/gcc/arm-none-eabi/8.2.1/../../../../arm-none-eabi/lib/thumb/v7e-m+fp/hard\libc_nano.a(lib_a-sbrkr.o)
 .bss           0x00000000        0x0 c:/progra~2/microsoft visual studio/2019/community/linux/gcc_arm/bin/../lib/gcc/arm-none-eabi/8.2.1/../../../../arm-none-eabi/lib/thumb/v7e-m+fp/hard\libc_nano.a(lib_a-sbrkr.o)
 .text._sbrk_r  0x00000000       0x20 c:/progra~2/microsoft visual studio/2019/community/linux/gcc_arm/bin/../lib/gcc/arm-none-eabi/8.2.1/../../../../arm-none-eabi/lib/thumb/v7e-m+fp/hard\libc_nano.a(lib_a-sbrkr.o)
 .debug_frame   0x00000000       0x2c c:/progra~2/microsoft visual studio/2019/community/linux/gcc_arm/bin/../lib/gcc/arm-none-eabi/8.2.1/../../../../arm-none-eabi/lib/thumb/v7e-m+fp/hard\libc_nano.a(lib_a-sbrkr.o)
 .ARM.attributes
                0x00000000       0x34 c:/progra~2/microsoft visual studio/2019/community/linux/gcc_arm/bin/../lib/gcc/arm-none-eabi/8.2.1/../../../../arm-none-eabi/lib/thumb/v7e-m+fp/hard\libc_nano.a(lib_a-sbrkr.o)
 .text          0x00000000        0x0 c:/progra~2/microsoft visual studio/2019/community/linux/gcc_arm/bin/../lib/gcc/arm-none-eabi/8.2.1/../../../../arm-none-eabi/lib/thumb/v7e-m+fp/hard\libc_nano.a(lib_a-signal.o)
 .data          0x00000000        0x0 c:/progra~2/microsoft visual studio/2019/community/linux/gcc_arm/bin/../lib/gcc/arm-none-eabi/8.2.1/../../../../arm-none-eabi/lib/thumb/v7e-m+fp/hard\libc_nano.a(lib_a-signal.o)
 .bss           0x00000000        0x0 c:/progra~2/microsoft visual studio/2019/community/linux/gcc_arm/bin/../lib/gcc/arm-none-eabi/8.2.1/../../../../arm-none-eabi/lib/thumb/v7e-m+fp/hard\libc_nano.a(lib_a-signal.o)
 .text._init_signal_r
                0x00000000       0x28 c:/progra~2/microsoft visual studio/2019/community/linux/gcc_arm/bin/../lib/gcc/arm-none-eabi/8.2.1/../../../../arm-none-eabi/lib/thumb/v7e-m+fp/hard\libc_nano.a(lib_a-signal.o)
 .text._signal_r
                0x00000000       0x30 c:/progra~2/microsoft visual studio/2019/community/linux/gcc_arm/bin/../lib/gcc/arm-none-eabi/8.2.1/../../../../arm-none-eabi/lib/thumb/v7e-m+fp/hard\libc_nano.a(lib_a-signal.o)
 .text.__sigtramp_r
                0x00000000       0x48 c:/progra~2/microsoft visual studio/2019/community/linux/gcc_arm/bin/../lib/gcc/arm-none-eabi/8.2.1/../../../../arm-none-eabi/lib/thumb/v7e-m+fp/hard\libc_nano.a(lib_a-signal.o)
 .text.signal   0x00000000       0x10 c:/progra~2/microsoft visual studio/2019/community/linux/gcc_arm/bin/../lib/gcc/arm-none-eabi/8.2.1/../../../../arm-none-eabi/lib/thumb/v7e-m+fp/hard\libc_nano.a(lib_a-signal.o)
 .text._init_signal
                0x00000000        0xc c:/progra~2/microsoft visual studio/2019/community/linux/gcc_arm/bin/../lib/gcc/arm-none-eabi/8.2.1/../../../../arm-none-eabi/lib/thumb/v7e-m+fp/hard\libc_nano.a(lib_a-signal.o)
 .text.__sigtramp
                0x00000000       0x10 c:/progra~2/microsoft visual studio/2019/community/linux/gcc_arm/bin/../lib/gcc/arm-none-eabi/8.2.1/../../../../arm-none-eabi/lib/thumb/v7e-m+fp/hard\libc_nano.a(lib_a-signal.o)
 .text          0x00000000        0x0 c:/progra~2/microsoft visual studio/2019/community/linux/gcc_arm/bin/../lib/gcc/arm-none-eabi/8.2.1/../../../../arm-none-eabi/lib/thumb/v7e-m+fp/hard\libc_nano.a(lib_a-signalr.o)
 .data          0x00000000        0x0 c:/progra~2/microsoft visual studio/2019/community/linux/gcc_arm/bin/../lib/gcc/arm-none-eabi/8.2.1/../../../../arm-none-eabi/lib/thumb/v7e-m+fp/hard\libc_nano.a(lib_a-signalr.o)
 .bss           0x00000000        0x0 c:/progra~2/microsoft visual studio/2019/community/linux/gcc_arm/bin/../lib/gcc/arm-none-eabi/8.2.1/../../../../arm-none-eabi/lib/thumb/v7e-m+fp/hard\libc_nano.a(lib_a-signalr.o)
 .data          0x00000000        0x0 c:/progra~2/microsoft visual studio/2019/community/linux/gcc_arm/bin/../lib/gcc/arm-none-eabi/8.2.1/../../../../arm-none-eabi/lib/thumb/v7e-m+fp/hard\libc_nano.a(lib_a-strcmp.o)
 .bss           0x00000000        0x0 c:/progra~2/microsoft visual studio/2019/community/linux/gcc_arm/bin/../lib/gcc/arm-none-eabi/8.2.1/../../../../arm-none-eabi/lib/thumb/v7e-m+fp/hard\libc_nano.a(lib_a-strcmp.o)
 .text          0x00000000        0x0 c:/progra~2/microsoft visual studio/2019/community/linux/gcc_arm/bin/../lib/gcc/arm-none-eabi/8.2.1/../../../../arm-none-eabi/lib/thumb/v7e-m+fp/hard\libc_nano.a(lib_a-mlock.o)
 .data          0x00000000        0x0 c:/progra~2/microsoft visual studio/2019/community/linux/gcc_arm/bin/../lib/gcc/arm-none-eabi/8.2.1/../../../../arm-none-eabi/lib/thumb/v7e-m+fp/hard\libc_nano.a(lib_a-mlock.o)
 .bss           0x00000000        0x0 c:/progra~2/microsoft visual studio/2019/community/linux/gcc_arm/bin/../lib/gcc/arm-none-eabi/8.2.1/../../../../arm-none-eabi/lib/thumb/v7e-m+fp/hard\libc_nano.a(lib_a-mlock.o)
 .text          0x00000000        0x0 c:/progra~2/microsoft visual studio/2019/community/linux/gcc_arm/bin/../lib/gcc/arm-none-eabi/8.2.1/../../../../arm-none-eabi/lib/thumb/v7e-m+fp/hard\libc_nano.a(lib_a-reent.o)
 .data          0x00000000        0x0 c:/progra~2/microsoft visual studio/2019/community/linux/gcc_arm/bin/../lib/gcc/arm-none-eabi/8.2.1/../../../../arm-none-eabi/lib/thumb/v7e-m+fp/hard\libc_nano.a(lib_a-reent.o)
 .bss           0x00000000        0x0 c:/progra~2/microsoft visual studio/2019/community/linux/gcc_arm/bin/../lib/gcc/arm-none-eabi/8.2.1/../../../../arm-none-eabi/lib/thumb/v7e-m+fp/hard\libc_nano.a(lib_a-reent.o)
 .text.cleanup_glue
                0x00000000       0x1a c:/progra~2/microsoft visual studio/2019/community/linux/gcc_arm/bin/../lib/gcc/arm-none-eabi/8.2.1/../../../../arm-none-eabi/lib/thumb/v7e-m+fp/hard\libc_nano.a(lib_a-reent.o)
 .text._reclaim_reent
                0x00000000       0xb8 c:/progra~2/microsoft visual studio/2019/community/linux/gcc_arm/bin/../lib/gcc/arm-none-eabi/8.2.1/../../../../arm-none-eabi/lib/thumb/v7e-m+fp/hard\libc_nano.a(lib_a-reent.o)
 .text          0x00000000        0x0 c:/progra~2/microsoft visual studio/2019/community/linux/gcc_arm/bin/../lib/gcc/arm-none-eabi/8.2.1/../../../../arm-none-eabi/lib/thumb/v7e-m+fp/hard\libc_nano.a(lib_a-lock.o)
 .data          0x00000000        0x0 c:/progra~2/microsoft visual studio/2019/community/linux/gcc_arm/bin/../lib/gcc/arm-none-eabi/8.2.1/../../../../arm-none-eabi/lib/thumb/v7e-m+fp/hard\libc_nano.a(lib_a-lock.o)
 .bss           0x00000000        0x0 c:/progra~2/microsoft visual studio/2019/community/linux/gcc_arm/bin/../lib/gcc/arm-none-eabi/8.2.1/../../../../arm-none-eabi/lib/thumb/v7e-m+fp/hard\libc_nano.a(lib_a-lock.o)
 .text.__retarget_lock_init
                0x00000000        0x2 c:/progra~2/microsoft visual studio/2019/community/linux/gcc_arm/bin/../lib/gcc/arm-none-eabi/8.2.1/../../../../arm-none-eabi/lib/thumb/v7e-m+fp/hard\libc_nano.a(lib_a-lock.o)
 .text.__retarget_lock_init_recursive
                0x00000000        0x2 c:/progra~2/microsoft visual studio/2019/community/linux/gcc_arm/bin/../lib/gcc/arm-none-eabi/8.2.1/../../../../arm-none-eabi/lib/thumb/v7e-m+fp/hard\libc_nano.a(lib_a-lock.o)
 .text.__retarget_lock_close
                0x00000000        0x2 c:/progra~2/microsoft visual studio/2019/community/linux/gcc_arm/bin/../lib/gcc/arm-none-eabi/8.2.1/../../../../arm-none-eabi/lib/thumb/v7e-m+fp/hard\libc_nano.a(lib_a-lock.o)
 .text.__retarget_lock_close_recursive
                0x00000000        0x2 c:/progra~2/microsoft visual studio/2019/community/linux/gcc_arm/bin/../lib/gcc/arm-none-eabi/8.2.1/../../../../arm-none-eabi/lib/thumb/v7e-m+fp/hard\libc_nano.a(lib_a-lock.o)
 .text.__retarget_lock_acquire
                0x00000000        0x2 c:/progra~2/microsoft visual studio/2019/community/linux/gcc_arm/bin/../lib/gcc/arm-none-eabi/8.2.1/../../../../arm-none-eabi/lib/thumb/v7e-m+fp/hard\libc_nano.a(lib_a-lock.o)
 .text.__retarget_lock_try_acquire
                0x00000000        0x4 c:/progra~2/microsoft visual studio/2019/community/linux/gcc_arm/bin/../lib/gcc/arm-none-eabi/8.2.1/../../../../arm-none-eabi/lib/thumb/v7e-m+fp/hard\libc_nano.a(lib_a-lock.o)
 .text.__retarget_lock_try_acquire_recursive
                0x00000000        0x4 c:/progra~2/microsoft visual studio/2019/community/linux/gcc_arm/bin/../lib/gcc/arm-none-eabi/8.2.1/../../../../arm-none-eabi/lib/thumb/v7e-m+fp/hard\libc_nano.a(lib_a-lock.o)
 .text.__retarget_lock_release
                0x00000000        0x2 c:/progra~2/microsoft visual studio/2019/community/linux/gcc_arm/bin/../lib/gcc/arm-none-eabi/8.2.1/../../../../arm-none-eabi/lib/thumb/v7e-m+fp/hard\libc_nano.a(lib_a-lock.o)
 .text          0x00000000        0x0 c:/progra~2/microsoft visual studio/2019/community/linux/gcc_arm/bin/../lib/gcc/arm-none-eabi/8.2.1/../../../../arm-none-eabi/lib/thumb/v7e-m+fp/hard\libnosys.a(getpid.o)
 .data          0x00000000        0x0 c:/progra~2/microsoft visual studio/2019/community/linux/gcc_arm/bin/../lib/gcc/arm-none-eabi/8.2.1/../../../../arm-none-eabi/lib/thumb/v7e-m+fp/hard\libnosys.a(getpid.o)
 .bss           0x00000000        0x0 c:/progra~2/microsoft visual studio/2019/community/linux/gcc_arm/bin/../lib/gcc/arm-none-eabi/8.2.1/../../../../arm-none-eabi/lib/thumb/v7e-m+fp/hard\libnosys.a(getpid.o)
 .text          0x00000000        0x0 c:/progra~2/microsoft visual studio/2019/community/linux/gcc_arm/bin/../lib/gcc/arm-none-eabi/8.2.1/../../../../arm-none-eabi/lib/thumb/v7e-m+fp/hard\libnosys.a(kill.o)
 .data          0x00000000        0x0 c:/progra~2/microsoft visual studio/2019/community/linux/gcc_arm/bin/../lib/gcc/arm-none-eabi/8.2.1/../../../../arm-none-eabi/lib/thumb/v7e-m+fp/hard\libnosys.a(kill.o)
 .bss           0x00000000        0x0 c:/progra~2/microsoft visual studio/2019/community/linux/gcc_arm/bin/../lib/gcc/arm-none-eabi/8.2.1/../../../../arm-none-eabi/lib/thumb/v7e-m+fp/hard\libnosys.a(kill.o)
 .text          0x00000000        0x0 c:/progra~2/microsoft visual studio/2019/community/linux/gcc_arm/bin/../lib/gcc/arm-none-eabi/8.2.1/../../../../arm-none-eabi/lib/thumb/v7e-m+fp/hard\libnosys.a(sbrk.o)
 .data          0x00000000        0x0 c:/progra~2/microsoft visual studio/2019/community/linux/gcc_arm/bin/../lib/gcc/arm-none-eabi/8.2.1/../../../../arm-none-eabi/lib/thumb/v7e-m+fp/hard\libnosys.a(sbrk.o)
 .bss           0x00000000        0x0 c:/progra~2/microsoft visual studio/2019/community/linux/gcc_arm/bin/../lib/gcc/arm-none-eabi/8.2.1/../../../../arm-none-eabi/lib/thumb/v7e-m+fp/hard\libnosys.a(sbrk.o)
 .text._sbrk    0x00000000       0x1c c:/progra~2/microsoft visual studio/2019/community/linux/gcc_arm/bin/../lib/gcc/arm-none-eabi/8.2.1/../../../../arm-none-eabi/lib/thumb/v7e-m+fp/hard\libnosys.a(sbrk.o)
 .bss.heap_end.5501
                0x00000000        0x4 c:/progra~2/microsoft visual studio/2019/community/linux/gcc_arm/bin/../lib/gcc/arm-none-eabi/8.2.1/../../../../arm-none-eabi/lib/thumb/v7e-m+fp/hard\libnosys.a(sbrk.o)
 .debug_frame   0x00000000       0x20 c:/progra~2/microsoft visual studio/2019/community/linux/gcc_arm/bin/../lib/gcc/arm-none-eabi/8.2.1/../../../../arm-none-eabi/lib/thumb/v7e-m+fp/hard\libnosys.a(sbrk.o)
 .ARM.attributes
                0x00000000       0x34 c:/progra~2/microsoft visual studio/2019/community/linux/gcc_arm/bin/../lib/gcc/arm-none-eabi/8.2.1/../../../../arm-none-eabi/lib/thumb/v7e-m+fp/hard\libnosys.a(sbrk.o)
 .text          0x00000000        0x0 c:/progra~2/microsoft visual studio/2019/community/linux/gcc_arm/bin/../lib/gcc/arm-none-eabi/8.2.1/../../../../arm-none-eabi/lib/thumb/v7e-m+fp/hard\libnosys.a(_exit.o)
 .data          0x00000000        0x0 c:/progra~2/microsoft visual studio/2019/community/linux/gcc_arm/bin/../lib/gcc/arm-none-eabi/8.2.1/../../../../arm-none-eabi/lib/thumb/v7e-m+fp/hard\libnosys.a(_exit.o)
 .bss           0x00000000        0x0 c:/progra~2/microsoft visual studio/2019/community/linux/gcc_arm/bin/../lib/gcc/arm-none-eabi/8.2.1/../../../../arm-none-eabi/lib/thumb/v7e-m+fp/hard\libnosys.a(_exit.o)

Memory Configuration

Name             Origin             Length             Attributes
TCM              0x00100000         0x00030000         xrw
SYSRAM           0x22000000         0x00010000         xrw
FLASH            0x10000000         0x00100000         xr
*default*        0x00000000         0xffffffff

Linker script and memory map

LOAD CMakeFiles/azure-sphere-combo-cifar10-rtcore.dir/main.c.obj
LOAD CMakeFiles/azure-sphere-combo-cifar10-rtcore.dir/f0775b8a0a1a4f21b831569dbc2a2e8d/project/source/RTCORE_OS_HAL/src/os_hal_gpio.c.obj
LOAD CMakeFiles/azure-sphere-combo-cifar10-rtcore.dir/f0775b8a0a1a4f21b831569dbc2a2e8d/project/source/RTCORE_OS_HAL/src/os_hal_uart.c.obj
LOAD CMakeFiles/azure-sphere-combo-cifar10-rtcore.dir/f0775b8a0a1a4f21b831569dbc2a2e8d/project/source/RTCORE_OS_HAL/src/os_hal_mbox.c.obj
LOAD CMakeFiles/azure-sphere-combo-cifar10-rtcore.dir/e19389ff1b18dd4296d4faeafb009a24/source/RTCORE_OS_HAL/src/os_hal_mbox_shared_mem.c.obj
LOAD CMakeFiles/azure-sphere-combo-cifar10-rtcore.dir/f0775b8a0a1a4f21b831569dbc2a2e8d/project/app/lib_src/emergency_detect/emergency-detect.cc.obj
LOAD CMakeFiles/azure-sphere-combo-cifar10-rtcore.dir/f0775b8a0a1a4f21b831569dbc2a2e8d/project/app/lib_src/emergency_detect/main.cc.obj
LOAD lib/MT3620_M4_Driver/libMT3620_M4_Driver.a
LOAD ../../../../../../prebuilts/lib/libtensorflow-microlite.a
LOAD ../../../../../../prebuilts/lib/libcmsis.a
LOAD c:/progra~2/microsoft visual studio/2019/community/linux/gcc_arm/bin/../lib/gcc/arm-none-eabi/8.2.1/../../../../arm-none-eabi/lib/thumb/v7e-m+fp/hard\libstdc++_nano.a
LOAD c:/progra~2/microsoft visual studio/2019/community/linux/gcc_arm/bin/../lib/gcc/arm-none-eabi/8.2.1/../../../../arm-none-eabi/lib/thumb/v7e-m+fp/hard\libsupc++_nano.a
LOAD c:/progra~2/microsoft visual studio/2019/community/linux/gcc_arm/bin/../lib/gcc/arm-none-eabi/8.2.1/thumb/v7e-m+fp/hard\libgcc.a
LOAD c:/progra~2/microsoft visual studio/2019/community/linux/gcc_arm/bin/../lib/gcc/arm-none-eabi/8.2.1/../../../../arm-none-eabi/lib/thumb/v7e-m+fp/hard\libnosys.a
LOAD lib/MT3620_M4_Driver/lib/MT3620_M4_BSP/libMT3620_M4_BSP.a
LOAD lib/MT3620_M4_Driver/MT3620_M4_BSP/FreeRTOS/libMT3620_M4_FreeRTOS.a
LOAD c:/progra~2/microsoft visual studio/2019/community/linux/gcc_arm/bin/../lib/gcc/arm-none-eabi/8.2.1/../../../../arm-none-eabi/lib/thumb/v7e-m+fp/hard\libstdc++_nano.a
LOAD c:/progra~2/microsoft visual studio/2019/community/linux/gcc_arm/bin/../lib/gcc/arm-none-eabi/8.2.1/../../../../arm-none-eabi/lib/thumb/v7e-m+fp/hard\libm.a
LOAD c:/progra~2/microsoft visual studio/2019/community/linux/gcc_arm/bin/../lib/gcc/arm-none-eabi/8.2.1/../../../../arm-none-eabi/lib/thumb/v7e-m+fp/hard\libc_nano.a
START GROUP
LOAD c:/progra~2/microsoft visual studio/2019/community/linux/gcc_arm/bin/../lib/gcc/arm-none-eabi/8.2.1/thumb/v7e-m+fp/hard\libgcc.a
LOAD c:/progra~2/microsoft visual studio/2019/community/linux/gcc_arm/bin/../lib/gcc/arm-none-eabi/8.2.1/../../../../arm-none-eabi/lib/thumb/v7e-m+fp/hard\libg_nano.a
LOAD c:/progra~2/microsoft visual studio/2019/community/linux/gcc_arm/bin/../lib/gcc/arm-none-eabi/8.2.1/../../../../arm-none-eabi/lib/thumb/v7e-m+fp/hard\libc_nano.a
END GROUP
START GROUP
LOAD c:/progra~2/microsoft visual studio/2019/community/linux/gcc_arm/bin/../lib/gcc/arm-none-eabi/8.2.1/thumb/v7e-m+fp/hard\libgcc.a
LOAD c:/progra~2/microsoft visual studio/2019/community/linux/gcc_arm/bin/../lib/gcc/arm-none-eabi/8.2.1/../../../../arm-none-eabi/lib/thumb/v7e-m+fp/hard\libc_nano.a
LOAD c:/progra~2/microsoft visual studio/2019/community/linux/gcc_arm/bin/../lib/gcc/arm-none-eabi/8.2.1/../../../../arm-none-eabi/lib/thumb/v7e-m+fp/hard\libnosys.a
END GROUP
START GROUP
LOAD c:/progra~2/microsoft visual studio/2019/community/linux/gcc_arm/bin/../lib/gcc/arm-none-eabi/8.2.1/thumb/v7e-m+fp/hard\libgcc.a
LOAD c:/progra~2/microsoft visual studio/2019/community/linux/gcc_arm/bin/../lib/gcc/arm-none-eabi/8.2.1/../../../../arm-none-eabi/lib/thumb/v7e-m+fp/hard\libc_nano.a
LOAD c:/progra~2/microsoft visual studio/2019/community/linux/gcc_arm/bin/../lib/gcc/arm-none-eabi/8.2.1/../../../../arm-none-eabi/lib/thumb/v7e-m+fp/hard\libnosys.a
END GROUP

.text           0x00100000    0x142f8
 *(.vector_table)
 .vector_table  0x00100000      0x1d0 lib/MT3620_M4_Driver/lib/MT3620_M4_BSP/libMT3620_M4_BSP.a(vector_table.c.obj)
                0x00100000                __isr_vector
 *(.text)
 .text          0x001001d0      0x240 CMakeFiles/azure-sphere-combo-cifar10-rtcore.dir/main.c.obj
                0x0010030c                mbox_swint_cb
                0x00100350                mbox_fifo_cb
                0x00100390                vApplicationStackOverflowHook
                0x001003a4                vApplicationMallocFailedHook
                0x001003b4                _putchar
                0x001003d4                RTCoreMain
 .text          0x00100410      0x4b0 CMakeFiles/azure-sphere-combo-cifar10-rtcore.dir/f0775b8a0a1a4f21b831569dbc2a2e8d/project/source/RTCORE_OS_HAL/src/os_hal_uart.c.obj
                0x00100470                mtk_os_hal_uart_ctlr_init
                0x001004dc                mtk_os_hal_uart_ctlr_deinit
                0x00100500                mtk_os_hal_uart_dumpreg
                0x00100518                mtk_os_hal_uart_set_baudrate
                0x00100534                mtk_os_hal_uart_set_format
                0x00100558                mtk_os_hal_uart_get_char
                0x00100578                mtk_os_hal_uart_get_char_nowait
                0x00100598                mtk_os_hal_uart_put_char
                0x001005b0                mtk_os_hal_uart_clear_irq_status
                0x001005cc                mtk_os_hal_uart_set_irq
                0x001005e4                mtk_os_hal_uart_set_hw_fc
                0x001005fc                mtk_os_hal_uart_disable_sw_fc
                0x00100614                mtk_os_hal_uart_set_sw_fc
                0x00100640                mtk_os_hal_uart_dma_send_data
                0x00100780                mtk_os_hal_uart_dma_get_data
 .text          0x001008c0      0xe60 CMakeFiles/azure-sphere-combo-cifar10-rtcore.dir/f0775b8a0a1a4f21b831569dbc2a2e8d/project/source/RTCORE_OS_HAL/src/os_hal_mbox.c.obj
                0x00100c8c                mtk_os_hal_mbox_sw_int_register_cb
                0x00100df4                mtk_os_hal_mbox_sw_int_unregister_cb
                0x00100ed0                mtk_os_hal_mbox_fifo_register_cb
                0x00101140                mtk_os_hal_mbox_fifo_unregister_cb
                0x001012d0                mtk_os_hal_mbox_open_channel
                0x001013b4                mtk_os_hal_mbox_close_channel
                0x00101410                mtk_os_hal_mbox_fifo_read
                0x00101514                mtk_os_hal_mbox_fifo_write
                0x00101614                mtk_os_hal_mbox_ioctl
 .text          0x00101720      0x284 CMakeFiles/azure-sphere-combo-cifar10-rtcore.dir/e19389ff1b18dd4296d4faeafb009a24/source/RTCORE_OS_HAL/src/os_hal_mbox_shared_mem.c.obj
                0x00101720                GetIntercoreBuffers
                0x001017fc                EnqueueData
                0x001018b4                DequeueData
 *fill*         0x001019a4        0x4 
 .text          0x001019a8     0x1740 lib/MT3620_M4_Driver/libMT3620_M4_Driver.a(printf.c.obj)
                0x00102ffc                printf_
                0x00103028                sprintf_
                0x00103054                snprintf_
                0x0010307c                vprintf_
                0x0010309c                vsnprintf_
                0x001030b8                fctprintf
 .text          0x001030e8      0x4e4 lib/MT3620_M4_Driver/libMT3620_M4_Driver.a(mhal_uart.c.obj)
                0x00103128                mtk_mhal_uart_enable_clk
                0x00103140                mtk_mhal_uart_disable_clk
                0x00103158                mtk_mhal_uart_sw_reset
                0x0010316c                mtk_mhal_uart_dumpreg
                0x00103180                mtk_mhal_uart_hw_init
                0x001031ac                mtk_mhal_uart_set_baudrate
                0x001031d8                mtk_mhal_uart_set_format
                0x0010321c                mtk_mhal_uart_set_hw_fc
                0x0010323c                mtk_mhal_uart_disable_sw_fc
                0x00103250                mtk_mhal_uart_set_sw_fc
                0x00103288                mtk_mhal_uart_set_dma
                0x0010329c                mtk_mhal_uart_clear_irq_status
                0x001032b0                mtk_mhal_uart_set_irq
                0x001032c4                mtk_mhal_uart_putc
                0x001032d8                mtk_mhal_uart_getc
                0x001032f0                mtk_mhal_uart_getc_nowait
                0x00103304                mtk_mhal_uart_dma_tx_callback_register
                0x0010331c                mtk_mhal_uart_dma_rx_callback_register
                0x00103334                mtk_mhal_uart_allocate_dma_tx_ch
                0x00103350                mtk_mhal_uart_allocate_dma_rx_ch
                0x0010336c                mtk_mhal_uart_release_dma_tx_ch
                0x00103388                mtk_mhal_uart_release_dma_rx_ch
                0x001033a4                mtk_mhal_uart_dma_tx_config
                0x00103418                mtk_mhal_uart_dma_rx_config
                0x00103490                mtk_mhal_uart_start_dma_tx
                0x001034d8                mtk_mhal_uart_start_dma_rx
                0x0010350c                mtk_mhal_uart_stop_dma_tx
                0x00103534                mtk_mhal_uart_stop_dma_rx
                0x0010355c                mtk_mhal_uart_update_dma_tx_info
                0x00103594                mtk_mhal_uart_update_dma_rx_info
 .text          0x001035cc      0x404 lib/MT3620_M4_Driver/libMT3620_M4_Driver.a(hdl_uart.c.obj)
                0x001035cc                mtk_hdl_uart_cg_config
                0x001035f4                mtk_hdl_uart_reset
                0x00103618                mtk_hdl_uart_dmreg
                0x0010361c                mtk_hdl_uart_init
                0x00103640                mtk_hdl_uart_set_baudrate
                0x00103754                mtk_hdl_uart_set_format
                0x00103784                mtk_hdl_uart_dma_en
                0x001037bc                mtk_hdl_uart_tx_dma_handshake
                0x001037ec                mtk_hdl_uart_rx_dma_handshake
                0x0010381c                mtk_hdl_uart_clear_irq_status
                0x00103850                mtk_hdl_uart_set_irq
                0x0010385c                mtk_hdl_uart_set_hw_fc
                0x001038c4                mtk_hdl_uart_disable_sw_fc
                0x001038f4                mtk_hdl_uart_set_sw_fc
                0x00103994                mtk_hdl_uart_output_char
                0x001039b4                mtk_hdl_uart_input_char
 .text          0x001039d0      0x384 lib/MT3620_M4_Driver/libMT3620_M4_Driver.a(mhal_mbox.c.obj)
                0x001039d0                mtk_mhal_mbox_reset
                0x001039f4                mtk_mhal_mbox_fifo_read
                0x00103a74                mtk_mhal_mbox_fifo_write
                0x00103af8                mtk_mhal_mbox_ioctl
 .text          0x00103d54      0x18c lib/MT3620_M4_Driver/libMT3620_M4_Driver.a(hdl_mbox.c.obj)
                0x00103d54                mtk_hdl_mbox_sem_post
                0x00103d60                mtk_hdl_mbox_sem_pend
                0x00103d70                mtk_hdl_mbox_data_fifo_post
                0x00103d7c                mtk_hdl_mbox_cmd_fifo_post
                0x00103d88                mtk_hdl_mbox_get_post_fifo_cnt
                0x00103d98                mtk_hdl_mbox_data_fifo_acpt
                0x00103da8                mtk_hdl_mbox_cmd_fifo_acpt
                0x00103db8                mtk_hdl_mbox_get_acpt_fifo_cnt
                0x00103dc8                mtk_hdl_mbox_get_nf_thrs
                0x00103dd8                mtk_hdl_mbox_set_nf_thrs
                0x00103de8                mtk_hdl_mbox_get_ne_thrs
                0x00103df8                mtk_hdl_mbox_set_ne_thrs
                0x00103e08                mtk_hdl_mbox_trig_sw_int
                0x00103e18                mtk_hdl_mbox_sw_int_en
                0x00103e24                mtk_hdl_mbox_get_sw_int_en
                0x00103e34                mtk_hdl_mbox_sw_int_ctrl
                0x00103e64                mtk_hdl_mbox_get_sw_int_sts
                0x00103e74                mtk_hdl_mbox_clear_sw_int_sts
                0x00103e80                mtk_hdl_mbox_int_en
                0x00103eac                mtk_hdl_mbox_get_int_en
                0x00103ebc                mtk_hdl_mbox_get_int_sts
                0x00103ecc                mtk_hdl_mbox_clear_int_sts
                0x00103ed8                mtk_hdl_mbox_reset
 .text          0x00103ee0       0xc4 lib/MT3620_M4_Driver/libMT3620_M4_Driver.a(mhal_osai.c.obj)
                0x00103ee0                osai_delay_us
                0x00103f48                osai_delay_ms
                0x00103f60                osai_readl
                0x00103f64                osai_writel
                0x00103f68                osai_get_phyaddr
                0x00103f6c                osai_clean_cache
                0x00103f70                osai_invalid_cache
                0x00103f74                osai_dma_allocate_chan
                0x00103f78                osai_dma_config
                0x00103f7c                osai_dma_start
                0x00103f80                osai_dma_stop
                0x00103f84                osai_dma_set_param
                0x00103f88                osai_dma_get_param
                0x00103f8c                osai_dma_release_chan
                0x00103f90                osai_dma_get_status
                0x00103f94                osai_dma_update_vfifo_swptr
                0x00103f98                osai_dma_vff_read_data
                0x00103f9c                osai_dma_reset
                0x00103fa0                osai_dma_clr_dreq
 .text          0x00103fa4      0x378 c:/progra~2/microsoft visual studio/2019/community/linux/gcc_arm/bin/../lib/gcc/arm-none-eabi/8.2.1/thumb/v7e-m+fp/hard\libgcc.a(_arm_addsubdf3.o)
                0x00103fa4                __aeabi_drsub
                0x00103fac                __aeabi_dsub
                0x00103fac                __subdf3
                0x00103fb0                __aeabi_dadd
                0x00103fb0                __adddf3
                0x00104228                __floatunsidf
                0x00104228                __aeabi_ui2d
                0x00104248                __floatsidf
                0x00104248                __aeabi_i2d
                0x0010426c                __aeabi_f2d
                0x0010426c                __extendsfdf2
                0x001042b0                __floatundidf
                0x001042b0                __aeabi_ul2d
                0x001042c0                __floatdidf
                0x001042c0                __aeabi_l2d
 .text          0x0010431c      0x424 c:/progra~2/microsoft visual studio/2019/community/linux/gcc_arm/bin/../lib/gcc/arm-none-eabi/8.2.1/thumb/v7e-m+fp/hard\libgcc.a(_arm_muldivdf3.o)
                0x0010431c                __aeabi_dmul
                0x0010431c                __muldf3
                0x00104570                __divdf3
                0x00104570                __aeabi_ddiv
 .text          0x00104740      0x110 c:/progra~2/microsoft visual studio/2019/community/linux/gcc_arm/bin/../lib/gcc/arm-none-eabi/8.2.1/thumb/v7e-m+fp/hard\libgcc.a(_arm_cmpdf2.o)
                0x00104740                __gtdf2
                0x00104740                __gedf2
                0x00104748                __ltdf2
                0x00104748                __ledf2
                0x00104750                __nedf2
                0x00104750                __eqdf2
                0x00104750                __cmpdf2
                0x001047cc                __aeabi_cdrcmple
                0x001047dc                __aeabi_cdcmpeq
                0x001047dc                __aeabi_cdcmple
                0x001047ec                __aeabi_dcmpeq
                0x00104800                __aeabi_dcmplt
                0x00104814                __aeabi_dcmple
                0x00104828                __aeabi_dcmpge
                0x0010483c                __aeabi_dcmpgt
 .text          0x00104850       0x50 c:/progra~2/microsoft visual studio/2019/community/linux/gcc_arm/bin/../lib/gcc/arm-none-eabi/8.2.1/thumb/v7e-m+fp/hard\libgcc.a(_arm_fixdfsi.o)
                0x00104850                __aeabi_d2iz
                0x00104850                __fixdfsi
 .text          0x001048a0       0x40 c:/progra~2/microsoft visual studio/2019/community/linux/gcc_arm/bin/../lib/gcc/arm-none-eabi/8.2.1/thumb/v7e-m+fp/hard\libgcc.a(_arm_fixunsdfsi.o)
                0x001048a0                __aeabi_d2uiz
                0x001048a0                __fixunsdfsi
 .text          0x001048e0       0xa0 c:/progra~2/microsoft visual studio/2019/community/linux/gcc_arm/bin/../lib/gcc/arm-none-eabi/8.2.1/thumb/v7e-m+fp/hard\libgcc.a(_arm_truncdfsf2.o)
                0x001048e0                __truncdfsf2
                0x001048e0                __aeabi_d2f
 .text          0x00104980       0x30 c:/progra~2/microsoft visual studio/2019/community/linux/gcc_arm/bin/../lib/gcc/arm-none-eabi/8.2.1/thumb/v7e-m+fp/hard\libgcc.a(_aeabi_uldivmod.o)
                0x00104980                __aeabi_uldivmod
 .text          0x001049b0       0x30 c:/progra~2/microsoft visual studio/2019/community/linux/gcc_arm/bin/../lib/gcc/arm-none-eabi/8.2.1/thumb/v7e-m+fp/hard\libgcc.a(_fixdfdi.o)
                0x001049b0                __fixdfdi
                0x001049b0                __aeabi_d2lz
 .text          0x001049e0       0x3c c:/progra~2/microsoft visual studio/2019/community/linux/gcc_arm/bin/../lib/gcc/arm-none-eabi/8.2.1/thumb/v7e-m+fp/hard\libgcc.a(_fixunsdfdi.o)
                0x001049e0                __fixunsdfdi
                0x001049e0                __aeabi_d2ulz
 .text          0x00104a1c      0x2d0 c:/progra~2/microsoft visual studio/2019/community/linux/gcc_arm/bin/../lib/gcc/arm-none-eabi/8.2.1/thumb/v7e-m+fp/hard\libgcc.a(_udivmoddi4.o)
                0x00104a1c                __udivmoddi4
 .text          0x00104cec        0x4 c:/progra~2/microsoft visual studio/2019/community/linux/gcc_arm/bin/../lib/gcc/arm-none-eabi/8.2.1/thumb/v7e-m+fp/hard\libgcc.a(_dvmd_tls.o)
                0x00104cec                __aeabi_idiv0
                0x00104cec                __aeabi_ldiv0
 .text          0x00104cf0      0x298 lib/MT3620_M4_Driver/lib/MT3620_M4_BSP/libMT3620_M4_BSP.a(nvic.c.obj)
                0x00104cf0                SystmTick_Handler
                0x00104d00                NVIC_Register
                0x00104d40                NVIC_UnRegister
                0x00104d84                NVIC_SetupVectorTable
                0x00104dd4                NVIC_SWInt
                0x00104de0                NVIC_ISR_Check_and_backup
                0x00104dfc                NVIC_ISR_Restore
                0x00104e48                CM4_Install_NVIC
                0x00104f24                cm4_irq_set_sw_reset
                0x00104f34                cm4_irq_clear_sw_reset
                0x00104f44                cm4_irq_sw_reset
 .text          0x00104f88      0x7a0 lib/MT3620_M4_Driver/lib/MT3620_M4_BSP/libMT3620_M4_BSP.a(cirq_common.c.obj)
                0x00104f88                cirq_gpio_irq_ctl_set_level
                0x00105020                cirq_gpio_irq_ctl_set_edge
                0x001050b4                cirq_gpio_irq_ctl_set_edge2lvl
                0x0010514c                cirq_gpio_irq_ctl_clr_edge2lvl
                0x001051e0                cirq_gpio_irq_ctl_ack_edge2lvl
                0x00105278                cirq_irq_test_set_trigger
                0x00105378                cirq_irq_test_clr_trigger
                0x0010547c                cirq_irq_dis_set_trigger
                0x0010550c                cirq_irq_dis_clr_trigger
                0x001055b0                cirq_irq_ctl_set_level
                0x00105604                cirq_irq_ctl_set_edge
                0x0010566c                cirq_cm4_wic_enable
                0x001056d4                cirq_cm4_wic_disable
 .text          0x00105728        0x4 lib/MT3620_M4_Driver/lib/MT3620_M4_BSP/libMT3620_M4_BSP.a(vector_table.c.obj)
                0x00105728                MPU_Fault_Handler
                0x00105728                Bus_Fault_Handler
                0x00105728                Usage_Fault_Handler
                0x00105728                Debug_Monitor_Handler
                0x00105728                Hard_Fault_Handler
                0x00105728                NMI_Handler
 .text          0x0010572c       0x20 lib/MT3620_M4_Driver/lib/MT3620_M4_BSP/libMT3620_M4_BSP.a(startup_mt3620.s.obj)
                0x0010572c                Reset_Handler
 .text          0x0010574c     0x1548 lib/MT3620_M4_Driver/MT3620_M4_BSP/FreeRTOS/libMT3620_M4_FreeRTOS.a(queue.c.obj)
                0x001057c4                xQueueGenericReset
                0x00105850                xQueueGenericCreate
                0x001058e0                xQueueCreateCountingSemaphore
                0x00105968                xQueueGenericSend
                0x00105c80                xQueueCreateMutex
                0x00105cec                xQueueGiveMutexRecursive
                0x00105d2c                xQueueGenericSendFromISR
                0x00105df8                xQueueGiveFromISR
                0x00105ea8                xQueueReceive
                0x001061bc                xQueueSemaphoreTake
                0x001064ec                xQueueTakeMutexRecursive
                0x0010652c                xQueuePeek
                0x00106828                xQueueReceiveFromISR
                0x001068e0                xQueuePeekFromISR
                0x0010696c                uxQueueMessagesWaiting
                0x00106994                uxQueueSpacesAvailable
                0x001069c0                uxQueueMessagesWaitingFromISR
                0x001069d8                vQueueDelete
                0x00106a58                uxQueueGetQueueNumber
                0x00106a5c                vQueueSetQueueNumber
                0x00106a60                ucQueueGetQueueType
                0x00106a68                xQueueIsQueueEmptyFromISR
                0x00106a88                xQueueIsQueueFullFromISR
                0x00106aac                vQueueAddToRegistry
                0x00106b00                pcQueueGetName
                0x00106b60                vQueueUnregisterQueue
                0x00106bc4                vQueueWaitForMessageRestricted
 .text          0x00106c94     0x1b74 lib/MT3620_M4_Driver/MT3620_M4_BSP/FreeRTOS/libMT3620_M4_FreeRTOS.a(tasks.c.obj)
                0x00106d74                xTaskCreate
                0x00106f64                vTaskDelete
                0x0010704c                eTaskGetState
                0x001070cc                uxTaskPriorityGet
                0x001070f4                uxTaskPriorityGetFromISR
                0x0010712c                vTaskPrioritySet
                0x00107218                vTaskResume
                0x001072b0                xTaskResumeFromISR
                0x00107364                vTaskStartScheduler
                0x00107524                vTaskEndScheduler
                0x00107544                vTaskSuspendAll
                0x00107558                xTaskGetTickCount
                0x00107564                xTaskGetTickCountFromISR
                0x00107578                uxTaskGetNumberOfTasks
                0x00107584                pcTaskGetName
                0x001075ac                xTaskIncrementTick
                0x001077c0                xTaskResumeAll
                0x001077e0                vTaskDelay
                0x0010794c                uxTaskGetSystemState
                0x00107a4c                vTaskDelayUntil
                0x00107afc                vTaskSetApplicationTaskTag
                0x00107b2c                xTaskGetApplicationTaskTag
                0x00107b58                xTaskGetApplicationTaskTagFromISR
                0x00107b84                xTaskCallApplicationTaskHook
                0x00107ba4                vTaskSwitchContext
                0x00107c28                vTaskSuspend
                0x00107d1c                vTaskPlaceOnEventList
                0x00107dbc                vTaskPlaceOnUnorderedEventList
                0x00107e14                vTaskPlaceOnEventListRestricted
                0x00107e54                xTaskRemoveFromEventList
                0x00107ed0                vTaskRemoveFromUnorderedEventList
                0x00107f50                vTaskSetTimeOutState
                0x00107f88                vTaskInternalSetTimeOutState
                0x00107f9c                xTaskCheckForTimeOut
                0x00108028                vTaskMissedYield
                0x00108038                uxTaskGetTaskNumber
                0x00108040                vTaskSetTaskNumber
                0x00108048                vTaskGetInfo
                0x00108164                xTaskGetCurrentTaskHandle
                0x00108170                xTaskGetSchedulerState
                0x00108190                xTaskPriorityInherit
                0x00108244                xTaskPriorityDisinherit
                0x001082f4                vTaskPriorityDisinheritAfterTimeout
                0x001083b8                uxTaskResetEventItemValue
                0x001083d8                pvTaskIncrementMutexHeldCount
                0x001083f4                ulTaskNotifyTake
                0x00108468                xTaskNotifyWait
                0x00108504                xTaskGenericNotify
                0x001085f0                xTaskGenericNotifyFromISR
                0x0010870c                vTaskNotifyGiveFromISR
                0x001087d8                xTaskNotifyStateClear
 .text          0x00108808      0x5a0 lib/MT3620_M4_Driver/MT3620_M4_BSP/FreeRTOS/libMT3620_M4_FreeRTOS.a(timers.c.obj)
                0x00108ae0                xTimerCreateTimerTask
                0x00108b68                xTimerCreate
                0x00108c14                xTimerGenericCommand
                0x00108c78                xTimerGetTimerDaemonTaskHandle
                0x00108c98                xTimerGetPeriod
                0x00108cb0                vTimerSetReloadMode
                0x00108cf4                xTimerGetExpiryTime
                0x00108d0c                pcTimerGetName
                0x00108d24                xTimerIsTimerActive
                0x00108d50                pvTimerGetTimerID
                0x00108d78                vTimerSetTimerID
                0x00108da0                uxTimerGetTimerNumber
                0x00108da4                vTimerSetTimerNumber
 .text          0x00108da8      0x208 lib/MT3620_M4_Driver/MT3620_M4_BSP/FreeRTOS/libMT3620_M4_FreeRTOS.a(heap_4.c.obj)
                0x00108da8                pvPortMalloc
                0x00108ef4                vPortFree
                0x00108f94                xPortGetFreeHeapSize
                0x00108fa0                xPortGetMinimumEverFreeHeapSize
                0x00108fac                vPortInitialiseBlocks
 .text          0x00108fb0      0x3a0 lib/MT3620_M4_Driver/MT3620_M4_BSP/FreeRTOS/libMT3620_M4_FreeRTOS.a(port.c.obj)
                0x00109024                pxPortInitialiseStack
                0x00109050                SVC_Handler
                0x00109074                vPortEndScheduler
                0x00109098                vPortEnterCritical
                0x001090dc                vPortExitCritical
                0x00109104                PendSV_Handler
                0x00109164                SysTick_Handler
                0x00109190                vPortSetupTimerInterrupt
                0x001091bc                xPortStartScheduler
                0x001092f0                vPortValidateInterruptPriority
 .text          0x00109350       0x9c lib/MT3620_M4_Driver/MT3620_M4_BSP/FreeRTOS/libMT3620_M4_FreeRTOS.a(list.c.obj)
                0x00109350                vListInitialise
                0x00109368                vListInitialiseItem
                0x00109370                vListInsertEnd
                0x00109390                vListInsert
                0x001093c4                uxListRemove
 .text          0x001093ec       0x14 c:/progra~2/microsoft visual studio/2019/community/linux/gcc_arm/bin/../lib/gcc/arm-none-eabi/8.2.1/../../../../arm-none-eabi/lib/thumb/v7e-m+fp/hard\libc_nano.a(lib_a-strcmp.o)
                0x001093ec                strcmp
 *(.text*)
 .text._ZN6tflite18MicroErrorReporterD0Ev
                0x00109400        0x4 CMakeFiles/azure-sphere-combo-cifar10-rtcore.dir/f0775b8a0a1a4f21b831569dbc2a2e8d/project/app/lib_src/emergency_detect/main.cc.obj
                0x00109400                tflite::MicroErrorReporter::~MicroErrorReporter()
                0x00109400                tflite::MicroErrorReporter::~MicroErrorReporter()
                0x00109400                tflite::MicroErrorReporter::~MicroErrorReporter()
 .text._ZNK6tflite22MicroMutableOpResolverILj3EE6FindOpENS_15BuiltinOperatorE
                0x00109404       0x34 CMakeFiles/azure-sphere-combo-cifar10-rtcore.dir/f0775b8a0a1a4f21b831569dbc2a2e8d/project/app/lib_src/emergency_detect/main.cc.obj
                0x00109404                tflite::MicroMutableOpResolver<3u>::FindOp(tflite::BuiltinOperator) const
 .text._ZN6tflite22MicroMutableOpResolverILj3EED0Ev
                0x00109438        0x4 CMakeFiles/azure-sphere-combo-cifar10-rtcore.dir/f0775b8a0a1a4f21b831569dbc2a2e8d/project/app/lib_src/emergency_detect/main.cc.obj
                0x00109438                tflite::MicroMutableOpResolver<3u>::~MicroMutableOpResolver()
                0x00109438                tflite::MicroMutableOpResolver<3u>::~MicroMutableOpResolver()
                0x00109438                tflite::MicroMutableOpResolver<3u>::~MicroMutableOpResolver()
 .text._ZNK6tflite22MicroMutableOpResolverILj3EE15GetOpDataParserENS_15BuiltinOperatorE
                0x0010943c       0x3c CMakeFiles/azure-sphere-combo-cifar10-rtcore.dir/f0775b8a0a1a4f21b831569dbc2a2e8d/project/app/lib_src/emergency_detect/main.cc.obj
                0x0010943c                tflite::MicroMutableOpResolver<3u>::GetOpDataParser(tflite::BuiltinOperator) const
 .text._ZNK6tflite22MicroMutableOpResolverILj3EE6FindOpEPKc
                0x00109478       0x5c CMakeFiles/azure-sphere-combo-cifar10-rtcore.dir/f0775b8a0a1a4f21b831569dbc2a2e8d/project/app/lib_src/emergency_detect/main.cc.obj
                0x00109478                tflite::MicroMutableOpResolver<3u>::FindOp(char const*) const
 .text._ZNK6tflite15MicroOpResolver6FindOpENS_15BuiltinOperatorEi
                0x001094d4       0x54 CMakeFiles/azure-sphere-combo-cifar10-rtcore.dir/f0775b8a0a1a4f21b831569dbc2a2e8d/project/app/lib_src/emergency_detect/main.cc.obj
                0x001094d4                tflite::MicroOpResolver::FindOp(tflite::BuiltinOperator, int) const
 .text._ZNK6tflite15MicroOpResolver6FindOpEPKci
                0x00109528       0x70 CMakeFiles/azure-sphere-combo-cifar10-rtcore.dir/f0775b8a0a1a4f21b831569dbc2a2e8d/project/app/lib_src/emergency_detect/main.cc.obj
                0x00109528                tflite::MicroOpResolver::FindOp(char const*, int) const
 .text.emergency_detect_setup
                0x00109598      0x350 CMakeFiles/azure-sphere-combo-cifar10-rtcore.dir/f0775b8a0a1a4f21b831569dbc2a2e8d/project/app/lib_src/emergency_detect/main.cc.obj
                0x00109598                emergency_detect_setup
 .text.emergency_detect_loop
                0x001098e8       0x8c CMakeFiles/azure-sphere-combo-cifar10-rtcore.dir/f0775b8a0a1a4f21b831569dbc2a2e8d/project/app/lib_src/emergency_detect/main.cc.obj
                0x001098e8                emergency_detect_loop
 .text._ZN6tflite18MicroErrorReporter6ReportEPKcSt9__va_list
                0x00109974       0x2c ../../../../../../prebuilts/lib/libtensorflow-microlite.a(micro_error_reporter.o)
                0x00109974                tflite::MicroErrorReporter::Report(char const*, std::__va_list)
 .text._ZN6tflite8internal13ContextHelper24AllocatePersistentBufferEP13TfLiteContextjPPv
                0x001099a0        0x8 ../../../../../../prebuilts/lib/libtensorflow-microlite.a(micro_interpreter.o)
                0x001099a0                tflite::internal::ContextHelper::AllocatePersistentBuffer(TfLiteContext*, unsigned int, void**)
 .text._ZN6tflite8internal13ContextHelper27RequestScratchBufferInArenaEP13TfLiteContextjPi
                0x001099a8       0x16 ../../../../../../prebuilts/lib/libtensorflow-microlite.a(micro_interpreter.o)
                0x001099a8                tflite::internal::ContextHelper::RequestScratchBufferInArena(TfLiteContext*, unsigned int, int*)
 .text._ZN6tflite8internal13ContextHelper16GetScratchBufferEP13TfLiteContexti
                0x001099be        0x8 ../../../../../../prebuilts/lib/libtensorflow-microlite.a(micro_interpreter.o)
                0x001099be                tflite::internal::ContextHelper::GetScratchBuffer(TfLiteContext*, int)
 .text._ZN6tflite8internal13ContextHelper13ReportOpErrorEP13TfLiteContextPKcz
                0x001099c6       0x20 ../../../../../../prebuilts/lib/libtensorflow-microlite.a(micro_interpreter.o)
                0x001099c6                tflite::internal::ContextHelper::ReportOpError(TfLiteContext*, char const*, ...)
 .text._ZNK11flatbuffers5Table22GetOptionalFieldOffsetEt
                0x001099e6       0x12 ../../../../../../prebuilts/lib/libtensorflow-microlite.a(micro_interpreter.o)
                0x001099e6                flatbuffers::Table::GetOptionalFieldOffset(unsigned short) const
 .text._ZNK6tflite16MicroInterpreter14operators_sizeEv.isra.12
                0x001099f8       0x16 ../../../../../../prebuilts/lib/libtensorflow-microlite.a(micro_interpreter.o)
 .text._ZN6tflite12DynamicAgentC2Ev
                0x00109a0e       0x4e ../../../../../../prebuilts/lib/libtensorflow-microlite.a(micro_interpreter.o)
                0x00109a0e                tflite::DynamicAgent::DynamicAgent()
                0x00109a0e                tflite::DynamicAgent::DynamicAgent()
 .text._ZN6tflite16MicroInterpreterD2Ev
                0x00109a5c       0x36 ../../../../../../prebuilts/lib/libtensorflow-microlite.a(micro_interpreter.o)
                0x00109a5c                tflite::MicroInterpreter::~MicroInterpreter()
                0x00109a5c                tflite::MicroInterpreter::~MicroInterpreter()
 *fill*         0x00109a92        0x2 
 .text._ZN6tflite16MicroInterpreter4InitEPNS_8ProfilerE
                0x00109a94       0x7c ../../../../../../prebuilts/lib/libtensorflow-microlite.a(micro_interpreter.o)
                0x00109a94                tflite::MicroInterpreter::Init(tflite::Profiler*)
 .text._ZN6tflite16MicroInterpreterC2EPKNS_5ModelERKNS_15MicroOpResolverEPhjPNS_13ErrorReporterEPNS_8ProfilerE
                0x00109b10       0x50 ../../../../../../prebuilts/lib/libtensorflow-microlite.a(micro_interpreter.o)
                0x00109b10                tflite::MicroInterpreter::MicroInterpreter(tflite::Model const*, tflite::MicroOpResolver const&, unsigned char*, unsigned int, tflite::ErrorReporter*, tflite::Profiler*)
                0x00109b10                tflite::MicroInterpreter::MicroInterpreter(tflite::Model const*, tflite::MicroOpResolver const&, unsigned char*, unsigned int, tflite::ErrorReporter*, tflite::Profiler*)
 .text._ZN6tflite16MicroInterpreter15AllocateTensorsEv
                0x00109b60      0x16c ../../../../../../prebuilts/lib/libtensorflow-microlite.a(micro_interpreter.o)
                0x00109b60                tflite::MicroInterpreter::AllocateTensors()
 .text._ZN6tflite16MicroInterpreter6InvokeEv
                0x00109ccc       0xc4 ../../../../../../prebuilts/lib/libtensorflow-microlite.a(micro_interpreter.o)
                0x00109ccc                tflite::MicroInterpreter::Invoke()
 .text._ZN11flatbuffers5Table10GetPointerIPKNS_6VectorIlEEEET_t
                0x00109d90       0x12 ../../../../../../prebuilts/lib/libtensorflow-microlite.a(micro_interpreter.o)
                0x00109d90                flatbuffers::Vector<long> const* flatbuffers::Table::GetPointer<flatbuffers::Vector<long> const*>(unsigned short)
 *fill*         0x00109da2        0x2 
 .text._ZN6tflite16MicroInterpreter5inputEj
                0x00109da4       0x38 ../../../../../../prebuilts/lib/libtensorflow-microlite.a(micro_interpreter.o)
                0x00109da4                tflite::MicroInterpreter::input(unsigned int)
 .text._ZN6tflite16MicroInterpreter6outputEj
                0x00109ddc       0x38 ../../../../../../prebuilts/lib/libtensorflow-microlite.a(micro_interpreter.o)
                0x00109ddc                tflite::MicroInterpreter::output(unsigned int)
 .text._ZN12_GLOBAL__N_19StrCatStrEPciPKc
                0x00109e14       0x2c ../../../../../../prebuilts/lib/libtensorflow-microlite.a(micro_string.o)
 .text._ZN12_GLOBAL__N_122FastUInt32ToBufferLeftEmPci
                0x00109e40       0x3e ../../../../../../prebuilts/lib/libtensorflow-microlite.a(micro_string.o)
 *fill*         0x00109e7e        0x2 
 .text.MicroVsnprintf
                0x00109e80      0x23c ../../../../../../prebuilts/lib/libtensorflow-microlite.a(micro_string.o)
                0x00109e80                MicroVsnprintf
 .text._ZN6tflite21SimpleMemoryAllocatorD2Ev
                0x0010a0bc        0xc ../../../../../../prebuilts/lib/libtensorflow-microlite.a(simple_memory_allocator.o)
                0x0010a0bc                tflite::SimpleMemoryAllocator::~SimpleMemoryAllocator()
                0x0010a0bc                tflite::SimpleMemoryAllocator::~SimpleMemoryAllocator()
 .text._ZN6tflite21SimpleMemoryAllocatorD0Ev
                0x0010a0c8        0xc ../../../../../../prebuilts/lib/libtensorflow-microlite.a(simple_memory_allocator.o)
                0x0010a0c8                tflite::SimpleMemoryAllocator::~SimpleMemoryAllocator()
 .text._ZN6tflite21SimpleMemoryAllocator16AllocateFromHeadEjj
                0x0010a0d4       0x34 ../../../../../../prebuilts/lib/libtensorflow-microlite.a(simple_memory_allocator.o)
                0x0010a0d4                tflite::SimpleMemoryAllocator::AllocateFromHead(unsigned int, unsigned int)
 .text._ZN6tflite21SimpleMemoryAllocator16AllocateFromTailEjj
                0x0010a108       0x34 ../../../../../../prebuilts/lib/libtensorflow-microlite.a(simple_memory_allocator.o)
                0x0010a108                tflite::SimpleMemoryAllocator::AllocateFromTail(unsigned int, unsigned int)
 .text._ZN6tflite21SimpleMemoryAllocatorC2EPNS_13ErrorReporterEPhS3_
                0x0010a13c       0x18 ../../../../../../prebuilts/lib/libtensorflow-microlite.a(simple_memory_allocator.o)
                0x0010a13c                tflite::SimpleMemoryAllocator::SimpleMemoryAllocator(tflite::ErrorReporter*, unsigned char*, unsigned char*)
                0x0010a13c                tflite::SimpleMemoryAllocator::SimpleMemoryAllocator(tflite::ErrorReporter*, unsigned char*, unsigned char*)
 .text._ZN6tflite21SimpleMemoryAllocator6CreateEPNS_13ErrorReporterEPhj
                0x0010a154       0x40 ../../../../../../prebuilts/lib/libtensorflow-microlite.a(simple_memory_allocator.o)
                0x0010a154                tflite::SimpleMemoryAllocator::Create(tflite::ErrorReporter*, unsigned char*, unsigned int)
 .text._ZNK6tflite21SimpleMemoryAllocator7GetHeadEv
                0x0010a194        0x4 ../../../../../../prebuilts/lib/libtensorflow-microlite.a(simple_memory_allocator.o)
                0x0010a194                tflite::SimpleMemoryAllocator::GetHead() const
 .text._ZNK6tflite21SimpleMemoryAllocator7GetTailEv
                0x0010a198        0x4 ../../../../../../prebuilts/lib/libtensorflow-microlite.a(simple_memory_allocator.o)
                0x0010a198                tflite::SimpleMemoryAllocator::GetTail() const
 .text._ZNK6tflite21SimpleMemoryAllocator18GetAvailableMemoryEv
                0x0010a19c        0x8 ../../../../../../prebuilts/lib/libtensorflow-microlite.a(simple_memory_allocator.o)
                0x0010a19c                tflite::SimpleMemoryAllocator::GetAvailableMemory() const
 .text._ZN6tflite13ErrorReporter6ReportEPKcz
                0x0010a1a4       0x1c ../../../../../../prebuilts/lib/libtensorflow-microlite.a(error_reporter.o)
                0x0010a1a4                tflite::ErrorReporter::Report(char const*, ...)
 .text._ZN6tflite13ErrorReporter11ReportErrorEPvPKcz
                0x0010a1c0       0x1c ../../../../../../prebuilts/lib/libtensorflow-microlite.a(error_reporter.o)
                0x0010a1c0                tflite::ErrorReporter::ReportError(void*, char const*, ...)
 .text._ZN6tflite12_GLOBAL__N_124SafeBuiltinDataAllocator18BuiltinDataDeleterclEPv
                0x0010a1dc        0xc ../../../../../../prebuilts/lib/libtensorflow-microlite.a(flatbuffer_conversions.o)
 .text._ZN6tflite12_GLOBAL__N_117ConvertActivationENS_22ActivationFunctionTypeE
                0x0010a1e8       0x14 ../../../../../../prebuilts/lib/libtensorflow-microlite.a(flatbuffer_conversions.o)
 .text._ZN6tflite12_GLOBAL__N_114ConvertPaddingENS_7PaddingE
                0x0010a1fc       0x10 ../../../../../../prebuilts/lib/libtensorflow-microlite.a(flatbuffer_conversions.o)
 .text._ZN6tflite12_GLOBAL__N_126FlatBufferIntVectorToArrayEiPKN11flatbuffers6VectorIlEEPiPNS_13ErrorReporterEPKc.constprop.54
                0x0010a20c       0x40 ../../../../../../prebuilts/lib/libtensorflow-microlite.a(flatbuffer_conversions.o)
 .text._ZNK6tflite8Operator15builtin_optionsEv
                0x0010a24c       0x14 ../../../../../../prebuilts/lib/libtensorflow-microlite.a(flatbuffer_conversions.o)
                0x0010a24c                tflite::Operator::builtin_options() const
 .text._ZN6tflite17ConvertTensorTypeENS_10TensorTypeEP10TfLiteTypePNS_13ErrorReporterE
                0x0010a260       0x60 ../../../../../../prebuilts/lib/libtensorflow-microlite.a(flatbuffer_conversions.o)
                0x0010a260                tflite::ConvertTensorType(tflite::TensorType, TfLiteType*, tflite::ErrorReporter*)
 .text._ZNK11flatbuffers5Table8GetFieldIhEET_tS2_
                0x0010a2c0       0x14 ../../../../../../prebuilts/lib/libtensorflow-microlite.a(flatbuffer_conversions.o)
                0x0010a2c0                unsigned char flatbuffers::Table::GetField<unsigned char>(unsigned short, unsigned char) const
 .text._ZNK6tflite8Operator20builtin_options_typeEv
                0x0010a2d4        0xc ../../../../../../prebuilts/lib/libtensorflow-microlite.a(flatbuffer_conversions.o)
                0x0010a2d4                tflite::Operator::builtin_options_type() const
 .text._ZN6tflite12ParseReshapeEPKNS_8OperatorENS_15BuiltinOperatorEPNS_13ErrorReporterEPNS_20BuiltinDataAllocatorEPPv
                0x0010a2e0       0x9c ../../../../../../prebuilts/lib/libtensorflow-microlite.a(flatbuffer_conversions.o)
                0x0010a2e0                tflite::ParseReshape(tflite::Operator const*, tflite::BuiltinOperator, tflite::ErrorReporter*, tflite::BuiltinDataAllocator*, void**)
 .text._ZNK11flatbuffers5Table8GetFieldIlEET_tS2_
                0x0010a37c       0x14 ../../../../../../prebuilts/lib/libtensorflow-microlite.a(flatbuffer_conversions.o)
                0x0010a37c                long flatbuffers::Table::GetField<long>(unsigned short, long) const
 .text._ZNK11flatbuffers5Table8GetFieldIaEET_tS2_
                0x0010a390       0x16 ../../../../../../prebuilts/lib/libtensorflow-microlite.a(flatbuffer_conversions.o)
                0x0010a390                signed char flatbuffers::Table::GetField<signed char>(unsigned short, signed char) const
 *fill*         0x0010a3a6        0x2 
 .text._ZN6tflite11ParseConv2DEPKNS_8OperatorENS_15BuiltinOperatorEPNS_13ErrorReporterEPNS_20BuiltinDataAllocatorEPPv
                0x0010a3a8       0xc4 ../../../../../../prebuilts/lib/libtensorflow-microlite.a(flatbuffer_conversions.o)
                0x0010a3a8                tflite::ParseConv2D(tflite::Operator const*, tflite::BuiltinOperator, tflite::ErrorReporter*, tflite::BuiltinDataAllocator*, void**)
 .text._ZN6tflite20ParseDepthwiseConv2DEPKNS_8OperatorENS_15BuiltinOperatorEPNS_13ErrorReporterEPNS_20BuiltinDataAllocatorEPPv
                0x0010a46c       0xd0 ../../../../../../prebuilts/lib/libtensorflow-microlite.a(flatbuffer_conversions.o)
                0x0010a46c                tflite::ParseDepthwiseConv2D(tflite::Operator const*, tflite::BuiltinOperator, tflite::ErrorReporter*, tflite::BuiltinDataAllocator*, void**)
 .text._ZN6tflite19ParseFullyConnectedEPKNS_8OperatorENS_15BuiltinOperatorEPNS_13ErrorReporterEPNS_20BuiltinDataAllocatorEPPv
                0x0010a53c       0xd0 ../../../../../../prebuilts/lib/libtensorflow-microlite.a(flatbuffer_conversions.o)
                0x0010a53c                tflite::ParseFullyConnected(tflite::Operator const*, tflite::BuiltinOperator, tflite::ErrorReporter*, tflite::BuiltinDataAllocator*, void**)
 .text._ZN6tflite9ParseSvdfEPKNS_8OperatorENS_15BuiltinOperatorEPNS_13ErrorReporterEPNS_20BuiltinDataAllocatorEPPv
                0x0010a60c       0xa4 ../../../../../../prebuilts/lib/libtensorflow-microlite.a(flatbuffer_conversions.o)
                0x0010a60c                tflite::ParseSvdf(tflite::Operator const*, tflite::BuiltinOperator, tflite::ErrorReporter*, tflite::BuiltinDataAllocator*, void**)
 .text._ZNK11flatbuffers5Table8GetFieldIfEET_tS2_
                0x0010a6b0       0x24 ../../../../../../prebuilts/lib/libtensorflow-microlite.a(flatbuffer_conversions.o)
                0x0010a6b0                float flatbuffers::Table::GetField<float>(unsigned short, float) const
 .text._ZN6tflite12ParseSoftmaxEPKNS_8OperatorENS_15BuiltinOperatorEPNS_13ErrorReporterEPNS_20BuiltinDataAllocatorEPPv
                0x0010a6d4       0x84 ../../../../../../prebuilts/lib/libtensorflow-microlite.a(flatbuffer_conversions.o)
                0x0010a6d4                tflite::ParseSoftmax(tflite::Operator const*, tflite::BuiltinOperator, tflite::ErrorReporter*, tflite::BuiltinDataAllocator*, void**)
 .text._ZN6tflite11ParseOpDataEPKNS_8OperatorENS_15BuiltinOperatorEPNS_13ErrorReporterEPNS_20BuiltinDataAllocatorEPPv
                0x0010a758     0x1158 ../../../../../../prebuilts/lib/libtensorflow-microlite.a(flatbuffer_conversions.o)
                0x0010a758                tflite::ParseOpData(tflite::Operator const*, tflite::BuiltinOperator, tflite::ErrorReporter*, tflite::BuiltinDataAllocator*, void**)
 .text._ZN6tflite19ResetVariableTensorEP12TfLiteTensor
                0x0010b8b0       0x26 ../../../../../../prebuilts/lib/libtensorflow-microlite.a(tensor_utils.o)
                0x0010b8b0                tflite::ResetVariableTensor(TfLiteTensor*)
 .text._ZN6tflite12DynamicAgent4InitER13TfLiteContextPNS_13ErrorReporterEPhj
                0x0010b8d6        0xe ../../../../../../prebuilts/lib/libtensorflow-microlite.a(dynamic_agent.o)
                0x0010b8d6                tflite::DynamicAgent::Init(TfLiteContext&, tflite::ErrorReporter*, unsigned char*, unsigned int)
 .text._ZN6tflite12DynamicAgent8FinalizeEPNS_19NodeAndRegistrationEj
                0x0010b8e4       0x30 ../../../../../../prebuilts/lib/libtensorflow-microlite.a(dynamic_agent.o)
                0x0010b8e4                tflite::DynamicAgent::Finalize(tflite::NodeAndRegistration*, unsigned int)
 .text._ZN6tflite12DynamicAgent17DynamicLoadPolicyERNS_19NodeAndRegistrationE9DataIndexRj
                0x0010b914       0xbc ../../../../../../prebuilts/lib/libtensorflow-microlite.a(dynamic_agent.o)
                0x0010b914                tflite::DynamicAgent::DynamicLoadPolicy(tflite::NodeAndRegistration&, DataIndex, unsigned int&)
 .text._ZN6tflite12DynamicAgent17DefaultPreprocessEi
                0x0010b9d0       0xfc ../../../../../../prebuilts/lib/libtensorflow-microlite.a(dynamic_agent.o)
                0x0010b9d0                tflite::DynamicAgent::DefaultPreprocess(int)
 .text._ZN6tflite12DynamicAgent22MicroRuntimePreprocessEi
                0x0010bacc        0x4 ../../../../../../prebuilts/lib/libtensorflow-microlite.a(dynamic_agent.o)
                0x0010bacc                tflite::DynamicAgent::MicroRuntimePreprocess(int)
 .text._ZN6tflite12DynamicAgent18DefaultPostprocessEi
                0x0010bad0       0x46 ../../../../../../prebuilts/lib/libtensorflow-microlite.a(dynamic_agent.o)
                0x0010bad0                tflite::DynamicAgent::DefaultPostprocess(int)
 .text._ZN6tflite12DynamicAgent23MicroRuntimePostprocessEi
                0x0010bb16        0x4 ../../../../../../prebuilts/lib/libtensorflow-microlite.a(dynamic_agent.o)
                0x0010bb16                tflite::DynamicAgent::MicroRuntimePostprocess(int)
 *fill*         0x0010bb1a        0x2 
 .text._ZN6tflite12DynamicAgent13RegisterCacheEPhj
                0x0010bb1c       0x40 ../../../../../../prebuilts/lib/libtensorflow-microlite.a(dynamic_agent.o)
                0x0010bb1c                tflite::DynamicAgent::RegisterCache(unsigned char*, unsigned int)
 .text.IsFineGrainedOPSupport
                0x0010bb5c        0x4 ../../../../../../prebuilts/lib/libtensorflow-microlite.a(dynamic_context.o)
                0x0010bb5c                IsFineGrainedOPSupport
 .text.LoadFromExternal
                0x0010bb60        0x4 ../../../../../../prebuilts/lib/libtensorflow-microlite.a(npu_platform.o)
                0x0010bb60                LoadFromExternal
 .text.IsExternalRegion
                0x0010bb64       0x10 ../../../../../../prebuilts/lib/libtensorflow-microlite.a(npu_platform.o)
                0x0010bb64                IsExternalRegion
 .text._ZN6tflite3ops5micro7pooling4InitEP13TfLiteContextPKcj
                0x0010bb74       0x18 ../../../../../../prebuilts/lib/libtensorflow-microlite.a(pooling.o)
                0x0010bb74                tflite::ops::micro::pooling::Init(TfLiteContext*, char const*, unsigned int)
 .text._ZN6tflite3ops5micro7pooling12_GLOBAL__N_115CalculateOpDataEPK13TfLiteContextPK16TfLitePoolParamsPK12TfLiteTensorSC_PNS3_6OpDataE.isra.7
                0x0010bb8c       0x98 ../../../../../../prebuilts/lib/libtensorflow-microlite.a(pooling.o)
 .text._ZN6tflite3ops5micro7pooling7PrepareEP13TfLiteContextP10TfLiteNode
                0x0010bc24       0x8c ../../../../../../prebuilts/lib/libtensorflow-microlite.a(pooling.o)
                0x0010bc24                tflite::ops::micro::pooling::Prepare(TfLiteContext*, TfLiteNode*)
 .text._ZN6tflite3ops5micro7pooling11AverageEvalEP13TfLiteContextP10TfLiteNode
                0x0010bcb0      0x654 ../../../../../../prebuilts/lib/libtensorflow-microlite.a(pooling.o)
                0x0010bcb0                tflite::ops::micro::pooling::AverageEval(TfLiteContext*, TfLiteNode*)
 .text._ZN6tflite3ops5micro24Register_AVERAGE_POOL_2DEv
                0x0010c304        0x8 ../../../../../../prebuilts/lib/libtensorflow-microlite.a(pooling.o)
                0x0010c304                tflite::ops::micro::Register_AVERAGE_POOL_2D()
 .text._ZN6tflite33CalculateActivationRangeQuantizedEP13TfLiteContext21TfLiteFusedActivationP12TfLiteTensorPlS5_
                0x0010c30c      0x174 ../../../../../../prebuilts/lib/libtensorflow-microlite.a(kernel_util.o)
                0x0010c30c                tflite::CalculateActivationRangeQuantized(TfLiteContext*, TfLiteFusedActivation, TfLiteTensor*, long*, long*)
 .text._ZN6tflite37PopulateConvolutionQuantizationParamsEP13TfLiteContextPK12TfLiteTensorS4_S4_PS2_RK21TfLiteFusedActivationPlPiS9_S9_S9_SA_i
                0x0010c480      0x390 ../../../../../../prebuilts/lib/libtensorflow-microlite.a(kernel_util.o)
                0x0010c480                tflite::PopulateConvolutionQuantizationParams(TfLiteContext*, TfLiteTensor const*, TfLiteTensor const*, TfLiteTensor const*, TfLiteTensor*, TfLiteFusedActivation const&, long*, int*, long*, long*, long*, int*, int)
 .text._ZN6tflite3ops5micro4conv4InitEP13TfLiteContextPKcj
                0x0010c810       0x18 ../../../../../../prebuilts/lib/libtensorflow-microlite.a(conv.o)
                0x0010c810                tflite::ops::micro::conv::Init(TfLiteContext*, char const*, unsigned int)
 .text._ZN6tflite3ops5micro4conv7PrepareEP13TfLiteContextP10TfLiteNode
                0x0010c828      0x410 ../../../../../../prebuilts/lib/libtensorflow-microlite.a(conv.o)
                0x0010c828                tflite::ops::micro::conv::Prepare(TfLiteContext*, TfLiteNode*)
 .text._ZN6tflite3ops5micro4conv13EvalQuantizedEP13TfLiteContextP10TfLiteNodeP16TfLiteConvParamsPNS2_6OpDataEPK12TfLiteTensorSD_SD_PSB_SE_SE_
                0x0010cc38      0xce0 ../../../../../../prebuilts/lib/libtensorflow-microlite.a(conv.o)
                0x0010cc38                tflite::ops::micro::conv::EvalQuantized(TfLiteContext*, TfLiteNode*, TfLiteConvParams*, tflite::ops::micro::conv::OpData*, TfLiteTensor const*, TfLiteTensor const*, TfLiteTensor const*, TfLiteTensor*, TfLiteTensor*, TfLiteTensor*)
 .text._ZN6tflite3ops5micro4conv23EvalQuantizedPerChannelEP13TfLiteContextP10TfLiteNodeP16TfLiteConvParamsPNS2_6OpDataEPK12TfLiteTensorSD_SD_PSB_SE_
                0x0010d918      0x1a4 ../../../../../../prebuilts/lib/libtensorflow-microlite.a(conv.o)
                0x0010d918                tflite::ops::micro::conv::EvalQuantizedPerChannel(TfLiteContext*, TfLiteNode*, TfLiteConvParams*, tflite::ops::micro::conv::OpData*, TfLiteTensor const*, TfLiteTensor const*, TfLiteTensor const*, TfLiteTensor*, TfLiteTensor*)
 .text._ZN6tflite3ops5micro4conv9EvalFloatEP13TfLiteContextP10TfLiteNodeP16TfLiteConvParamsPNS2_6OpDataEPK12TfLiteTensorSD_SD_PSB_SE_SE_
                0x0010dabc      0xde8 ../../../../../../prebuilts/lib/libtensorflow-microlite.a(conv.o)
                0x0010dabc                tflite::ops::micro::conv::EvalFloat(TfLiteContext*, TfLiteNode*, TfLiteConvParams*, tflite::ops::micro::conv::OpData*, TfLiteTensor const*, TfLiteTensor const*, TfLiteTensor const*, TfLiteTensor*, TfLiteTensor*, TfLiteTensor*)
 .text._ZN6tflite3ops5micro4conv4EvalEP13TfLiteContextP10TfLiteNode
                0x0010e8a4      0x3d0 ../../../../../../prebuilts/lib/libtensorflow-microlite.a(conv.o)
                0x0010e8a4                tflite::ops::micro::conv::Eval(TfLiteContext*, TfLiteNode*)
 .text._ZN6tflite3ops5micro16Register_CONV_2DEv
                0x0010ec74        0x8 ../../../../../../prebuilts/lib/libtensorflow-microlite.a(conv.o)
                0x0010ec74                tflite::ops::micro::Register_CONV_2D()
 .text._ZN6tflite3ops5micro14depthwise_conv4InitEP13TfLiteContextPKcj
                0x0010ec7c       0x18 ../../../../../../prebuilts/lib/libtensorflow-microlite.a(depthwise_conv.o)
                0x0010ec7c                tflite::ops::micro::depthwise_conv::Init(TfLiteContext*, char const*, unsigned int)
 .text._ZN6tflite3ops5micro14depthwise_conv7PrepareEP13TfLiteContextP10TfLiteNode
                0x0010ec94       0x80 ../../../../../../prebuilts/lib/libtensorflow-microlite.a(depthwise_conv.o)
                0x0010ec94                tflite::ops::micro::depthwise_conv::Prepare(TfLiteContext*, TfLiteNode*)
 .text._ZN6tflite3ops5micro14depthwise_conv4EvalEP13TfLiteContextP10TfLiteNode
                0x0010ed14     0x1028 ../../../../../../prebuilts/lib/libtensorflow-microlite.a(depthwise_conv.o)
                0x0010ed14                tflite::ops::micro::depthwise_conv::Eval(TfLiteContext*, TfLiteNode*)
 .text._ZN6tflite3ops5micro26Register_DEPTHWISE_CONV_2DEv
                0x0010fd3c        0x8 ../../../../../../prebuilts/lib/libtensorflow-microlite.a(depthwise_conv.o)
                0x0010fd3c                tflite::ops::micro::Register_DEPTHWISE_CONV_2D()
 .text.DebugLog
                0x0010fd44       0x64 ../../../../../../prebuilts/lib/libtensorflow-microlite.a(debug_log.o)
                0x0010fd44                DebugLog
 .text._ZN6tflite14AlignPointerUpEPhj
                0x0010fda8        0xc ../../../../../../prebuilts/lib/libtensorflow-microlite.a(memory_helpers.o)
                0x0010fda8                tflite::AlignPointerUp(unsigned char*, unsigned int)
 .text._ZN6tflite16AlignPointerDownEPhj
                0x0010fdb4        0x8 ../../../../../../prebuilts/lib/libtensorflow-microlite.a(memory_helpers.o)
                0x0010fdb4                tflite::AlignPointerDown(unsigned char*, unsigned int)
 .text._ZN6tflite11AlignSizeUpEjj
                0x0010fdbc        0xc ../../../../../../prebuilts/lib/libtensorflow-microlite.a(memory_helpers.o)
                0x0010fdbc                tflite::AlignSizeUp(unsigned int, unsigned int)
 .text._ZN6tflite16TfLiteTypeSizeOfE10TfLiteTypePjPNS_13ErrorReporterE
                0x0010fdc8       0x48 ../../../../../../prebuilts/lib/libtensorflow-microlite.a(memory_helpers.o)
                0x0010fdc8                tflite::TfLiteTypeSizeOf(TfLiteType, unsigned int*, tflite::ErrorReporter*)
 .text._ZN6tflite22BytesRequiredForTensorERKNS_6TensorEPjS3_PNS_13ErrorReporterE
                0x0010fe10       0x7a ../../../../../../prebuilts/lib/libtensorflow-microlite.a(memory_helpers.o)
                0x0010fe10                tflite::BytesRequiredForTensor(tflite::Tensor const&, unsigned int*, unsigned int*, tflite::ErrorReporter*)
 *fill*         0x0010fe8a        0x2 
 .text._ZN6tflite20BuiltinDataAllocatorD2Ev
                0x0010fe8c        0xc ../../../../../../prebuilts/lib/libtensorflow-microlite.a(micro_allocator.o)
                0x0010fe8c                tflite::BuiltinDataAllocator::~BuiltinDataAllocator()
                0x0010fe8c                tflite::BuiltinDataAllocator::~BuiltinDataAllocator()
 .text._ZN6tflite12_GLOBAL__N_125MicroBuiltinDataAllocator8AllocateEjj
                0x0010fe98        0xc ../../../../../../prebuilts/lib/libtensorflow-microlite.a(micro_allocator.o)
 .text._ZN6tflite12_GLOBAL__N_125MicroBuiltinDataAllocator10DeallocateEPv
                0x0010fea4        0x2 ../../../../../../prebuilts/lib/libtensorflow-microlite.a(micro_allocator.o)
 *fill*         0x0010fea6        0x2 
 .text._ZN6tflite14MicroAllocatorD2Ev
                0x0010fea8        0xc ../../../../../../prebuilts/lib/libtensorflow-microlite.a(micro_allocator.o)
                0x0010fea8                tflite::MicroAllocator::~MicroAllocator()
                0x0010fea8                tflite::MicroAllocator::~MicroAllocator()
 .text._ZN6tflite14MicroAllocatorD0Ev
                0x0010feb4        0xc ../../../../../../prebuilts/lib/libtensorflow-microlite.a(micro_allocator.o)
                0x0010feb4                tflite::MicroAllocator::~MicroAllocator()
 .text._ZN6tflite12_GLOBAL__N_125MicroBuiltinDataAllocatorD2Ev
                0x0010fec0        0xc ../../../../../../prebuilts/lib/libtensorflow-microlite.a(micro_allocator.o)
 .text._ZN6tflite12_GLOBAL__N_125MicroBuiltinDataAllocatorD0Ev
                0x0010fecc        0xc ../../../../../../prebuilts/lib/libtensorflow-microlite.a(micro_allocator.o)
 .text._ZN6tflite20BuiltinDataAllocatorD0Ev
                0x0010fed8       0x14 ../../../../../../prebuilts/lib/libtensorflow-microlite.a(micro_allocator.o)
                0x0010fed8                tflite::BuiltinDataAllocator::~BuiltinDataAllocator()
 .text._ZN6tflite14MicroAllocator25AllocateTfLiteTensorArrayEP13TfLiteContextPKNS_8SubGraphE
                0x0010feec       0x48 ../../../../../../prebuilts/lib/libtensorflow-microlite.a(micro_allocator.o)
                0x0010feec                tflite::MicroAllocator::AllocateTfLiteTensorArray(TfLiteContext*, tflite::SubGraph const*)
 .text._ZN6tflite23EnumNameBuiltinOperatorENS_15BuiltinOperatorE
                0x0010ff34       0x18 ../../../../../../prebuilts/lib/libtensorflow-microlite.a(micro_allocator.o)
                0x0010ff34                tflite::EnumNameBuiltinOperator(tflite::BuiltinOperator)
 .text._ZNK6tflite6Tensor11is_variableEv
                0x0010ff4c       0x16 ../../../../../../prebuilts/lib/libtensorflow-microlite.a(micro_allocator.o)
                0x0010ff4c                tflite::Tensor::is_variable() const
 *fill*         0x0010ff62        0x2 
 .text._ZN6tflite14MicroAllocator17AllocateVariablesEP13TfLiteContextPKNS_8SubGraphE
                0x0010ff64       0x84 ../../../../../../prebuilts/lib/libtensorflow-microlite.a(micro_allocator.o)
                0x0010ff64                tflite::MicroAllocator::AllocateVariables(TfLiteContext*, tflite::SubGraph const*)
 .text._ZN6tflite14MicroAllocator6CreateEPNS_21SimpleMemoryAllocatorEPNS_13ErrorReporterE
                0x0010ffe8       0x28 ../../../../../../prebuilts/lib/libtensorflow-microlite.a(micro_allocator.o)
                0x0010ffe8                tflite::MicroAllocator::Create(tflite::SimpleMemoryAllocator*, tflite::ErrorReporter*)
 .text._ZN6tflite14MicroAllocator6CreateEPhjPNS_13ErrorReporterE
                0x00110010       0x38 ../../../../../../prebuilts/lib/libtensorflow-microlite.a(micro_allocator.o)
                0x00110010                tflite::MicroAllocator::Create(unsigned char*, unsigned int, tflite::ErrorReporter*)
 .text._ZN6tflite14MicroAllocator24AllocatePersistentBufferEjPPv
                0x00110048       0x2c ../../../../../../prebuilts/lib/libtensorflow-microlite.a(micro_allocator.o)
                0x00110048                tflite::MicroAllocator::AllocatePersistentBuffer(unsigned int, void**)
 .text._ZN6tflite14MicroAllocator27RequestScratchBufferInArenaEijPi
                0x00110074       0x6c ../../../../../../prebuilts/lib/libtensorflow-microlite.a(micro_allocator.o)
                0x00110074                tflite::MicroAllocator::RequestScratchBufferInArena(int, unsigned int, int*)
 .text._ZNK6tflite14MicroAllocator16GetScratchBufferEi
                0x001100e0       0x2c ../../../../../../prebuilts/lib/libtensorflow-microlite.a(micro_allocator.o)
                0x001100e0                tflite::MicroAllocator::GetScratchBuffer(int) const
 .text._ZN6tflite14MicroAllocator29InitGraphAndContextTensorDataEPKNS_5ModelEP13TfLiteContextPKNS_8SubGraphE
                0x0011010c       0x2a ../../../../../../prebuilts/lib/libtensorflow-microlite.a(micro_allocator.o)
                0x0011010c                tflite::MicroAllocator::InitGraphAndContextTensorData(tflite::Model const*, TfLiteContext*, tflite::SubGraph const*)
 *fill*         0x00110136        0x2 
 .text._ZN6tflite14MicroAllocator20GetSubGraphFromModelEPKNS_5ModelE
                0x00110138       0x38 ../../../../../../prebuilts/lib/libtensorflow-microlite.a(micro_allocator.o)
                0x00110138                tflite::MicroAllocator::GetSubGraphFromModel(tflite::Model const*)
 .text._ZN6tflite14MicroAllocator20StartModelAllocationEPKNS_5ModelEP13TfLiteContextRKNS_15MicroOpResolverEPPNS_19NodeAndRegistrationE
                0x00110170       0x64 ../../../../../../prebuilts/lib/libtensorflow-microlite.a(micro_allocator.o)
                0x00110170                tflite::MicroAllocator::StartModelAllocation(tflite::Model const*, TfLiteContext*, tflite::MicroOpResolver const&, tflite::NodeAndRegistration**)
 .text._ZN6tflite14MicroAllocator21FinishModelAllocationEPKNS_5ModelEP13TfLiteContext
                0x001101d4       0x40 ../../../../../../prebuilts/lib/libtensorflow-microlite.a(micro_allocator.o)
                0x001101d4                tflite::MicroAllocator::FinishModelAllocation(tflite::Model const*, TfLiteContext*)
 .text._ZN11flatbuffers5Table10GetPointerIPKNS_6VectorIhEEEET_t
                0x00110214       0x12 ../../../../../../prebuilts/lib/libtensorflow-microlite.a(micro_allocator.o)
                0x00110214                flatbuffers::Vector<unsigned char> const* flatbuffers::Table::GetPointer<flatbuffers::Vector<unsigned char> const*>(unsigned short)
 .text._ZN11flatbuffers5Table10GetPointerIPKNS_6VectorIfEEEET_t
                0x00110226       0x12 ../../../../../../prebuilts/lib/libtensorflow-microlite.a(micro_allocator.o)
                0x00110226                flatbuffers::Vector<float> const* flatbuffers::Table::GetPointer<flatbuffers::Vector<float> const*>(unsigned short)
 .text._ZN11flatbuffers5Table10GetPointerIPKNS_6VectorIxEEEET_t
                0x00110238       0x12 ../../../../../../prebuilts/lib/libtensorflow-microlite.a(micro_allocator.o)
                0x00110238                flatbuffers::Vector<long long> const* flatbuffers::Table::GetPointer<flatbuffers::Vector<long long> const*>(unsigned short)
 *fill*         0x0011024a        0x2 
 .text._ZN6tflite8internal36InitializeTfLiteTensorFromFlatbufferEPNS_21SimpleMemoryAllocatorERKNS_6TensorEPKN11flatbuffers6VectorINS6_6OffsetINS_6BufferEEEEEPNS_13ErrorReporterEP12TfLiteTensor
                0x0011024c      0x1b4 ../../../../../../prebuilts/lib/libtensorflow-microlite.a(micro_allocator.o)
                0x0011024c                tflite::internal::InitializeTfLiteTensorFromFlatbuffer(tflite::SimpleMemoryAllocator*, tflite::Tensor const&, flatbuffers::Vector<flatbuffers::Offset<tflite::Buffer> > const*, tflite::ErrorReporter*, TfLiteTensor*)
 .text._ZN6tflite14MicroAllocator39PopulateTfLiteTensorArrayFromFlatbufferEPKNS_5ModelEP13TfLiteContextPKNS_8SubGraphE
                0x00110400       0x84 ../../../../../../prebuilts/lib/libtensorflow-microlite.a(micro_allocator.o)
                0x00110400                tflite::MicroAllocator::PopulateTfLiteTensorArrayFromFlatbuffer(tflite::Model const*, TfLiteContext*, tflite::SubGraph const*)
 .text._ZN11flatbuffers5Table10GetPointerIPKNS_6VectorINS_6OffsetIN6tflite8OperatorEEEEEEET_t
                0x00110484       0x12 ../../../../../../prebuilts/lib/libtensorflow-microlite.a(micro_allocator.o)
                0x00110484                flatbuffers::Vector<flatbuffers::Offset<tflite::Operator> > const* flatbuffers::Table::GetPointer<flatbuffers::Vector<flatbuffers::Offset<tflite::Operator> > const*>(unsigned short)
 *fill*         0x00110496        0x2 
 .text._ZN6tflite14MicroAllocator28AllocateNodeAndRegistrationsEPKNS_8SubGraphEPPNS_19NodeAndRegistrationE
                0x00110498       0x38 ../../../../../../prebuilts/lib/libtensorflow-microlite.a(micro_allocator.o)
                0x00110498                tflite::MicroAllocator::AllocateNodeAndRegistrations(tflite::SubGraph const*, tflite::NodeAndRegistration**)
 .text._ZN6tflite14MicroAllocator44PrepareNodeAndRegistrationDataFromFlatbufferEPKNS_5ModelEPKNS_8SubGraphERKNS_15MicroOpResolverEPNS_19NodeAndRegistrationE
                0x001104d0      0x1a0 ../../../../../../prebuilts/lib/libtensorflow-microlite.a(micro_allocator.o)
                0x001104d0                tflite::MicroAllocator::PrepareNodeAndRegistrationDataFromFlatbuffer(tflite::Model const*, tflite::SubGraph const*, tflite::MicroOpResolver const&, tflite::NodeAndRegistration*)
 .text._ZN6tflite14MicroAllocator22CommitStaticMemoryPlanEP13TfLiteContextPKNS_8SubGraphE
                0x00110670      0x39c ../../../../../../prebuilts/lib/libtensorflow-microlite.a(micro_allocator.o)
                0x00110670                tflite::MicroAllocator::CommitStaticMemoryPlan(TfLiteContext*, tflite::SubGraph const*)
 .text._ZN6tflite13MemoryPlannerD2Ev
                0x00110a0c        0xc ../../../../../../prebuilts/lib/libtensorflow-microlite.a(greedy_memory_planner.o)
                0x00110a0c                tflite::MemoryPlanner::~MemoryPlanner()
                0x00110a0c                tflite::MemoryPlanner::~MemoryPlanner()
 .text._ZN6tflite19GreedyMemoryPlannerD2Ev
                0x00110a18        0xc ../../../../../../prebuilts/lib/libtensorflow-microlite.a(greedy_memory_planner.o)
                0x00110a18                tflite::GreedyMemoryPlanner::~GreedyMemoryPlanner()
                0x00110a18                tflite::GreedyMemoryPlanner::~GreedyMemoryPlanner()
 .text._ZN6tflite19GreedyMemoryPlannerD0Ev
                0x00110a24        0xc ../../../../../../prebuilts/lib/libtensorflow-microlite.a(greedy_memory_planner.o)
                0x00110a24                tflite::GreedyMemoryPlanner::~GreedyMemoryPlanner()
 .text._ZN6tflite19GreedyMemoryPlanner14GetBufferCountEv
                0x00110a30        0x4 ../../../../../../prebuilts/lib/libtensorflow-microlite.a(greedy_memory_planner.o)
                0x00110a30                tflite::GreedyMemoryPlanner::GetBufferCount()
 .text._ZN6tflite13MemoryPlannerD0Ev
                0x00110a34       0x14 ../../../../../../prebuilts/lib/libtensorflow-microlite.a(greedy_memory_planner.o)
                0x00110a34                tflite::MemoryPlanner::~MemoryPlanner()
 .text._ZN6tflite19GreedyMemoryPlanner9AddBufferEPNS_13ErrorReporterEiii
                0x00110a48       0x3c ../../../../../../prebuilts/lib/libtensorflow-microlite.a(greedy_memory_planner.o)
                0x00110a48                tflite::GreedyMemoryPlanner::AddBuffer(tflite::ErrorReporter*, int, int, int)
 .text._ZN6tflite18ReverseSortInPlaceEPiS0_i
                0x00110a84       0x3e ../../../../../../prebuilts/lib/libtensorflow-microlite.a(greedy_memory_planner.o)
                0x00110a84                tflite::ReverseSortInPlace(int*, int*, int)
 *fill*         0x00110ac2        0x2 
 .text._ZN6tflite19GreedyMemoryPlannerC2EPhi
                0x00110ac4       0x38 ../../../../../../prebuilts/lib/libtensorflow-microlite.a(greedy_memory_planner.o)
                0x00110ac4                tflite::GreedyMemoryPlanner::GreedyMemoryPlanner(unsigned char*, int)
                0x00110ac4                tflite::GreedyMemoryPlanner::GreedyMemoryPlanner(unsigned char*, int)
 .text._ZNK6tflite19GreedyMemoryPlanner22DoesEntryOverlapInTimeEPKNS0_9ListEntryEii
                0x00110afc       0x22 ../../../../../../prebuilts/lib/libtensorflow-microlite.a(greedy_memory_planner.o)
                0x00110afc                tflite::GreedyMemoryPlanner::DoesEntryOverlapInTime(tflite::GreedyMemoryPlanner::ListEntry const*, int, int) const
 .text._ZN6tflite19GreedyMemoryPlanner30NextSimultaneouslyActiveBufferEPKNS0_9ListEntryEii
                0x00110b1e       0x42 ../../../../../../prebuilts/lib/libtensorflow-microlite.a(greedy_memory_planner.o)
                0x00110b1e                tflite::GreedyMemoryPlanner::NextSimultaneouslyActiveBuffer(tflite::GreedyMemoryPlanner::ListEntry const*, int, int)
 .text._ZN6tflite19GreedyMemoryPlanner24CalculateOffsetsIfNeededEv
                0x00110b60      0x12c ../../../../../../prebuilts/lib/libtensorflow-microlite.a(greedy_memory_planner.o)
                0x00110b60                tflite::GreedyMemoryPlanner::CalculateOffsetsIfNeeded()
 .text._ZN6tflite19GreedyMemoryPlanner20GetMaximumMemorySizeEv
                0x00110c8c       0x38 ../../../../../../prebuilts/lib/libtensorflow-microlite.a(greedy_memory_planner.o)
                0x00110c8c                tflite::GreedyMemoryPlanner::GetMaximumMemorySize()
 .text._ZN6tflite19GreedyMemoryPlanner18GetOffsetForBufferEPNS_13ErrorReporterEiPi
                0x00110cc4       0x38 ../../../../../../prebuilts/lib/libtensorflow-microlite.a(greedy_memory_planner.o)
                0x00110cc4                tflite::GreedyMemoryPlanner::GetOffsetForBuffer(tflite::ErrorReporter*, int, int*)
 .text.TfLiteIntArrayGetSizeInBytes
                0x00110cfc        0x6 ../../../../../../prebuilts/lib/libtensorflow-microlite.a(common.o)
                0x00110cfc                TfLiteIntArrayGetSizeInBytes
 .text.TfLiteFloatArrayGetSizeInBytes
                0x00110d02        0x6 ../../../../../../prebuilts/lib/libtensorflow-microlite.a(common.o)
                0x00110d02                TfLiteFloatArrayGetSizeInBytes
 .text.TfLiteTypeGetName
                0x00110d08       0x18 ../../../../../../prebuilts/lib/libtensorflow-microlite.a(common.o)
                0x00110d08                TfLiteTypeGetName
 .text._ZN6tflite25GetRegistrationFromOpCodeEPKNS_12OperatorCodeERKNS_10OpResolverEPNS_13ErrorReporterEPPK18TfLiteRegistration
                0x00110d20       0xb8 ../../../../../../prebuilts/lib/libtensorflow-microlite.a(op_resolver.o)
                0x00110d20                tflite::GetRegistrationFromOpCode(tflite::OperatorCode const*, tflite::OpResolver const&, tflite::ErrorReporter*, TfLiteRegistration const**)
 .text._ZN6tflite18QuantizeMultiplierEdPlPi
                0x00110dd8       0x94 ../../../../../../prebuilts/lib/libtensorflow-microlite.a(quantization_util.o)
                0x00110dd8                tflite::QuantizeMultiplier(double, long*, int*)
 .text.arm_convolve_wrapper_s8
                0x00110e6c       0xbc ../../../../../../prebuilts/lib/libcmsis.a(arm_convolve_wrapper_s8.o)
                0x00110e6c                arm_convolve_wrapper_s8
 .text.arm_convolve_wrapper_s8_get_buffer_size
                0x00110f28       0x68 ../../../../../../prebuilts/lib/libcmsis.a(arm_convolve_wrapper_s8.o)
                0x00110f28                arm_convolve_wrapper_s8_get_buffer_size
 .text.arm_depthwise_conv_s8
                0x00110f90      0x768 ../../../../../../prebuilts/lib/libcmsis.a(arm_depthwise_conv_s8.o)
                0x00110f90                arm_depthwise_conv_s8
 .text.arm_depthwise_conv_s8_opt
                0x001116f8      0x778 ../../../../../../prebuilts/lib/libcmsis.a(arm_depthwise_conv_s8_opt.o)
                0x001116f8                arm_depthwise_conv_s8_opt
 .text.arm_depthwise_conv_s8_opt_get_buffer_size
                0x00111e70        0xc ../../../../../../prebuilts/lib/libcmsis.a(arm_depthwise_conv_s8_opt.o)
                0x00111e70                arm_depthwise_conv_s8_opt_get_buffer_size
 .text.arm_depthwise_conv_u8_basic_ver1
                0x00111e7c      0x754 ../../../../../../prebuilts/lib/libcmsis.a(arm_depthwise_conv_u8_basic_ver1.o)
                0x00111e7c                arm_depthwise_conv_u8_basic_ver1
 .text.arm_q7_to_q15_with_offset
                0x001125d0       0x80 ../../../../../../prebuilts/lib/libcmsis.a(arm_q7_to_q15_with_offset.o)
                0x001125d0                arm_q7_to_q15_with_offset
 .text.arm_avgpool_s8
                0x00112650      0x1d8 ../../../../../../prebuilts/lib/libcmsis.a(arm_avgpool_s8.o)
                0x00112650                arm_avgpool_s8
 .text.arm_avgpool_s8_get_buffer_size
                0x00112828        0x4 ../../../../../../prebuilts/lib/libcmsis.a(arm_avgpool_s8.o)
                0x00112828                arm_avgpool_s8_get_buffer_size
 .text.arm_convolve_1x1_s8_fast
                0x0011282c       0x68 ../../../../../../prebuilts/lib/libcmsis.a(arm_convolve_1x1_s8_fast.o)
                0x0011282c                arm_convolve_1x1_s8_fast
 .text.arm_convolve_1x1_s8_fast_get_buffer_size
                0x00112894        0x4 ../../../../../../prebuilts/lib/libcmsis.a(arm_convolve_1x1_s8_fast.o)
                0x00112894                arm_convolve_1x1_s8_fast_get_buffer_size
 .text.arm_convolve_1_x_n_s8
                0x00112898       0x1c ../../../../../../prebuilts/lib/libcmsis.a(arm_convolve_1_x_n_s8.o)
                0x00112898                arm_convolve_1_x_n_s8
 .text.arm_convolve_1_x_n_s8_get_buffer_size
                0x001128b4       0x14 ../../../../../../prebuilts/lib/libcmsis.a(arm_convolve_1_x_n_s8.o)
                0x001128b4                arm_convolve_1_x_n_s8_get_buffer_size
 .text.arm_convolve_s8
                0x001128c8      0x3f0 ../../../../../../prebuilts/lib/libcmsis.a(arm_convolve_s8.o)
                0x001128c8                arm_convolve_s8
 .text.arm_convolve_s8_get_buffer_size
                0x00112cb8       0x14 ../../../../../../prebuilts/lib/libcmsis.a(arm_convolve_s8.o)
                0x00112cb8                arm_convolve_s8_get_buffer_size
 .text.arm_nn_mat_mult_kernel_s8_s16
                0x00112ccc      0x6c8 ../../../../../../prebuilts/lib/libcmsis.a(arm_nn_mat_mult_kernel_s8_s16.o)
                0x00112ccc                arm_nn_mat_mult_kernel_s8_s16
 .text.arm_nn_accumulate_q7_to_q15
                0x00113394       0x88 ../../../../../../prebuilts/lib/libcmsis.a(arm_nn_accumulate_q7_to_q15.o)
                0x00113394                arm_nn_accumulate_q7_to_q15
 .text.arm_nn_mat_mult_nt_t_s8
                0x0011341c      0xb40 ../../../../../../prebuilts/lib/libcmsis.a(arm_nn_mat_mult_nt_t_s8.o)
                0x0011341c                arm_nn_mat_mult_nt_t_s8
 .text.arm_q7_to_q15_no_shift
                0x00113f5c       0x70 ../../../../../../prebuilts/lib/libcmsis.a(arm_q7_to_q15_no_shift.o)
                0x00113f5c                arm_q7_to_q15_no_shift
 .text.__cxa_guard_acquire
                0x00113fcc       0x18 c:/progra~2/microsoft visual studio/2019/community/linux/gcc_arm/bin/../lib/gcc/arm-none-eabi/8.2.1/../../../../arm-none-eabi/lib/thumb/v7e-m+fp/hard\libstdc++_nano.a(guard.o)
                0x00113fcc                __cxa_guard_acquire
 .text.__cxa_guard_release
                0x00113fe4        0x6 c:/progra~2/microsoft visual studio/2019/community/linux/gcc_arm/bin/../lib/gcc/arm-none-eabi/8.2.1/../../../../arm-none-eabi/lib/thumb/v7e-m+fp/hard\libstdc++_nano.a(guard.o)
                0x00113fe4                __cxa_guard_release
 .text._ZdlPv   0x00113fea        0x4 c:/progra~2/microsoft visual studio/2019/community/linux/gcc_arm/bin/../lib/gcc/arm-none-eabi/8.2.1/../../../../arm-none-eabi/lib/thumb/v7e-m+fp/hard\libstdc++_nano.a(del_op.o)
                0x00113fea                operator delete(void*)
 .text.__cxa_pure_virtual
                0x00113fee        0x6 c:/progra~2/microsoft visual studio/2019/community/linux/gcc_arm/bin/../lib/gcc/arm-none-eabi/8.2.1/../../../../arm-none-eabi/lib/thumb/v7e-m+fp/hard\libstdc++_nano.a(pure.o)
                0x00113fee                __cxa_pure_virtual
 .text._ZN10__cxxabiv111__terminateEPFvvE
                0x00113ff4        0x8 c:/progra~2/microsoft visual studio/2019/community/linux/gcc_arm/bin/../lib/gcc/arm-none-eabi/8.2.1/../../../../arm-none-eabi/lib/thumb/v7e-m+fp/hard\libstdc++_nano.a(eh_terminate.o)
                0x00113ff4                __cxxabiv1::__terminate(void (*)())
 .text._ZSt13get_terminatev
                0x00113ffc       0x10 c:/progra~2/microsoft visual studio/2019/community/linux/gcc_arm/bin/../lib/gcc/arm-none-eabi/8.2.1/../../../../arm-none-eabi/lib/thumb/v7e-m+fp/hard\libstdc++_nano.a(eh_terminate.o)
                0x00113ffc                std::get_terminate()
 .text._ZSt9terminatev
                0x0011400c        0xa c:/progra~2/microsoft visual studio/2019/community/linux/gcc_arm/bin/../lib/gcc/arm-none-eabi/8.2.1/../../../../arm-none-eabi/lib/thumb/v7e-m+fp/hard\libstdc++_nano.a(eh_terminate.o)
                0x0011400c                std::terminate()
 .text.__aeabi_atexit
                0x00114016        0xa c:/progra~2/microsoft visual studio/2019/community/linux/gcc_arm/bin/../lib/gcc/arm-none-eabi/8.2.1/../../../../arm-none-eabi/lib/thumb/v7e-m+fp/hard\libstdc++_nano.a(atexit_arm.o)
                0x00114016                __aeabi_atexit
 .text.frexp    0x00114020       0x6c c:/progra~2/microsoft visual studio/2019/community/linux/gcc_arm/bin/../lib/gcc/arm-none-eabi/8.2.1/../../../../arm-none-eabi/lib/thumb/v7e-m+fp/hard\libm.a(lib_a-s_frexp.o)
                0x00114020                frexp
 .text.round    0x0011408c       0xa0 c:/progra~2/microsoft visual studio/2019/community/linux/gcc_arm/bin/../lib/gcc/arm-none-eabi/8.2.1/../../../../arm-none-eabi/lib/thumb/v7e-m+fp/hard\libm.a(lib_a-s_round.o)
                0x0011408c                round
 .text.abort    0x0011412c        0xe c:/progra~2/microsoft visual studio/2019/community/linux/gcc_arm/bin/../lib/gcc/arm-none-eabi/8.2.1/../../../../arm-none-eabi/lib/thumb/v7e-m+fp/hard\libc_nano.a(lib_a-abort.o)
                0x0011412c                abort
 *fill*         0x0011413a        0x2 
 .text.__cxa_atexit
                0x0011413c       0x1c c:/progra~2/microsoft visual studio/2019/community/linux/gcc_arm/bin/../lib/gcc/arm-none-eabi/8.2.1/../../../../arm-none-eabi/lib/thumb/v7e-m+fp/hard\libc_nano.a(lib_a-cxa_atexit.o)
                0x0011413c                __cxa_atexit
 .text.free     0x00114158       0x10 c:/progra~2/microsoft visual studio/2019/community/linux/gcc_arm/bin/../lib/gcc/arm-none-eabi/8.2.1/../../../../arm-none-eabi/lib/thumb/v7e-m+fp/hard\libc_nano.a(lib_a-malloc.o)
                0x00114158                free
 .text.memcpy   0x00114168       0x1c c:/progra~2/microsoft visual studio/2019/community/linux/gcc_arm/bin/../lib/gcc/arm-none-eabi/8.2.1/../../../../arm-none-eabi/lib/thumb/v7e-m+fp/hard\libc_nano.a(lib_a-memcpy-stub.o)
                0x00114168                memcpy
 .text.memset   0x00114184       0x10 c:/progra~2/microsoft visual studio/2019/community/linux/gcc_arm/bin/../lib/gcc/arm-none-eabi/8.2.1/../../../../arm-none-eabi/lib/thumb/v7e-m+fp/hard\libc_nano.a(lib_a-memset.o)
                0x00114184                memset
 .text._free_r  0x00114194       0x9c c:/progra~2/microsoft visual studio/2019/community/linux/gcc_arm/bin/../lib/gcc/arm-none-eabi/8.2.1/../../../../arm-none-eabi/lib/thumb/v7e-m+fp/hard\libc_nano.a(lib_a-nano-freer.o)
                0x00114194                _free_r
 .text._raise_r
                0x00114230       0x50 c:/progra~2/microsoft visual studio/2019/community/linux/gcc_arm/bin/../lib/gcc/arm-none-eabi/8.2.1/../../../../arm-none-eabi/lib/thumb/v7e-m+fp/hard\libc_nano.a(lib_a-signal.o)
                0x00114230                _raise_r
 .text.raise    0x00114280       0x10 c:/progra~2/microsoft visual studio/2019/community/linux/gcc_arm/bin/../lib/gcc/arm-none-eabi/8.2.1/../../../../arm-none-eabi/lib/thumb/v7e-m+fp/hard\libc_nano.a(lib_a-signal.o)
                0x00114280                raise
 .text._kill_r  0x00114290       0x24 c:/progra~2/microsoft visual studio/2019/community/linux/gcc_arm/bin/../lib/gcc/arm-none-eabi/8.2.1/../../../../arm-none-eabi/lib/thumb/v7e-m+fp/hard\libc_nano.a(lib_a-signalr.o)
                0x00114290                _kill_r
 .text._getpid_r
                0x001142b4        0x4 c:/progra~2/microsoft visual studio/2019/community/linux/gcc_arm/bin/../lib/gcc/arm-none-eabi/8.2.1/../../../../arm-none-eabi/lib/thumb/v7e-m+fp/hard\libc_nano.a(lib_a-signalr.o)
                0x001142b4                _getpid_r
 .text.__malloc_lock
                0x001142b8        0xc c:/progra~2/microsoft visual studio/2019/community/linux/gcc_arm/bin/../lib/gcc/arm-none-eabi/8.2.1/../../../../arm-none-eabi/lib/thumb/v7e-m+fp/hard\libc_nano.a(lib_a-mlock.o)
                0x001142b8                __malloc_lock
 .text.__malloc_unlock
                0x001142c4        0xc c:/progra~2/microsoft visual studio/2019/community/linux/gcc_arm/bin/../lib/gcc/arm-none-eabi/8.2.1/../../../../arm-none-eabi/lib/thumb/v7e-m+fp/hard\libc_nano.a(lib_a-mlock.o)
                0x001142c4                __malloc_unlock
 .text.__retarget_lock_acquire_recursive
                0x001142d0        0x2 c:/progra~2/microsoft visual studio/2019/community/linux/gcc_arm/bin/../lib/gcc/arm-none-eabi/8.2.1/../../../../arm-none-eabi/lib/thumb/v7e-m+fp/hard\libc_nano.a(lib_a-lock.o)
                0x001142d0                __retarget_lock_acquire_recursive
 .text.__retarget_lock_release_recursive
                0x001142d2        0x2 c:/progra~2/microsoft visual studio/2019/community/linux/gcc_arm/bin/../lib/gcc/arm-none-eabi/8.2.1/../../../../arm-none-eabi/lib/thumb/v7e-m+fp/hard\libc_nano.a(lib_a-lock.o)
                0x001142d2                __retarget_lock_release_recursive
 .text._getpid  0x001142d4       0x10 c:/progra~2/microsoft visual studio/2019/community/linux/gcc_arm/bin/../lib/gcc/arm-none-eabi/8.2.1/../../../../arm-none-eabi/lib/thumb/v7e-m+fp/hard\libnosys.a(getpid.o)
                0x001142d4                _getpid
 .text._kill    0x001142e4       0x10 c:/progra~2/microsoft visual studio/2019/community/linux/gcc_arm/bin/../lib/gcc/arm-none-eabi/8.2.1/../../../../arm-none-eabi/lib/thumb/v7e-m+fp/hard\libnosys.a(kill.o)
                0x001142e4                _kill
 .text._exit    0x001142f4        0x4 c:/progra~2/microsoft visual studio/2019/community/linux/gcc_arm/bin/../lib/gcc/arm-none-eabi/8.2.1/../../../../arm-none-eabi/lib/thumb/v7e-m+fp/hard\libnosys.a(_exit.o)
                0x001142f4                _exit
                0x001142f8                _init_array_start = .
 *(SORT_BY_NAME(.init_array*))
                0x001142f8                _init_array_end = .
                0x001142f8                . = ALIGN (0x4)
                0x001142f8                _etext = .

.glue_7         0x001142f8        0x0
 .glue_7        0x001142f8        0x0 linker stubs

.glue_7t        0x001142f8        0x0
 .glue_7t       0x001142f8        0x0 linker stubs

.vfp11_veneer   0x001142f8        0x0
 .vfp11_veneer  0x001142f8        0x0 linker stubs

.v4_bx          0x001142f8        0x0
 .v4_bx         0x001142f8        0x0 linker stubs

.iplt           0x001142f8        0x0
 .iplt          0x001142f8        0x0 CMakeFiles/azure-sphere-combo-cifar10-rtcore.dir/main.c.obj

.ARM.extab
 *(.ARM.extab* .gnu.linkonce.armextab.*)
                0x001142f8                __exidx_start = .

.ARM.exidx      0x001142f8        0x8
 *(.ARM.exidx* .gnu.linkonce.armexidx.*)
 .ARM.exidx     0x001142f8        0x8 c:/progra~2/microsoft visual studio/2019/community/linux/gcc_arm/bin/../lib/gcc/arm-none-eabi/8.2.1/thumb/v7e-m+fp/hard\libgcc.a(_udivmoddi4.o)
                0x00114300                __exidx_end = .

.rodata         0x10000000    0x108c4
 *(.rodata)
 .rodata        0x10000000       0x59 CMakeFiles/azure-sphere-combo-cifar10-rtcore.dir/main.c.obj
 *fill*         0x10000059        0x3 
 .rodata        0x1000005c       0x46 CMakeFiles/azure-sphere-combo-cifar10-rtcore.dir/f0775b8a0a1a4f21b831569dbc2a2e8d/project/source/RTCORE_OS_HAL/src/os_hal_uart.c.obj
 *fill*         0x100000a2        0x2 
 .rodata        0x100000a4      0x1a6 CMakeFiles/azure-sphere-combo-cifar10-rtcore.dir/f0775b8a0a1a4f21b831569dbc2a2e8d/project/source/RTCORE_OS_HAL/src/os_hal_mbox.c.obj
 *fill*         0x1000024a        0x6 
 .rodata        0x10000250       0x50 lib/MT3620_M4_Driver/libMT3620_M4_Driver.a(printf.c.obj)
 .rodata        0x100002a0       0x17 lib/MT3620_M4_Driver/libMT3620_M4_Driver.a(hdl_uart.c.obj)
 *fill*         0x100002b7        0x1 
 .rodata        0x100002b8       0x6c lib/MT3620_M4_Driver/libMT3620_M4_Driver.a(mhal_mbox.c.obj)
 .rodata        0x10000324        0xd ../../../../../../prebuilts/lib/libtensorflow-microlite.a(micro_string.o)
 *(.rodata*)
 *fill*         0x10000331        0x3 
 .rodata.str1.4
                0x10000334       0xd7 CMakeFiles/azure-sphere-combo-cifar10-rtcore.dir/main.c.obj
                                 0xdb (size before relaxing)
 *fill*         0x1000040b        0x1 
 .rodata.str1.4
                0x1000040c       0x78 CMakeFiles/azure-sphere-combo-cifar10-rtcore.dir/f0775b8a0a1a4f21b831569dbc2a2e8d/project/source/RTCORE_OS_HAL/src/os_hal_uart.c.obj
 .rodata.str1.4
                0x10000484      0x194 CMakeFiles/azure-sphere-combo-cifar10-rtcore.dir/f0775b8a0a1a4f21b831569dbc2a2e8d/project/source/RTCORE_OS_HAL/src/os_hal_mbox.c.obj
 .rodata.str1.4
                0x10000618      0x1f4 CMakeFiles/azure-sphere-combo-cifar10-rtcore.dir/e19389ff1b18dd4296d4faeafb009a24/source/RTCORE_OS_HAL/src/os_hal_mbox_shared_mem.c.obj
 .rodata.output_emergency_detect_tflite
                0x1000080c     0xdb58 CMakeFiles/azure-sphere-combo-cifar10-rtcore.dir/f0775b8a0a1a4f21b831569dbc2a2e8d/project/app/lib_src/emergency_detect/emergency-detect.cc.obj
                0x1000080c                output_emergency_detect_tflite
 .rodata.output_emergency_detect_tflite_len
                0x1000e364        0x4 CMakeFiles/azure-sphere-combo-cifar10-rtcore.dir/f0775b8a0a1a4f21b831569dbc2a2e8d/project/app/lib_src/emergency_detect/emergency-detect.cc.obj
                0x1000e364                output_emergency_detect_tflite_len
 .rodata._ZTVN6tflite22MicroMutableOpResolverILj3EEE
                0x1000e368       0x24 CMakeFiles/azure-sphere-combo-cifar10-rtcore.dir/f0775b8a0a1a4f21b831569dbc2a2e8d/project/app/lib_src/emergency_detect/main.cc.obj
                0x1000e368                vtable for tflite::MicroMutableOpResolver<3u>
 .rodata.emergency_detect_loop.str1.4
                0x1000e38c       0x1d CMakeFiles/azure-sphere-combo-cifar10-rtcore.dir/f0775b8a0a1a4f21b831569dbc2a2e8d/project/app/lib_src/emergency_detect/main.cc.obj
 *fill*         0x1000e3a9        0x3 
 .rodata.emergency_detect_setup.str1.4
                0x1000e3ac      0x11c CMakeFiles/azure-sphere-combo-cifar10-rtcore.dir/f0775b8a0a1a4f21b831569dbc2a2e8d/project/app/lib_src/emergency_detect/main.cc.obj
 .rodata.str1.4
                0x1000e4c8       0x13 CMakeFiles/azure-sphere-combo-cifar10-rtcore.dir/f0775b8a0a1a4f21b831569dbc2a2e8d/project/app/lib_src/emergency_detect/main.cc.obj
                                 0x67 (size before relaxing)
 *fill*         0x1000e4db        0x1 
 .rodata.str1.4
                0x1000e4dc       0x15 lib/MT3620_M4_Driver/libMT3620_M4_Driver.a(printf.c.obj)
 *fill*         0x1000e4f1        0x3 
 .rodata.str1.4
                0x1000e4f4      0x236 lib/MT3620_M4_Driver/libMT3620_M4_Driver.a(mhal_mbox.c.obj)
 *fill*         0x1000e72a        0x6 
 .rodata._ZTVN6tflite18MicroErrorReporterE
                0x1000e730       0x18 ../../../../../../prebuilts/lib/libtensorflow-microlite.a(micro_error_reporter.o)
                0x1000e730                vtable for tflite::MicroErrorReporter
 .rodata.str1.1
                0x1000e748        0x0 ../../../../../../prebuilts/lib/libtensorflow-microlite.a(micro_error_reporter.o)
                                  0x3 (size before relaxing)
 .rodata._ZZN6tflite24EnumNamesBuiltinOperatorEvE5names
                0x1000e748      0x200 ../../../../../../prebuilts/lib/libtensorflow-microlite.a(micro_interpreter.o)
                0x1000e748                tflite::EnumNamesBuiltinOperator()::names
 .rodata.str1.1
                0x1000e948      0x66f ../../../../../../prebuilts/lib/libtensorflow-microlite.a(micro_interpreter.o)
                                0x6c7 (size before relaxing)
 .rodata.str1.1
                0x1000efb7        0xc ../../../../../../prebuilts/lib/libtensorflow-microlite.a(micro_string.o)
 .rodata.str1.1
                0x1000efc3       0x44 ../../../../../../prebuilts/lib/libtensorflow-microlite.a(simple_memory_allocator.o)
                                 0x57 (size before relaxing)
 *fill*         0x1000f007        0x1 
 .rodata._ZTVN6tflite21SimpleMemoryAllocatorE
                0x1000f008       0x18 ../../../../../../prebuilts/lib/libtensorflow-microlite.a(simple_memory_allocator.o)
                0x1000f008                vtable for tflite::SimpleMemoryAllocator
 .rodata.str1.1
                0x1000f020      0x192 ../../../../../../prebuilts/lib/libtensorflow-microlite.a(flatbuffer_conversions.o)
                                0x1a5 (size before relaxing)
 .rodata.CSWTCH.146
                0x1000f1b2        0x5 ../../../../../../prebuilts/lib/libtensorflow-microlite.a(flatbuffer_conversions.o)
 .rodata.str1.1
                0x1000f1b7      0x162 ../../../../../../prebuilts/lib/libtensorflow-microlite.a(dynamic_agent.o)
                                0x175 (size before relaxing)
 *fill*         0x1000f319        0x3 
 .rodata.str1.4
                0x1000f31c      0x2e1 ../../../../../../prebuilts/lib/libtensorflow-microlite.a(pooling.o)
                                0x2f8 (size before relaxing)
 *fill*         0x1000f5fd        0x3 
 .rodata.str1.4
                0x1000f600      0x1d5 ../../../../../../prebuilts/lib/libtensorflow-microlite.a(kernel_util.o)
                                0x208 (size before relaxing)
 *fill*         0x1000f7d5        0x3 
 .rodata.str1.4
                0x1000f7d8      0x210 ../../../../../../prebuilts/lib/libtensorflow-microlite.a(conv.o)
                                0x2e4 (size before relaxing)
 .rodata.str1.4
                0x1000f9e8      0x653 ../../../../../../prebuilts/lib/libtensorflow-microlite.a(depthwise_conv.o)
                                0x7dc (size before relaxing)
 .rodata.str1.1
                0x1001003b       0x22 ../../../../../../prebuilts/lib/libtensorflow-microlite.a(memory_helpers.o)
                                 0x35 (size before relaxing)
 *fill*         0x1001005d        0x3 
 .rodata._ZTVN6tflite20BuiltinDataAllocatorE
                0x10010060       0x18 ../../../../../../prebuilts/lib/libtensorflow-microlite.a(micro_allocator.o)
                0x10010060                vtable for tflite::BuiltinDataAllocator
 .rodata._ZTVN6tflite12_GLOBAL__N_125MicroBuiltinDataAllocatorE
                0x10010078       0x18 ../../../../../../prebuilts/lib/libtensorflow-microlite.a(micro_allocator.o)
 .rodata.str1.1
                0x10010090      0x580 ../../../../../../prebuilts/lib/libtensorflow-microlite.a(micro_allocator.o)
                                0xaf4 (size before relaxing)
 .rodata._ZTVN6tflite14MicroAllocatorE
                0x10010610       0x28 ../../../../../../prebuilts/lib/libtensorflow-microlite.a(micro_allocator.o)
                0x10010610                vtable for tflite::MicroAllocator
 .rodata._ZN6tflite12_GLOBAL__N_1L19kZeroLengthIntArrayE
                0x10010638        0x4 ../../../../../../prebuilts/lib/libtensorflow-microlite.a(micro_allocator.o)
 *fill*         0x1001063c        0x4 
 .rodata._ZTVN6tflite13MemoryPlannerE
                0x10010640       0x20 ../../../../../../prebuilts/lib/libtensorflow-microlite.a(greedy_memory_planner.o)
                0x10010640                vtable for tflite::MemoryPlanner
 .rodata.str1.1
                0x10010660       0xe6 ../../../../../../prebuilts/lib/libtensorflow-microlite.a(greedy_memory_planner.o)
                                 0xe9 (size before relaxing)
 *fill*         0x10010746        0x2 
 .rodata._ZTVN6tflite19GreedyMemoryPlannerE
                0x10010748       0x20 ../../../../../../prebuilts/lib/libtensorflow-microlite.a(greedy_memory_planner.o)
                0x10010748                vtable for tflite::GreedyMemoryPlanner
 .rodata.CSWTCH.8
                0x10010768       0x30 ../../../../../../prebuilts/lib/libtensorflow-microlite.a(common.o)
 .rodata.str1.1
                0x10010798       0x5a ../../../../../../prebuilts/lib/libtensorflow-microlite.a(common.o)
                                 0x5f (size before relaxing)
 .rodata.str1.1
                0x100107f2       0xc0 ../../../../../../prebuilts/lib/libtensorflow-microlite.a(op_resolver.o)
                                0x5f3 (size before relaxing)
 *fill*         0x100108b2        0x2 
 .rodata.str1.4
                0x100108b4       0x10 lib/MT3620_M4_Driver/MT3620_M4_BSP/FreeRTOS/libMT3620_M4_FreeRTOS.a(timers.c.obj)

.rel.dyn        0x100108c4        0x0
 .rel.iplt      0x100108c4        0x0 CMakeFiles/azure-sphere-combo-cifar10-rtcore.dir/main.c.obj

.data           0x00114300      0x1ac
                0x00114300                . = ALIGN (0x4)
                0x00114300                _sdata = .
 *(.data)
 .data          0x00114300       0xc0 lib/MT3620_M4_Driver/lib/MT3620_M4_BSP/libMT3620_M4_BSP.a(cirq_common.c.obj)
                0x00114300                gpio_irq_tbl
 .data          0x001143c0        0x4 lib/MT3620_M4_Driver/MT3620_M4_BSP/FreeRTOS/libMT3620_M4_FreeRTOS.a(port.c.obj)
 *(.data*)
 .data._ZZ22emergency_detect_setupE20micro_error_reporter
                0x001143c4        0x4 CMakeFiles/azure-sphere-combo-cifar10-rtcore.dir/f0775b8a0a1a4f21b831569dbc2a2e8d/project/app/lib_src/emergency_detect/main.cc.obj
 .data.emergency_detect_classes
                0x001143c8       0x1c CMakeFiles/azure-sphere-combo-cifar10-rtcore.dir/f0775b8a0a1a4f21b831569dbc2a2e8d/project/app/lib_src/emergency_detect/main.cc.obj
                0x001143c8                emergency_detect_classes
 .data._ZZN6tflite3ops5micro24Register_AVERAGE_POOL_2DEvE1r
                0x001143e4       0x20 ../../../../../../prebuilts/lib/libtensorflow-microlite.a(pooling.o)
 .data._ZZN6tflite3ops5micro16Register_CONV_2DEvE1r
                0x00114404       0x20 ../../../../../../prebuilts/lib/libtensorflow-microlite.a(conv.o)
 .data._ZZN6tflite3ops5micro26Register_DEPTHWISE_CONV_2DEvE1r
                0x00114424       0x20 ../../../../../../prebuilts/lib/libtensorflow-microlite.a(depthwise_conv.o)
 .data._ZN10__cxxabiv119__terminate_handlerE
                0x00114444        0x4 c:/progra~2/microsoft visual studio/2019/community/linux/gcc_arm/bin/../lib/gcc/arm-none-eabi/8.2.1/../../../../arm-none-eabi/lib/thumb/v7e-m+fp/hard\libstdc++_nano.a(eh_term_handler.o)
                0x00114444                __cxxabiv1::__terminate_handler
 .data._impure_ptr
                0x00114448        0x4 c:/progra~2/microsoft visual studio/2019/community/linux/gcc_arm/bin/../lib/gcc/arm-none-eabi/8.2.1/../../../../arm-none-eabi/lib/thumb/v7e-m+fp/hard\libc_nano.a(lib_a-impure.o)
                0x00114448                _impure_ptr
 .data.impure_data
                0x0011444c       0x60 c:/progra~2/microsoft visual studio/2019/community/linux/gcc_arm/bin/../lib/gcc/arm-none-eabi/8.2.1/../../../../arm-none-eabi/lib/thumb/v7e-m+fp/hard\libc_nano.a(lib_a-impure.o)
                0x001144ac                . = ALIGN (0x4)
                0x001144ac                _edata = .

.igot.plt       0x001144ac        0x0
 .igot.plt      0x001144ac        0x0 CMakeFiles/azure-sphere-combo-cifar10-rtcore.dir/main.c.obj

.bss            0x001144c0    0x146d8
                0x001144c0                . = ALIGN (0x4)
                0x001144c0                __bss_start__ = .
 *(.bss)
 .bss           0x001144c0      0xc08 CMakeFiles/azure-sphere-combo-cifar10-rtcore.dir/main.c.obj
                0x001144c0                blockDeqSema
                0x001144c4                blockFifoSema
 .bss           0x001150c8      0x210 CMakeFiles/azure-sphere-combo-cifar10-rtcore.dir/f0775b8a0a1a4f21b831569dbc2a2e8d/project/source/RTCORE_OS_HAL/src/os_hal_uart.c.obj
 .bss           0x001152d8       0xa8 CMakeFiles/azure-sphere-combo-cifar10-rtcore.dir/f0775b8a0a1a4f21b831569dbc2a2e8d/project/source/RTCORE_OS_HAL/src/os_hal_mbox.c.obj
 .bss           0x00115380        0xc lib/MT3620_M4_Driver/lib/MT3620_M4_BSP/libMT3620_M4_BSP.a(nvic.c.obj)
                0x00115380                sys_tick_in_ms
                0x00115384                backup_handler
                0x00115388                backup_irqn
 *fill*         0x0011538c        0x4 
 .bss           0x00115390       0x40 lib/MT3620_M4_Driver/MT3620_M4_BSP/FreeRTOS/libMT3620_M4_FreeRTOS.a(queue.c.obj)
                0x00115390                xQueueRegistry
 .bss           0x001153d0      0x168 lib/MT3620_M4_Driver/MT3620_M4_BSP/FreeRTOS/libMT3620_M4_FreeRTOS.a(tasks.c.obj)
                0x001154b8                pxCurrentTCB
 .bss           0x00115538       0x3c lib/MT3620_M4_Driver/MT3620_M4_BSP/FreeRTOS/libMT3620_M4_FreeRTOS.a(timers.c.obj)
 .bss           0x00115574       0x18 lib/MT3620_M4_Driver/MT3620_M4_BSP/FreeRTOS/libMT3620_M4_FreeRTOS.a(heap_4.c.obj)
 .bss           0x0011558c        0x8 lib/MT3620_M4_Driver/MT3620_M4_BSP/FreeRTOS/libMT3620_M4_FreeRTOS.a(port.c.obj)
 *(.bss*)
 .bss._ZGVZ22emergency_detect_setupE18static_interpreter
                0x00115594        0x4 CMakeFiles/azure-sphere-combo-cifar10-rtcore.dir/f0775b8a0a1a4f21b831569dbc2a2e8d/project/app/lib_src/emergency_detect/main.cc.obj
 .bss._ZGVZ22emergency_detect_setupE20micro_error_reporter
                0x00115598        0x4 CMakeFiles/azure-sphere-combo-cifar10-rtcore.dir/f0775b8a0a1a4f21b831569dbc2a2e8d/project/app/lib_src/emergency_detect/main.cc.obj
 .bss._ZGVZ22emergency_detect_setupE8resolver
                0x0011559c        0x4 CMakeFiles/azure-sphere-combo-cifar10-rtcore.dir/f0775b8a0a1a4f21b831569dbc2a2e8d/project/app/lib_src/emergency_detect/main.cc.obj
 .bss._ZZ22emergency_detect_setupE18static_interpreter
                0x001155a0     0x1540 CMakeFiles/azure-sphere-combo-cifar10-rtcore.dir/f0775b8a0a1a4f21b831569dbc2a2e8d/project/app/lib_src/emergency_detect/main.cc.obj
 .bss._ZZ22emergency_detect_setupE8resolver
                0x00116ae0       0x80 CMakeFiles/azure-sphere-combo-cifar10-rtcore.dir/f0775b8a0a1a4f21b831569dbc2a2e8d/project/app/lib_src/emergency_detect/main.cc.obj
 .bss.error_reporter
                0x00116b60        0x4 CMakeFiles/azure-sphere-combo-cifar10-rtcore.dir/f0775b8a0a1a4f21b831569dbc2a2e8d/project/app/lib_src/emergency_detect/main.cc.obj
                0x00116b60                error_reporter
 .bss.interpreter
                0x00116b64        0x4 CMakeFiles/azure-sphere-combo-cifar10-rtcore.dir/f0775b8a0a1a4f21b831569dbc2a2e8d/project/app/lib_src/emergency_detect/main.cc.obj
                0x00116b64                interpreter
 .bss.model     0x00116b68        0x4 CMakeFiles/azure-sphere-combo-cifar10-rtcore.dir/f0775b8a0a1a4f21b831569dbc2a2e8d/project/app/lib_src/emergency_detect/main.cc.obj
                0x00116b68                model
 .bss.model_input
                0x00116b6c        0x4 CMakeFiles/azure-sphere-combo-cifar10-rtcore.dir/f0775b8a0a1a4f21b831569dbc2a2e8d/project/app/lib_src/emergency_detect/main.cc.obj
                0x00116b6c                model_input
 .bss.model_output
                0x00116b70        0x4 CMakeFiles/azure-sphere-combo-cifar10-rtcore.dir/f0775b8a0a1a4f21b831569dbc2a2e8d/project/app/lib_src/emergency_detect/main.cc.obj
                0x00116b70                model_output
 *fill*         0x00116b74        0xc 
 .bss.tensor_arena
                0x00116b80    0x12000 CMakeFiles/azure-sphere-combo-cifar10-rtcore.dir/f0775b8a0a1a4f21b831569dbc2a2e8d/project/app/lib_src/emergency_detect/main.cc.obj
                0x00116b80                tensor_arena
 .bss._ZL16UART_INITIALISED
                0x00128b80        0x4 ../../../../../../prebuilts/lib/libtensorflow-microlite.a(debug_log.o)
 .bss.__malloc_free_list
                0x00128b84        0x4 c:/progra~2/microsoft visual studio/2019/community/linux/gcc_arm/bin/../lib/gcc/arm-none-eabi/8.2.1/../../../../arm-none-eabi/lib/thumb/v7e-m+fp/hard\libc_nano.a(lib_a-nano-mallocr.o)
                0x00128b84                __malloc_free_list
 *(COMMON)
 COMMON         0x00128b88        0x4 c:/progra~2/microsoft visual studio/2019/community/linux/gcc_arm/bin/../lib/gcc/arm-none-eabi/8.2.1/../../../../arm-none-eabi/lib/thumb/v7e-m+fp/hard\libc_nano.a(lib_a-reent.o)
                0x00128b88                errno
 COMMON         0x00128b8c        0x9 c:/progra~2/microsoft visual studio/2019/community/linux/gcc_arm/bin/../lib/gcc/arm-none-eabi/8.2.1/../../../../arm-none-eabi/lib/thumb/v7e-m+fp/hard\libc_nano.a(lib_a-lock.o)
                0x00128b8c                __lock___atexit_recursive_mutex
                0x00128b8d                __lock___arc4random_mutex
                0x00128b8e                __lock___env_recursive_mutex
                0x00128b8f                __lock___sinit_recursive_mutex
                0x00128b90                __lock___malloc_recursive_mutex
                0x00128b91                __lock___at_quick_exit_mutex
                0x00128b92                __lock___dd_hash_mutex
                0x00128b93                __lock___tz_mutex
                0x00128b94                __lock___sfp_recursive_mutex
                0x00128b98                . = ALIGN (0x4)
 *fill*         0x00128b95        0x3 
                0x00128b98                __bss_end__ = .
                0x00128b98                end = .

.freertosheap   0x22000000    0x10000
 *(.freertosheap)
 .freertosheap  0x22000000    0x10000 lib/MT3620_M4_Driver/MT3620_M4_BSP/FreeRTOS/libMT3620_M4_FreeRTOS.a(heap_4.c.obj)
                0x00130000                StackTop = (ORIGIN (TCM) + LENGTH (TCM))
OUTPUT(azure-sphere-combo-cifar10-rtcore.out elf32-littlearm)

.debug_info     0x00000000     0x3f81
 .debug_info    0x00000000       0xf4 CMakeFiles/azure-sphere-combo-cifar10-rtcore.dir/main.c.obj
 .debug_info    0x000000f4      0x315 CMakeFiles/azure-sphere-combo-cifar10-rtcore.dir/f0775b8a0a1a4f21b831569dbc2a2e8d/project/source/RTCORE_OS_HAL/src/os_hal_uart.c.obj
 .debug_info    0x00000409      0x799 CMakeFiles/azure-sphere-combo-cifar10-rtcore.dir/f0775b8a0a1a4f21b831569dbc2a2e8d/project/source/RTCORE_OS_HAL/src/os_hal_mbox.c.obj
 .debug_info    0x00000ba2      0x133 CMakeFiles/azure-sphere-combo-cifar10-rtcore.dir/e19389ff1b18dd4296d4faeafb009a24/source/RTCORE_OS_HAL/src/os_hal_mbox_shared_mem.c.obj
 .debug_info    0x00000cd5      0x4a6 CMakeFiles/azure-sphere-combo-cifar10-rtcore.dir/f0775b8a0a1a4f21b831569dbc2a2e8d/project/app/lib_src/emergency_detect/main.cc.obj
 .debug_info    0x0000117b      0x282 lib/MT3620_M4_Driver/libMT3620_M4_Driver.a(printf.c.obj)
 .debug_info    0x000013fd      0x2ad lib/MT3620_M4_Driver/libMT3620_M4_Driver.a(mhal_uart.c.obj)
 .debug_info    0x000016aa      0x148 lib/MT3620_M4_Driver/libMT3620_M4_Driver.a(hdl_uart.c.obj)
 .debug_info    0x000017f2       0x96 lib/MT3620_M4_Driver/libMT3620_M4_Driver.a(mhal_mbox.c.obj)
 .debug_info    0x00001888      0x3d9 lib/MT3620_M4_Driver/libMT3620_M4_Driver.a(hdl_mbox.c.obj)
 .debug_info    0x00001c61      0x162 lib/MT3620_M4_Driver/libMT3620_M4_Driver.a(mhal_osai.c.obj)
 .debug_info    0x00001dc3      0x286 lib/MT3620_M4_Driver/lib/MT3620_M4_BSP/libMT3620_M4_BSP.a(nvic.c.obj)
 .debug_info    0x00002049      0x117 lib/MT3620_M4_Driver/lib/MT3620_M4_BSP/libMT3620_M4_BSP.a(cirq_common.c.obj)
 .debug_info    0x00002160       0x38 lib/MT3620_M4_Driver/lib/MT3620_M4_BSP/libMT3620_M4_BSP.a(vector_table.c.obj)
 .debug_info    0x00002198       0x26 lib/MT3620_M4_Driver/lib/MT3620_M4_BSP/libMT3620_M4_BSP.a(startup_mt3620.s.obj)
 .debug_info    0x000021be      0x8b5 lib/MT3620_M4_Driver/MT3620_M4_BSP/FreeRTOS/libMT3620_M4_FreeRTOS.a(queue.c.obj)
 .debug_info    0x00002a73      0xc96 lib/MT3620_M4_Driver/MT3620_M4_BSP/FreeRTOS/libMT3620_M4_FreeRTOS.a(tasks.c.obj)
 .debug_info    0x00003709      0x437 lib/MT3620_M4_Driver/MT3620_M4_BSP/FreeRTOS/libMT3620_M4_FreeRTOS.a(timers.c.obj)
 .debug_info    0x00003b40      0x128 lib/MT3620_M4_Driver/MT3620_M4_BSP/FreeRTOS/libMT3620_M4_FreeRTOS.a(heap_4.c.obj)
 .debug_info    0x00003c68      0x299 lib/MT3620_M4_Driver/MT3620_M4_BSP/FreeRTOS/libMT3620_M4_FreeRTOS.a(port.c.obj)
 .debug_info    0x00003f01       0x80 lib/MT3620_M4_Driver/MT3620_M4_BSP/FreeRTOS/libMT3620_M4_FreeRTOS.a(list.c.obj)

.debug_abbrev   0x00000000     0x10dd
 .debug_abbrev  0x00000000       0xaf CMakeFiles/azure-sphere-combo-cifar10-rtcore.dir/main.c.obj
 .debug_abbrev  0x000000af       0xe9 CMakeFiles/azure-sphere-combo-cifar10-rtcore.dir/f0775b8a0a1a4f21b831569dbc2a2e8d/project/source/RTCORE_OS_HAL/src/os_hal_uart.c.obj
 .debug_abbrev  0x00000198      0x16c CMakeFiles/azure-sphere-combo-cifar10-rtcore.dir/f0775b8a0a1a4f21b831569dbc2a2e8d/project/source/RTCORE_OS_HAL/src/os_hal_mbox.c.obj
 .debug_abbrev  0x00000304       0x70 CMakeFiles/azure-sphere-combo-cifar10-rtcore.dir/e19389ff1b18dd4296d4faeafb009a24/source/RTCORE_OS_HAL/src/os_hal_mbox_shared_mem.c.obj
 .debug_abbrev  0x00000374      0x1d1 CMakeFiles/azure-sphere-combo-cifar10-rtcore.dir/f0775b8a0a1a4f21b831569dbc2a2e8d/project/app/lib_src/emergency_detect/main.cc.obj
 .debug_abbrev  0x00000545      0x11d lib/MT3620_M4_Driver/libMT3620_M4_Driver.a(printf.c.obj)
 .debug_abbrev  0x00000662       0xbb lib/MT3620_M4_Driver/libMT3620_M4_Driver.a(mhal_uart.c.obj)
 .debug_abbrev  0x0000071d       0x86 lib/MT3620_M4_Driver/libMT3620_M4_Driver.a(hdl_uart.c.obj)
 .debug_abbrev  0x000007a3       0x66 lib/MT3620_M4_Driver/libMT3620_M4_Driver.a(mhal_mbox.c.obj)
 .debug_abbrev  0x00000809       0x76 lib/MT3620_M4_Driver/libMT3620_M4_Driver.a(hdl_mbox.c.obj)
 .debug_abbrev  0x0000087f       0xb8 lib/MT3620_M4_Driver/libMT3620_M4_Driver.a(mhal_osai.c.obj)
 .debug_abbrev  0x00000937      0x10e lib/MT3620_M4_Driver/lib/MT3620_M4_BSP/libMT3620_M4_BSP.a(nvic.c.obj)
 .debug_abbrev  0x00000a45       0x44 lib/MT3620_M4_Driver/lib/MT3620_M4_BSP/libMT3620_M4_BSP.a(cirq_common.c.obj)
 .debug_abbrev  0x00000a89       0x2d lib/MT3620_M4_Driver/lib/MT3620_M4_BSP/libMT3620_M4_BSP.a(vector_table.c.obj)
 .debug_abbrev  0x00000ab6       0x14 lib/MT3620_M4_Driver/lib/MT3620_M4_BSP/libMT3620_M4_BSP.a(startup_mt3620.s.obj)
 .debug_abbrev  0x00000aca      0x146 lib/MT3620_M4_Driver/MT3620_M4_BSP/FreeRTOS/libMT3620_M4_FreeRTOS.a(queue.c.obj)
 .debug_abbrev  0x00000c10      0x183 lib/MT3620_M4_Driver/MT3620_M4_BSP/FreeRTOS/libMT3620_M4_FreeRTOS.a(tasks.c.obj)
 .debug_abbrev  0x00000d93      0x163 lib/MT3620_M4_Driver/MT3620_M4_BSP/FreeRTOS/libMT3620_M4_FreeRTOS.a(timers.c.obj)
 .debug_abbrev  0x00000ef6       0xc8 lib/MT3620_M4_Driver/MT3620_M4_BSP/FreeRTOS/libMT3620_M4_FreeRTOS.a(heap_4.c.obj)
 .debug_abbrev  0x00000fbe       0xf3 lib/MT3620_M4_Driver/MT3620_M4_BSP/FreeRTOS/libMT3620_M4_FreeRTOS.a(port.c.obj)
 .debug_abbrev  0x000010b1       0x2c lib/MT3620_M4_Driver/MT3620_M4_BSP/FreeRTOS/libMT3620_M4_FreeRTOS.a(list.c.obj)

.debug_aranges  0x00000000      0x2e0
 .debug_aranges
                0x00000000       0x20 CMakeFiles/azure-sphere-combo-cifar10-rtcore.dir/main.c.obj
 .debug_aranges
                0x00000020       0x20 CMakeFiles/azure-sphere-combo-cifar10-rtcore.dir/f0775b8a0a1a4f21b831569dbc2a2e8d/project/source/RTCORE_OS_HAL/src/os_hal_uart.c.obj
 .debug_aranges
                0x00000040       0x20 CMakeFiles/azure-sphere-combo-cifar10-rtcore.dir/f0775b8a0a1a4f21b831569dbc2a2e8d/project/source/RTCORE_OS_HAL/src/os_hal_mbox.c.obj
 .debug_aranges
                0x00000060       0x20 CMakeFiles/azure-sphere-combo-cifar10-rtcore.dir/e19389ff1b18dd4296d4faeafb009a24/source/RTCORE_OS_HAL/src/os_hal_mbox_shared_mem.c.obj
 .debug_aranges
                0x00000080       0x60 CMakeFiles/azure-sphere-combo-cifar10-rtcore.dir/f0775b8a0a1a4f21b831569dbc2a2e8d/project/app/lib_src/emergency_detect/main.cc.obj
 .debug_aranges
                0x000000e0       0x20 lib/MT3620_M4_Driver/libMT3620_M4_Driver.a(printf.c.obj)
 .debug_aranges
                0x00000100       0x20 lib/MT3620_M4_Driver/libMT3620_M4_Driver.a(mhal_uart.c.obj)
 .debug_aranges
                0x00000120       0x20 lib/MT3620_M4_Driver/libMT3620_M4_Driver.a(hdl_uart.c.obj)
 .debug_aranges
                0x00000140       0x20 lib/MT3620_M4_Driver/libMT3620_M4_Driver.a(mhal_mbox.c.obj)
 .debug_aranges
                0x00000160       0x20 lib/MT3620_M4_Driver/libMT3620_M4_Driver.a(hdl_mbox.c.obj)
 .debug_aranges
                0x00000180       0x20 lib/MT3620_M4_Driver/libMT3620_M4_Driver.a(mhal_osai.c.obj)
 .debug_aranges
                0x000001a0       0x20 lib/MT3620_M4_Driver/lib/MT3620_M4_BSP/libMT3620_M4_BSP.a(nvic.c.obj)
 .debug_aranges
                0x000001c0       0x20 lib/MT3620_M4_Driver/lib/MT3620_M4_BSP/libMT3620_M4_BSP.a(cirq_common.c.obj)
 .debug_aranges
                0x000001e0       0x20 lib/MT3620_M4_Driver/lib/MT3620_M4_BSP/libMT3620_M4_BSP.a(vector_table.c.obj)
 .debug_aranges
                0x00000200       0x20 lib/MT3620_M4_Driver/lib/MT3620_M4_BSP/libMT3620_M4_BSP.a(startup_mt3620.s.obj)
 .debug_aranges
                0x00000220       0x20 lib/MT3620_M4_Driver/MT3620_M4_BSP/FreeRTOS/libMT3620_M4_FreeRTOS.a(queue.c.obj)
 .debug_aranges
                0x00000240       0x20 lib/MT3620_M4_Driver/MT3620_M4_BSP/FreeRTOS/libMT3620_M4_FreeRTOS.a(tasks.c.obj)
 .debug_aranges
                0x00000260       0x20 lib/MT3620_M4_Driver/MT3620_M4_BSP/FreeRTOS/libMT3620_M4_FreeRTOS.a(timers.c.obj)
 .debug_aranges
                0x00000280       0x20 lib/MT3620_M4_Driver/MT3620_M4_BSP/FreeRTOS/libMT3620_M4_FreeRTOS.a(heap_4.c.obj)
 .debug_aranges
                0x000002a0       0x20 lib/MT3620_M4_Driver/MT3620_M4_BSP/FreeRTOS/libMT3620_M4_FreeRTOS.a(port.c.obj)
 .debug_aranges
                0x000002c0       0x20 lib/MT3620_M4_Driver/MT3620_M4_BSP/FreeRTOS/libMT3620_M4_FreeRTOS.a(list.c.obj)

.debug_line     0x00000000     0x6e35
 .debug_line    0x00000000      0x166 CMakeFiles/azure-sphere-combo-cifar10-rtcore.dir/main.c.obj
 .debug_line    0x00000166      0x3b3 CMakeFiles/azure-sphere-combo-cifar10-rtcore.dir/f0775b8a0a1a4f21b831569dbc2a2e8d/project/source/RTCORE_OS_HAL/src/os_hal_uart.c.obj
 .debug_line    0x00000519      0x9bd CMakeFiles/azure-sphere-combo-cifar10-rtcore.dir/f0775b8a0a1a4f21b831569dbc2a2e8d/project/source/RTCORE_OS_HAL/src/os_hal_mbox.c.obj
 .debug_line    0x00000ed6      0x258 CMakeFiles/azure-sphere-combo-cifar10-rtcore.dir/e19389ff1b18dd4296d4faeafb009a24/source/RTCORE_OS_HAL/src/os_hal_mbox_shared_mem.c.obj
 .debug_line    0x0000112e        0x0 CMakeFiles/azure-sphere-combo-cifar10-rtcore.dir/f0775b8a0a1a4f21b831569dbc2a2e8d/project/app/lib_src/emergency_detect/emergency-detect.cc.obj
 .debug_line    0x0000112e      0x68d CMakeFiles/azure-sphere-combo-cifar10-rtcore.dir/f0775b8a0a1a4f21b831569dbc2a2e8d/project/app/lib_src/emergency_detect/main.cc.obj
 .debug_line    0x000017bb      0xb4d lib/MT3620_M4_Driver/libMT3620_M4_Driver.a(printf.c.obj)
 .debug_line    0x00002308      0x501 lib/MT3620_M4_Driver/libMT3620_M4_Driver.a(mhal_uart.c.obj)
 .debug_line    0x00002809      0x2df lib/MT3620_M4_Driver/libMT3620_M4_Driver.a(hdl_uart.c.obj)
 .debug_line    0x00002ae8      0x295 lib/MT3620_M4_Driver/libMT3620_M4_Driver.a(mhal_mbox.c.obj)
 .debug_line    0x00002d7d      0x2a5 lib/MT3620_M4_Driver/libMT3620_M4_Driver.a(hdl_mbox.c.obj)
 .debug_line    0x00003022      0x135 lib/MT3620_M4_Driver/libMT3620_M4_Driver.a(mhal_osai.c.obj)
 .debug_line    0x00003157      0x3c4 lib/MT3620_M4_Driver/lib/MT3620_M4_BSP/libMT3620_M4_BSP.a(nvic.c.obj)
 .debug_line    0x0000351b      0x687 lib/MT3620_M4_Driver/lib/MT3620_M4_BSP/libMT3620_M4_BSP.a(cirq_common.c.obj)
 .debug_line    0x00003ba2       0x90 lib/MT3620_M4_Driver/lib/MT3620_M4_BSP/libMT3620_M4_BSP.a(vector_table.c.obj)
 .debug_line    0x00003c32       0x9f lib/MT3620_M4_Driver/lib/MT3620_M4_BSP/libMT3620_M4_BSP.a(startup_mt3620.s.obj)
 .debug_line    0x00003cd1     0x1072 lib/MT3620_M4_Driver/MT3620_M4_BSP/FreeRTOS/libMT3620_M4_FreeRTOS.a(queue.c.obj)
 .debug_line    0x00004d43     0x14f5 lib/MT3620_M4_Driver/MT3620_M4_BSP/FreeRTOS/libMT3620_M4_FreeRTOS.a(tasks.c.obj)
 .debug_line    0x00006238      0x564 lib/MT3620_M4_Driver/MT3620_M4_BSP/FreeRTOS/libMT3620_M4_FreeRTOS.a(timers.c.obj)
 .debug_line    0x0000679c      0x27a lib/MT3620_M4_Driver/MT3620_M4_BSP/FreeRTOS/libMT3620_M4_FreeRTOS.a(heap_4.c.obj)
 .debug_line    0x00006a16      0x2ba lib/MT3620_M4_Driver/MT3620_M4_BSP/FreeRTOS/libMT3620_M4_FreeRTOS.a(port.c.obj)
 .debug_line    0x00006cd0      0x165 lib/MT3620_M4_Driver/MT3620_M4_BSP/FreeRTOS/libMT3620_M4_FreeRTOS.a(list.c.obj)

.debug_str      0x00000000     0x319b
 .debug_str     0x00000000      0x1a5 CMakeFiles/azure-sphere-combo-cifar10-rtcore.dir/main.c.obj
 .debug_str     0x000001a5      0x2a4 CMakeFiles/azure-sphere-combo-cifar10-rtcore.dir/f0775b8a0a1a4f21b831569dbc2a2e8d/project/source/RTCORE_OS_HAL/src/os_hal_uart.c.obj
                                0x3bd (size before relaxing)
 .debug_str     0x00000449      0x2b7 CMakeFiles/azure-sphere-combo-cifar10-rtcore.dir/f0775b8a0a1a4f21b831569dbc2a2e8d/project/source/RTCORE_OS_HAL/src/os_hal_mbox.c.obj
                                0x3d0 (size before relaxing)
 .debug_str     0x00000700       0xf3 CMakeFiles/azure-sphere-combo-cifar10-rtcore.dir/e19389ff1b18dd4296d4faeafb009a24/source/RTCORE_OS_HAL/src/os_hal_mbox_shared_mem.c.obj
                                0x20c (size before relaxing)
 .debug_str     0x000007f3      0x179 CMakeFiles/azure-sphere-combo-cifar10-rtcore.dir/f0775b8a0a1a4f21b831569dbc2a2e8d/project/app/lib_src/emergency_detect/emergency-detect.cc.obj
                                0x1e3 (size before relaxing)
 .debug_str     0x0000096c      0xa07 CMakeFiles/azure-sphere-combo-cifar10-rtcore.dir/f0775b8a0a1a4f21b831569dbc2a2e8d/project/app/lib_src/emergency_detect/main.cc.obj
                                0xbac (size before relaxing)
 .debug_str     0x00001373      0x108 lib/MT3620_M4_Driver/libMT3620_M4_Driver.a(printf.c.obj)
                                0x233 (size before relaxing)
 .debug_str     0x0000147b      0x3d0 lib/MT3620_M4_Driver/libMT3620_M4_Driver.a(mhal_uart.c.obj)
                                0x4e9 (size before relaxing)
 .debug_str     0x0000184b      0x1d9 lib/MT3620_M4_Driver/libMT3620_M4_Driver.a(hdl_uart.c.obj)
                                0x2f2 (size before relaxing)
 .debug_str     0x00001a24       0xe3 lib/MT3620_M4_Driver/libMT3620_M4_Driver.a(mhal_mbox.c.obj)
                                0x1fc (size before relaxing)
 .debug_str     0x00001b07      0x2d1 lib/MT3620_M4_Driver/libMT3620_M4_Driver.a(hdl_mbox.c.obj)
                                0x3ea (size before relaxing)
 .debug_str     0x00001dd8      0x1ad lib/MT3620_M4_Driver/libMT3620_M4_Driver.a(mhal_osai.c.obj)
                                0x2c6 (size before relaxing)
 .debug_str     0x00001f85      0x145 lib/MT3620_M4_Driver/lib/MT3620_M4_BSP/libMT3620_M4_BSP.a(nvic.c.obj)
                                0x28e (size before relaxing)
 .debug_str     0x000020ca      0x1ae lib/MT3620_M4_Driver/lib/MT3620_M4_BSP/libMT3620_M4_BSP.a(cirq_common.c.obj)
                                0x2c7 (size before relaxing)
 .debug_str     0x00002278       0x77 lib/MT3620_M4_Driver/lib/MT3620_M4_BSP/libMT3620_M4_BSP.a(vector_table.c.obj)
                                0x190 (size before relaxing)
 .debug_str     0x000022ef       0x70 lib/MT3620_M4_Driver/lib/MT3620_M4_BSP/libMT3620_M4_BSP.a(startup_mt3620.s.obj)
                                 0xda (size before relaxing)
 .debug_str     0x0000235f      0x36c lib/MT3620_M4_Driver/MT3620_M4_BSP/FreeRTOS/libMT3620_M4_FreeRTOS.a(queue.c.obj)
                                0x485 (size before relaxing)
 .debug_str     0x000026cb      0x5b5 lib/MT3620_M4_Driver/MT3620_M4_BSP/FreeRTOS/libMT3620_M4_FreeRTOS.a(tasks.c.obj)
                                0x703 (size before relaxing)
 .debug_str     0x00002c80      0x239 lib/MT3620_M4_Driver/MT3620_M4_BSP/FreeRTOS/libMT3620_M4_FreeRTOS.a(timers.c.obj)
                                0x364 (size before relaxing)
 .debug_str     0x00002eb9       0xe9 lib/MT3620_M4_Driver/MT3620_M4_BSP/FreeRTOS/libMT3620_M4_FreeRTOS.a(heap_4.c.obj)
                                0x214 (size before relaxing)
 .debug_str     0x00002fa2      0x158 lib/MT3620_M4_Driver/MT3620_M4_BSP/FreeRTOS/libMT3620_M4_FreeRTOS.a(port.c.obj)
                                0x293 (size before relaxing)
 .debug_str     0x000030fa       0xa1 lib/MT3620_M4_Driver/MT3620_M4_BSP/FreeRTOS/libMT3620_M4_FreeRTOS.a(list.c.obj)
                                0x1ba (size before relaxing)

.comment        0x00000000       0xe5
 .comment       0x00000000       0x75 CMakeFiles/azure-sphere-combo-cifar10-rtcore.dir/main.c.obj
                                 0x76 (size before relaxing)
 .comment       0x00000075       0x76 CMakeFiles/azure-sphere-combo-cifar10-rtcore.dir/f0775b8a0a1a4f21b831569dbc2a2e8d/project/source/RTCORE_OS_HAL/src/os_hal_uart.c.obj
 .comment       0x00000075       0x76 CMakeFiles/azure-sphere-combo-cifar10-rtcore.dir/f0775b8a0a1a4f21b831569dbc2a2e8d/project/source/RTCORE_OS_HAL/src/os_hal_mbox.c.obj
 .comment       0x00000075       0x76 CMakeFiles/azure-sphere-combo-cifar10-rtcore.dir/e19389ff1b18dd4296d4faeafb009a24/source/RTCORE_OS_HAL/src/os_hal_mbox_shared_mem.c.obj
 .comment       0x00000075       0x76 CMakeFiles/azure-sphere-combo-cifar10-rtcore.dir/f0775b8a0a1a4f21b831569dbc2a2e8d/project/app/lib_src/emergency_detect/emergency-detect.cc.obj
 .comment       0x00000075       0x76 CMakeFiles/azure-sphere-combo-cifar10-rtcore.dir/f0775b8a0a1a4f21b831569dbc2a2e8d/project/app/lib_src/emergency_detect/main.cc.obj
 .comment       0x00000075       0x76 lib/MT3620_M4_Driver/libMT3620_M4_Driver.a(printf.c.obj)
 .comment       0x00000075       0x76 lib/MT3620_M4_Driver/libMT3620_M4_Driver.a(mhal_uart.c.obj)
 .comment       0x00000075       0x76 lib/MT3620_M4_Driver/libMT3620_M4_Driver.a(hdl_uart.c.obj)
 .comment       0x00000075       0x76 lib/MT3620_M4_Driver/libMT3620_M4_Driver.a(mhal_mbox.c.obj)
 .comment       0x00000075       0x76 lib/MT3620_M4_Driver/libMT3620_M4_Driver.a(hdl_mbox.c.obj)
 .comment       0x00000075       0x76 lib/MT3620_M4_Driver/libMT3620_M4_Driver.a(mhal_osai.c.obj)
 .comment       0x00000075       0x70 ../../../../../../prebuilts/lib/libtensorflow-microlite.a(micro_error_reporter.o)
                                 0x71 (size before relaxing)
 .comment       0x000000e5       0x71 ../../../../../../prebuilts/lib/libtensorflow-microlite.a(micro_interpreter.o)
 .comment       0x000000e5       0x71 ../../../../../../prebuilts/lib/libtensorflow-microlite.a(micro_string.o)
 .comment       0x000000e5       0x71 ../../../../../../prebuilts/lib/libtensorflow-microlite.a(simple_memory_allocator.o)
 .comment       0x000000e5       0x71 ../../../../../../prebuilts/lib/libtensorflow-microlite.a(error_reporter.o)
 .comment       0x000000e5       0x71 ../../../../../../prebuilts/lib/libtensorflow-microlite.a(flatbuffer_conversions.o)
 .comment       0x000000e5       0x71 ../../../../../../prebuilts/lib/libtensorflow-microlite.a(tensor_utils.o)
 .comment       0x000000e5       0x71 ../../../../../../prebuilts/lib/libtensorflow-microlite.a(dynamic_agent.o)
 .comment       0x000000e5       0x71 ../../../../../../prebuilts/lib/libtensorflow-microlite.a(dynamic_context.o)
 .comment       0x000000e5       0x71 ../../../../../../prebuilts/lib/libtensorflow-microlite.a(npu_platform.o)
 .comment       0x000000e5       0x71 ../../../../../../prebuilts/lib/libtensorflow-microlite.a(pooling.o)
 .comment       0x000000e5       0x71 ../../../../../../prebuilts/lib/libtensorflow-microlite.a(kernel_util.o)
 .comment       0x000000e5       0x71 ../../../../../../prebuilts/lib/libtensorflow-microlite.a(conv.o)
 .comment       0x000000e5       0x71 ../../../../../../prebuilts/lib/libtensorflow-microlite.a(depthwise_conv.o)
 .comment       0x000000e5       0x71 ../../../../../../prebuilts/lib/libtensorflow-microlite.a(debug_log.o)
 .comment       0x000000e5       0x71 ../../../../../../prebuilts/lib/libtensorflow-microlite.a(memory_helpers.o)
 .comment       0x000000e5       0x71 ../../../../../../prebuilts/lib/libtensorflow-microlite.a(micro_allocator.o)
 .comment       0x000000e5       0x71 ../../../../../../prebuilts/lib/libtensorflow-microlite.a(greedy_memory_planner.o)
 .comment       0x000000e5       0x71 ../../../../../../prebuilts/lib/libtensorflow-microlite.a(common.o)
 .comment       0x000000e5       0x71 ../../../../../../prebuilts/lib/libtensorflow-microlite.a(op_resolver.o)
 .comment       0x000000e5       0x71 ../../../../../../prebuilts/lib/libtensorflow-microlite.a(quantization_util.o)
 .comment       0x000000e5       0x76 ../../../../../../prebuilts/lib/libcmsis.a(arm_convolve_wrapper_s8.o)
 .comment       0x000000e5       0x76 ../../../../../../prebuilts/lib/libcmsis.a(arm_depthwise_conv_s8.o)
 .comment       0x000000e5       0x76 ../../../../../../prebuilts/lib/libcmsis.a(arm_depthwise_conv_s8_opt.o)
 .comment       0x000000e5       0x76 ../../../../../../prebuilts/lib/libcmsis.a(arm_depthwise_conv_u8_basic_ver1.o)
 .comment       0x000000e5       0x76 ../../../../../../prebuilts/lib/libcmsis.a(arm_q7_to_q15_with_offset.o)
 .comment       0x000000e5       0x76 ../../../../../../prebuilts/lib/libcmsis.a(arm_avgpool_s8.o)
 .comment       0x000000e5       0x76 ../../../../../../prebuilts/lib/libcmsis.a(arm_convolve_1x1_s8_fast.o)
 .comment       0x000000e5       0x76 ../../../../../../prebuilts/lib/libcmsis.a(arm_convolve_1_x_n_s8.o)
 .comment       0x000000e5       0x76 ../../../../../../prebuilts/lib/libcmsis.a(arm_convolve_s8.o)
 .comment       0x000000e5       0x76 ../../../../../../prebuilts/lib/libcmsis.a(arm_nn_mat_mult_kernel_s8_s16.o)
 .comment       0x000000e5       0x76 ../../../../../../prebuilts/lib/libcmsis.a(arm_nn_accumulate_q7_to_q15.o)
 .comment       0x000000e5       0x76 ../../../../../../prebuilts/lib/libcmsis.a(arm_nn_mat_mult_nt_t_s8.o)
 .comment       0x000000e5       0x76 ../../../../../../prebuilts/lib/libcmsis.a(arm_q7_to_q15_no_shift.o)
 .comment       0x000000e5       0x76 lib/MT3620_M4_Driver/lib/MT3620_M4_BSP/libMT3620_M4_BSP.a(nvic.c.obj)
 .comment       0x000000e5       0x76 lib/MT3620_M4_Driver/lib/MT3620_M4_BSP/libMT3620_M4_BSP.a(cirq_common.c.obj)
 .comment       0x000000e5       0x76 lib/MT3620_M4_Driver/lib/MT3620_M4_BSP/libMT3620_M4_BSP.a(vector_table.c.obj)
 .comment       0x000000e5       0x76 lib/MT3620_M4_Driver/MT3620_M4_BSP/FreeRTOS/libMT3620_M4_FreeRTOS.a(queue.c.obj)
 .comment       0x000000e5       0x76 lib/MT3620_M4_Driver/MT3620_M4_BSP/FreeRTOS/libMT3620_M4_FreeRTOS.a(tasks.c.obj)
 .comment       0x000000e5       0x76 lib/MT3620_M4_Driver/MT3620_M4_BSP/FreeRTOS/libMT3620_M4_FreeRTOS.a(timers.c.obj)
 .comment       0x000000e5       0x76 lib/MT3620_M4_Driver/MT3620_M4_BSP/FreeRTOS/libMT3620_M4_FreeRTOS.a(heap_4.c.obj)
 .comment       0x000000e5       0x76 lib/MT3620_M4_Driver/MT3620_M4_BSP/FreeRTOS/libMT3620_M4_FreeRTOS.a(port.c.obj)
 .comment       0x000000e5       0x76 lib/MT3620_M4_Driver/MT3620_M4_BSP/FreeRTOS/libMT3620_M4_FreeRTOS.a(list.c.obj)

.ARM.attributes
                0x00000000       0x30
 .ARM.attributes
                0x00000000       0x34 CMakeFiles/azure-sphere-combo-cifar10-rtcore.dir/main.c.obj
 .ARM.attributes
                0x00000034       0x34 CMakeFiles/azure-sphere-combo-cifar10-rtcore.dir/f0775b8a0a1a4f21b831569dbc2a2e8d/project/source/RTCORE_OS_HAL/src/os_hal_uart.c.obj
 .ARM.attributes
                0x00000068       0x34 CMakeFiles/azure-sphere-combo-cifar10-rtcore.dir/f0775b8a0a1a4f21b831569dbc2a2e8d/project/source/RTCORE_OS_HAL/src/os_hal_mbox.c.obj
 .ARM.attributes
                0x0000009c       0x34 CMakeFiles/azure-sphere-combo-cifar10-rtcore.dir/e19389ff1b18dd4296d4faeafb009a24/source/RTCORE_OS_HAL/src/os_hal_mbox_shared_mem.c.obj
 .ARM.attributes
                0x000000d0       0x39 CMakeFiles/azure-sphere-combo-cifar10-rtcore.dir/f0775b8a0a1a4f21b831569dbc2a2e8d/project/app/lib_src/emergency_detect/emergency-detect.cc.obj
 .ARM.attributes
                0x00000109       0x34 CMakeFiles/azure-sphere-combo-cifar10-rtcore.dir/f0775b8a0a1a4f21b831569dbc2a2e8d/project/app/lib_src/emergency_detect/main.cc.obj
 .ARM.attributes
                0x0000013d       0x34 lib/MT3620_M4_Driver/libMT3620_M4_Driver.a(printf.c.obj)
 .ARM.attributes
                0x00000171       0x34 lib/MT3620_M4_Driver/libMT3620_M4_Driver.a(mhal_uart.c.obj)
 .ARM.attributes
                0x000001a5       0x34 lib/MT3620_M4_Driver/libMT3620_M4_Driver.a(hdl_uart.c.obj)
 .ARM.attributes
                0x000001d9       0x34 lib/MT3620_M4_Driver/libMT3620_M4_Driver.a(mhal_mbox.c.obj)
 .ARM.attributes
                0x0000020d       0x34 lib/MT3620_M4_Driver/libMT3620_M4_Driver.a(hdl_mbox.c.obj)
 .ARM.attributes
                0x00000241       0x34 lib/MT3620_M4_Driver/libMT3620_M4_Driver.a(mhal_osai.c.obj)
 .ARM.attributes
                0x00000275       0x39 ../../../../../../prebuilts/lib/libtensorflow-microlite.a(micro_error_reporter.o)
 .ARM.attributes
                0x000002ae       0x39 ../../../../../../prebuilts/lib/libtensorflow-microlite.a(micro_interpreter.o)
 .ARM.attributes
                0x000002e7       0x39 ../../../../../../prebuilts/lib/libtensorflow-microlite.a(micro_string.o)
 .ARM.attributes
                0x00000320       0x39 ../../../../../../prebuilts/lib/libtensorflow-microlite.a(simple_memory_allocator.o)
 .ARM.attributes
                0x00000359       0x39 ../../../../../../prebuilts/lib/libtensorflow-microlite.a(error_reporter.o)
 .ARM.attributes
                0x00000392       0x39 ../../../../../../prebuilts/lib/libtensorflow-microlite.a(flatbuffer_conversions.o)
 .ARM.attributes
                0x000003cb       0x39 ../../../../../../prebuilts/lib/libtensorflow-microlite.a(tensor_utils.o)
 .ARM.attributes
                0x00000404       0x39 ../../../../../../prebuilts/lib/libtensorflow-microlite.a(dynamic_agent.o)
 .ARM.attributes
                0x0000043d       0x39 ../../../../../../prebuilts/lib/libtensorflow-microlite.a(dynamic_context.o)
 .ARM.attributes
                0x00000476       0x39 ../../../../../../prebuilts/lib/libtensorflow-microlite.a(npu_platform.o)
 .ARM.attributes
                0x000004af       0x39 ../../../../../../prebuilts/lib/libtensorflow-microlite.a(pooling.o)
 .ARM.attributes
                0x000004e8       0x39 ../../../../../../prebuilts/lib/libtensorflow-microlite.a(kernel_util.o)
 .ARM.attributes
                0x00000521       0x39 ../../../../../../prebuilts/lib/libtensorflow-microlite.a(conv.o)
 .ARM.attributes
                0x0000055a       0x39 ../../../../../../prebuilts/lib/libtensorflow-microlite.a(depthwise_conv.o)
 .ARM.attributes
                0x00000593       0x39 ../../../../../../prebuilts/lib/libtensorflow-microlite.a(debug_log.o)
 .ARM.attributes
                0x000005cc       0x39 ../../../../../../prebuilts/lib/libtensorflow-microlite.a(memory_helpers.o)
 .ARM.attributes
                0x00000605       0x39 ../../../../../../prebuilts/lib/libtensorflow-microlite.a(micro_allocator.o)
 .ARM.attributes
                0x0000063e       0x39 ../../../../../../prebuilts/lib/libtensorflow-microlite.a(greedy_memory_planner.o)
 .ARM.attributes
                0x00000677       0x39 ../../../../../../prebuilts/lib/libtensorflow-microlite.a(common.o)
 .ARM.attributes
                0x000006b0       0x39 ../../../../../../prebuilts/lib/libtensorflow-microlite.a(op_resolver.o)
 .ARM.attributes
                0x000006e9       0x39 ../../../../../../prebuilts/lib/libtensorflow-microlite.a(quantization_util.o)
 .ARM.attributes
                0x00000722       0x34 ../../../../../../prebuilts/lib/libcmsis.a(arm_convolve_wrapper_s8.o)
 .ARM.attributes
                0x00000756       0x34 ../../../../../../prebuilts/lib/libcmsis.a(arm_depthwise_conv_s8.o)
 .ARM.attributes
                0x0000078a       0x34 ../../../../../../prebuilts/lib/libcmsis.a(arm_depthwise_conv_s8_opt.o)
 .ARM.attributes
                0x000007be       0x34 ../../../../../../prebuilts/lib/libcmsis.a(arm_depthwise_conv_u8_basic_ver1.o)
 .ARM.attributes
                0x000007f2       0x34 ../../../../../../prebuilts/lib/libcmsis.a(arm_q7_to_q15_with_offset.o)
 .ARM.attributes
                0x00000826       0x34 ../../../../../../prebuilts/lib/libcmsis.a(arm_avgpool_s8.o)
 .ARM.attributes
                0x0000085a       0x34 ../../../../../../prebuilts/lib/libcmsis.a(arm_convolve_1x1_s8_fast.o)
 .ARM.attributes
                0x0000088e       0x34 ../../../../../../prebuilts/lib/libcmsis.a(arm_convolve_1_x_n_s8.o)
 .ARM.attributes
                0x000008c2       0x34 ../../../../../../prebuilts/lib/libcmsis.a(arm_convolve_s8.o)
 .ARM.attributes
                0x000008f6       0x34 ../../../../../../prebuilts/lib/libcmsis.a(arm_nn_mat_mult_kernel_s8_s16.o)
 .ARM.attributes
                0x0000092a       0x34 ../../../../../../prebuilts/lib/libcmsis.a(arm_nn_accumulate_q7_to_q15.o)
 .ARM.attributes
                0x0000095e       0x34 ../../../../../../prebuilts/lib/libcmsis.a(arm_nn_mat_mult_nt_t_s8.o)
 .ARM.attributes
                0x00000992       0x34 ../../../../../../prebuilts/lib/libcmsis.a(arm_q7_to_q15_no_shift.o)
 .ARM.attributes
                0x000009c6       0x34 c:/progra~2/microsoft visual studio/2019/community/linux/gcc_arm/bin/../lib/gcc/arm-none-eabi/8.2.1/../../../../arm-none-eabi/lib/thumb/v7e-m+fp/hard\libstdc++_nano.a(guard.o)
 .ARM.attributes
                0x000009fa       0x34 c:/progra~2/microsoft visual studio/2019/community/linux/gcc_arm/bin/../lib/gcc/arm-none-eabi/8.2.1/../../../../arm-none-eabi/lib/thumb/v7e-m+fp/hard\libstdc++_nano.a(del_op.o)
 .ARM.attributes
                0x00000a2e       0x34 c:/progra~2/microsoft visual studio/2019/community/linux/gcc_arm/bin/../lib/gcc/arm-none-eabi/8.2.1/../../../../arm-none-eabi/lib/thumb/v7e-m+fp/hard\libstdc++_nano.a(pure.o)
 .ARM.attributes
                0x00000a62       0x34 c:/progra~2/microsoft visual studio/2019/community/linux/gcc_arm/bin/../lib/gcc/arm-none-eabi/8.2.1/../../../../arm-none-eabi/lib/thumb/v7e-m+fp/hard\libstdc++_nano.a(eh_terminate.o)
 .ARM.attributes
                0x00000a96       0x34 c:/progra~2/microsoft visual studio/2019/community/linux/gcc_arm/bin/../lib/gcc/arm-none-eabi/8.2.1/../../../../arm-none-eabi/lib/thumb/v7e-m+fp/hard\libstdc++_nano.a(atexit_arm.o)
 .ARM.attributes
                0x00000aca       0x32 c:/progra~2/microsoft visual studio/2019/community/linux/gcc_arm/bin/../lib/gcc/arm-none-eabi/8.2.1/../../../../arm-none-eabi/lib/thumb/v7e-m+fp/hard\libstdc++_nano.a(eh_term_handler.o)
 .ARM.attributes
                0x00000afc       0x1e c:/progra~2/microsoft visual studio/2019/community/linux/gcc_arm/bin/../lib/gcc/arm-none-eabi/8.2.1/thumb/v7e-m+fp/hard\libgcc.a(_arm_addsubdf3.o)
 .ARM.attributes
                0x00000b1a       0x1e c:/progra~2/microsoft visual studio/2019/community/linux/gcc_arm/bin/../lib/gcc/arm-none-eabi/8.2.1/thumb/v7e-m+fp/hard\libgcc.a(_arm_muldivdf3.o)
 .ARM.attributes
                0x00000b38       0x1e c:/progra~2/microsoft visual studio/2019/community/linux/gcc_arm/bin/../lib/gcc/arm-none-eabi/8.2.1/thumb/v7e-m+fp/hard\libgcc.a(_arm_cmpdf2.o)
 .ARM.attributes
                0x00000b56       0x1e c:/progra~2/microsoft visual studio/2019/community/linux/gcc_arm/bin/../lib/gcc/arm-none-eabi/8.2.1/thumb/v7e-m+fp/hard\libgcc.a(_arm_fixdfsi.o)
 .ARM.attributes
                0x00000b74       0x1e c:/progra~2/microsoft visual studio/2019/community/linux/gcc_arm/bin/../lib/gcc/arm-none-eabi/8.2.1/thumb/v7e-m+fp/hard\libgcc.a(_arm_fixunsdfsi.o)
 .ARM.attributes
                0x00000b92       0x1e c:/progra~2/microsoft visual studio/2019/community/linux/gcc_arm/bin/../lib/gcc/arm-none-eabi/8.2.1/thumb/v7e-m+fp/hard\libgcc.a(_arm_truncdfsf2.o)
 .ARM.attributes
                0x00000bb0       0x1e c:/progra~2/microsoft visual studio/2019/community/linux/gcc_arm/bin/../lib/gcc/arm-none-eabi/8.2.1/thumb/v7e-m+fp/hard\libgcc.a(_aeabi_uldivmod.o)
 .ARM.attributes
                0x00000bce       0x34 c:/progra~2/microsoft visual studio/2019/community/linux/gcc_arm/bin/../lib/gcc/arm-none-eabi/8.2.1/thumb/v7e-m+fp/hard\libgcc.a(_fixdfdi.o)
 .ARM.attributes
                0x00000c02       0x34 c:/progra~2/microsoft visual studio/2019/community/linux/gcc_arm/bin/../lib/gcc/arm-none-eabi/8.2.1/thumb/v7e-m+fp/hard\libgcc.a(_fixunsdfdi.o)
 .ARM.attributes
                0x00000c36       0x34 c:/progra~2/microsoft visual studio/2019/community/linux/gcc_arm/bin/../lib/gcc/arm-none-eabi/8.2.1/thumb/v7e-m+fp/hard\libgcc.a(_udivmoddi4.o)
 .ARM.attributes
                0x00000c6a       0x1e c:/progra~2/microsoft visual studio/2019/community/linux/gcc_arm/bin/../lib/gcc/arm-none-eabi/8.2.1/thumb/v7e-m+fp/hard\libgcc.a(_dvmd_tls.o)
 .ARM.attributes
                0x00000c88       0x34 lib/MT3620_M4_Driver/lib/MT3620_M4_BSP/libMT3620_M4_BSP.a(nvic.c.obj)
 .ARM.attributes
                0x00000cbc       0x34 lib/MT3620_M4_Driver/lib/MT3620_M4_BSP/libMT3620_M4_BSP.a(cirq_common.c.obj)
 .ARM.attributes
                0x00000cf0       0x34 lib/MT3620_M4_Driver/lib/MT3620_M4_BSP/libMT3620_M4_BSP.a(vector_table.c.obj)
 .ARM.attributes
                0x00000d24       0x1b lib/MT3620_M4_Driver/lib/MT3620_M4_BSP/libMT3620_M4_BSP.a(startup_mt3620.s.obj)
 .ARM.attributes
                0x00000d3f       0x34 lib/MT3620_M4_Driver/MT3620_M4_BSP/FreeRTOS/libMT3620_M4_FreeRTOS.a(queue.c.obj)
 .ARM.attributes
                0x00000d73       0x34 lib/MT3620_M4_Driver/MT3620_M4_BSP/FreeRTOS/libMT3620_M4_FreeRTOS.a(tasks.c.obj)
 .ARM.attributes
                0x00000da7       0x34 lib/MT3620_M4_Driver/MT3620_M4_BSP/FreeRTOS/libMT3620_M4_FreeRTOS.a(timers.c.obj)
 .ARM.attributes
                0x00000ddb       0x34 lib/MT3620_M4_Driver/MT3620_M4_BSP/FreeRTOS/libMT3620_M4_FreeRTOS.a(heap_4.c.obj)
 .ARM.attributes
                0x00000e0f       0x34 lib/MT3620_M4_Driver/MT3620_M4_BSP/FreeRTOS/libMT3620_M4_FreeRTOS.a(port.c.obj)
 .ARM.attributes
                0x00000e43       0x34 lib/MT3620_M4_Driver/MT3620_M4_BSP/FreeRTOS/libMT3620_M4_FreeRTOS.a(list.c.obj)
 .ARM.attributes
                0x00000e77       0x34 c:/progra~2/microsoft visual studio/2019/community/linux/gcc_arm/bin/../lib/gcc/arm-none-eabi/8.2.1/../../../../arm-none-eabi/lib/thumb/v7e-m+fp/hard\libm.a(lib_a-s_frexp.o)
 .ARM.attributes
                0x00000eab       0x34 c:/progra~2/microsoft visual studio/2019/community/linux/gcc_arm/bin/../lib/gcc/arm-none-eabi/8.2.1/../../../../arm-none-eabi/lib/thumb/v7e-m+fp/hard\libm.a(lib_a-s_round.o)
 .ARM.attributes
                0x00000edf       0x34 c:/progra~2/microsoft visual studio/2019/community/linux/gcc_arm/bin/../lib/gcc/arm-none-eabi/8.2.1/../../../../arm-none-eabi/lib/thumb/v7e-m+fp/hard\libc_nano.a(lib_a-abort.o)
 .ARM.attributes
                0x00000f13       0x34 c:/progra~2/microsoft visual studio/2019/community/linux/gcc_arm/bin/../lib/gcc/arm-none-eabi/8.2.1/../../../../arm-none-eabi/lib/thumb/v7e-m+fp/hard\libc_nano.a(lib_a-cxa_atexit.o)
 .ARM.attributes
                0x00000f47       0x32 c:/progra~2/microsoft visual studio/2019/community/linux/gcc_arm/bin/../lib/gcc/arm-none-eabi/8.2.1/../../../../arm-none-eabi/lib/thumb/v7e-m+fp/hard\libc_nano.a(lib_a-impure.o)
 .ARM.attributes
                0x00000f79       0x34 c:/progra~2/microsoft visual studio/2019/community/linux/gcc_arm/bin/../lib/gcc/arm-none-eabi/8.2.1/../../../../arm-none-eabi/lib/thumb/v7e-m+fp/hard\libc_nano.a(lib_a-malloc.o)
 .ARM.attributes
                0x00000fad       0x34 c:/progra~2/microsoft visual studio/2019/community/linux/gcc_arm/bin/../lib/gcc/arm-none-eabi/8.2.1/../../../../arm-none-eabi/lib/thumb/v7e-m+fp/hard\libc_nano.a(lib_a-memcpy-stub.o)
 .ARM.attributes
                0x00000fe1       0x34 c:/progra~2/microsoft visual studio/2019/community/linux/gcc_arm/bin/../lib/gcc/arm-none-eabi/8.2.1/../../../../arm-none-eabi/lib/thumb/v7e-m+fp/hard\libc_nano.a(lib_a-memset.o)
 .ARM.attributes
                0x00001015       0x34 c:/progra~2/microsoft visual studio/2019/community/linux/gcc_arm/bin/../lib/gcc/arm-none-eabi/8.2.1/../../../../arm-none-eabi/lib/thumb/v7e-m+fp/hard\libc_nano.a(lib_a-nano-freer.o)
 .ARM.attributes
                0x00001049       0x34 c:/progra~2/microsoft visual studio/2019/community/linux/gcc_arm/bin/../lib/gcc/arm-none-eabi/8.2.1/../../../../arm-none-eabi/lib/thumb/v7e-m+fp/hard\libc_nano.a(lib_a-nano-mallocr.o)
 .ARM.attributes
                0x0000107d       0x34 c:/progra~2/microsoft visual studio/2019/community/linux/gcc_arm/bin/../lib/gcc/arm-none-eabi/8.2.1/../../../../arm-none-eabi/lib/thumb/v7e-m+fp/hard\libc_nano.a(lib_a-signal.o)
 .ARM.attributes
                0x000010b1       0x34 c:/progra~2/microsoft visual studio/2019/community/linux/gcc_arm/bin/../lib/gcc/arm-none-eabi/8.2.1/../../../../arm-none-eabi/lib/thumb/v7e-m+fp/hard\libc_nano.a(lib_a-signalr.o)
 .ARM.attributes
                0x000010e5       0x1c c:/progra~2/microsoft visual studio/2019/community/linux/gcc_arm/bin/../lib/gcc/arm-none-eabi/8.2.1/../../../../arm-none-eabi/lib/thumb/v7e-m+fp/hard\libc_nano.a(lib_a-strcmp.o)
 .ARM.attributes
                0x00001101       0x34 c:/progra~2/microsoft visual studio/2019/community/linux/gcc_arm/bin/../lib/gcc/arm-none-eabi/8.2.1/../../../../arm-none-eabi/lib/thumb/v7e-m+fp/hard\libc_nano.a(lib_a-mlock.o)
 .ARM.attributes
                0x00001135       0x34 c:/progra~2/microsoft visual studio/2019/community/linux/gcc_arm/bin/../lib/gcc/arm-none-eabi/8.2.1/../../../../arm-none-eabi/lib/thumb/v7e-m+fp/hard\libc_nano.a(lib_a-reent.o)
 .ARM.attributes
                0x00001169       0x34 c:/progra~2/microsoft visual studio/2019/community/linux/gcc_arm/bin/../lib/gcc/arm-none-eabi/8.2.1/../../../../arm-none-eabi/lib/thumb/v7e-m+fp/hard\libc_nano.a(lib_a-lock.o)
 .ARM.attributes
                0x0000119d       0x34 c:/progra~2/microsoft visual studio/2019/community/linux/gcc_arm/bin/../lib/gcc/arm-none-eabi/8.2.1/../../../../arm-none-eabi/lib/thumb/v7e-m+fp/hard\libnosys.a(getpid.o)
 .ARM.attributes
                0x000011d1       0x34 c:/progra~2/microsoft visual studio/2019/community/linux/gcc_arm/bin/../lib/gcc/arm-none-eabi/8.2.1/../../../../arm-none-eabi/lib/thumb/v7e-m+fp/hard\libnosys.a(kill.o)
 .ARM.attributes
                0x00001205       0x34 c:/progra~2/microsoft visual studio/2019/community/linux/gcc_arm/bin/../lib/gcc/arm-none-eabi/8.2.1/../../../../arm-none-eabi/lib/thumb/v7e-m+fp/hard\libnosys.a(_exit.o)

.debug_frame    0x00000000     0x2cc8
 .debug_frame   0x00000000       0xd0 CMakeFiles/azure-sphere-combo-cifar10-rtcore.dir/main.c.obj
 .debug_frame   0x000000d0      0x218 CMakeFiles/azure-sphere-combo-cifar10-rtcore.dir/f0775b8a0a1a4f21b831569dbc2a2e8d/project/source/RTCORE_OS_HAL/src/os_hal_uart.c.obj
 .debug_frame   0x000002e8      0x260 CMakeFiles/azure-sphere-combo-cifar10-rtcore.dir/f0775b8a0a1a4f21b831569dbc2a2e8d/project/source/RTCORE_OS_HAL/src/os_hal_mbox.c.obj
 .debug_frame   0x00000548       0x98 CMakeFiles/azure-sphere-combo-cifar10-rtcore.dir/e19389ff1b18dd4296d4faeafb009a24/source/RTCORE_OS_HAL/src/os_hal_mbox_shared_mem.c.obj
 .debug_frame   0x000005e0      0x12c CMakeFiles/azure-sphere-combo-cifar10-rtcore.dir/f0775b8a0a1a4f21b831569dbc2a2e8d/project/app/lib_src/emergency_detect/main.cc.obj
 .debug_frame   0x0000070c      0x270 lib/MT3620_M4_Driver/libMT3620_M4_Driver.a(printf.c.obj)
 .debug_frame   0x0000097c      0x3b0 lib/MT3620_M4_Driver/libMT3620_M4_Driver.a(mhal_uart.c.obj)
 .debug_frame   0x00000d2c      0x258 lib/MT3620_M4_Driver/libMT3620_M4_Driver.a(hdl_uart.c.obj)
 .debug_frame   0x00000f84       0x9c lib/MT3620_M4_Driver/libMT3620_M4_Driver.a(mhal_mbox.c.obj)
 .debug_frame   0x00001020      0x210 lib/MT3620_M4_Driver/libMT3620_M4_Driver.a(hdl_mbox.c.obj)
 .debug_frame   0x00001230      0x150 lib/MT3620_M4_Driver/libMT3620_M4_Driver.a(mhal_osai.c.obj)
 .debug_frame   0x00001380       0x40 c:/progra~2/microsoft visual studio/2019/community/linux/gcc_arm/bin/../lib/gcc/arm-none-eabi/8.2.1/../../../../arm-none-eabi/lib/thumb/v7e-m+fp/hard\libstdc++_nano.a(guard.o)
 .debug_frame   0x000013c0       0x20 c:/progra~2/microsoft visual studio/2019/community/linux/gcc_arm/bin/../lib/gcc/arm-none-eabi/8.2.1/../../../../arm-none-eabi/lib/thumb/v7e-m+fp/hard\libstdc++_nano.a(del_op.o)
 .debug_frame   0x000013e0       0x40 c:/progra~2/microsoft visual studio/2019/community/linux/gcc_arm/bin/../lib/gcc/arm-none-eabi/8.2.1/../../../../arm-none-eabi/lib/thumb/v7e-m+fp/hard\libstdc++_nano.a(pure.o)
 .debug_frame   0x00001420       0xb0 c:/progra~2/microsoft visual studio/2019/community/linux/gcc_arm/bin/../lib/gcc/arm-none-eabi/8.2.1/../../../../arm-none-eabi/lib/thumb/v7e-m+fp/hard\libstdc++_nano.a(eh_terminate.o)
 .debug_frame   0x000014d0       0x20 c:/progra~2/microsoft visual studio/2019/community/linux/gcc_arm/bin/../lib/gcc/arm-none-eabi/8.2.1/../../../../arm-none-eabi/lib/thumb/v7e-m+fp/hard\libstdc++_nano.a(atexit_arm.o)
 .debug_frame   0x000014f0       0xac c:/progra~2/microsoft visual studio/2019/community/linux/gcc_arm/bin/../lib/gcc/arm-none-eabi/8.2.1/thumb/v7e-m+fp/hard\libgcc.a(_arm_addsubdf3.o)
 .debug_frame   0x0000159c       0x50 c:/progra~2/microsoft visual studio/2019/community/linux/gcc_arm/bin/../lib/gcc/arm-none-eabi/8.2.1/thumb/v7e-m+fp/hard\libgcc.a(_arm_muldivdf3.o)
 .debug_frame   0x000015ec       0xc4 c:/progra~2/microsoft visual studio/2019/community/linux/gcc_arm/bin/../lib/gcc/arm-none-eabi/8.2.1/thumb/v7e-m+fp/hard\libgcc.a(_arm_cmpdf2.o)
 .debug_frame   0x000016b0       0x24 c:/progra~2/microsoft visual studio/2019/community/linux/gcc_arm/bin/../lib/gcc/arm-none-eabi/8.2.1/thumb/v7e-m+fp/hard\libgcc.a(_arm_fixdfsi.o)
 .debug_frame   0x000016d4       0x24 c:/progra~2/microsoft visual studio/2019/community/linux/gcc_arm/bin/../lib/gcc/arm-none-eabi/8.2.1/thumb/v7e-m+fp/hard\libgcc.a(_arm_fixunsdfsi.o)
 .debug_frame   0x000016f8       0x24 c:/progra~2/microsoft visual studio/2019/community/linux/gcc_arm/bin/../lib/gcc/arm-none-eabi/8.2.1/thumb/v7e-m+fp/hard\libgcc.a(_arm_truncdfsf2.o)
 .debug_frame   0x0000171c       0x2c c:/progra~2/microsoft visual studio/2019/community/linux/gcc_arm/bin/../lib/gcc/arm-none-eabi/8.2.1/thumb/v7e-m+fp/hard\libgcc.a(_aeabi_uldivmod.o)
 .debug_frame   0x00001748       0x38 c:/progra~2/microsoft visual studio/2019/community/linux/gcc_arm/bin/../lib/gcc/arm-none-eabi/8.2.1/thumb/v7e-m+fp/hard\libgcc.a(_fixdfdi.o)
 .debug_frame   0x00001780       0x2c c:/progra~2/microsoft visual studio/2019/community/linux/gcc_arm/bin/../lib/gcc/arm-none-eabi/8.2.1/thumb/v7e-m+fp/hard\libgcc.a(_fixunsdfdi.o)
 .debug_frame   0x000017ac       0x34 c:/progra~2/microsoft visual studio/2019/community/linux/gcc_arm/bin/../lib/gcc/arm-none-eabi/8.2.1/thumb/v7e-m+fp/hard\libgcc.a(_udivmoddi4.o)
 .debug_frame   0x000017e0      0x100 lib/MT3620_M4_Driver/lib/MT3620_M4_BSP/libMT3620_M4_BSP.a(nvic.c.obj)
 .debug_frame   0x000018e0      0x128 lib/MT3620_M4_Driver/lib/MT3620_M4_BSP/libMT3620_M4_BSP.a(cirq_common.c.obj)
 .debug_frame   0x00001a08       0x20 lib/MT3620_M4_Driver/lib/MT3620_M4_BSP/libMT3620_M4_BSP.a(vector_table.c.obj)
 .debug_frame   0x00001a28      0x354 lib/MT3620_M4_Driver/MT3620_M4_BSP/FreeRTOS/libMT3620_M4_FreeRTOS.a(queue.c.obj)
 .debug_frame   0x00001d7c      0x6d4 lib/MT3620_M4_Driver/MT3620_M4_BSP/FreeRTOS/libMT3620_M4_FreeRTOS.a(tasks.c.obj)
 .debug_frame   0x00002450      0x1e4 lib/MT3620_M4_Driver/MT3620_M4_BSP/FreeRTOS/libMT3620_M4_FreeRTOS.a(timers.c.obj)
 .debug_frame   0x00002634       0x98 lib/MT3620_M4_Driver/MT3620_M4_BSP/FreeRTOS/libMT3620_M4_FreeRTOS.a(heap_4.c.obj)
 .debug_frame   0x000026cc      0x128 lib/MT3620_M4_Driver/MT3620_M4_BSP/FreeRTOS/libMT3620_M4_FreeRTOS.a(port.c.obj)
 .debug_frame   0x000027f4       0x88 lib/MT3620_M4_Driver/MT3620_M4_BSP/FreeRTOS/libMT3620_M4_FreeRTOS.a(list.c.obj)
 .debug_frame   0x0000287c       0x2c c:/progra~2/microsoft visual studio/2019/community/linux/gcc_arm/bin/../lib/gcc/arm-none-eabi/8.2.1/../../../../arm-none-eabi/lib/thumb/v7e-m+fp/hard\libm.a(lib_a-s_frexp.o)
 .debug_frame   0x000028a8       0x2c c:/progra~2/microsoft visual studio/2019/community/linux/gcc_arm/bin/../lib/gcc/arm-none-eabi/8.2.1/../../../../arm-none-eabi/lib/thumb/v7e-m+fp/hard\libm.a(lib_a-s_round.o)
 .debug_frame   0x000028d4       0x28 c:/progra~2/microsoft visual studio/2019/community/linux/gcc_arm/bin/../lib/gcc/arm-none-eabi/8.2.1/../../../../arm-none-eabi/lib/thumb/v7e-m+fp/hard\libc_nano.a(lib_a-abort.o)
 .debug_frame   0x000028fc       0x28 c:/progra~2/microsoft visual studio/2019/community/linux/gcc_arm/bin/../lib/gcc/arm-none-eabi/8.2.1/../../../../arm-none-eabi/lib/thumb/v7e-m+fp/hard\libc_nano.a(lib_a-cxa_atexit.o)
 .debug_frame   0x00002924       0x30 c:/progra~2/microsoft visual studio/2019/community/linux/gcc_arm/bin/../lib/gcc/arm-none-eabi/8.2.1/../../../../arm-none-eabi/lib/thumb/v7e-m+fp/hard\libc_nano.a(lib_a-malloc.o)
 .debug_frame   0x00002954       0x28 c:/progra~2/microsoft visual studio/2019/community/linux/gcc_arm/bin/../lib/gcc/arm-none-eabi/8.2.1/../../../../arm-none-eabi/lib/thumb/v7e-m+fp/hard\libc_nano.a(lib_a-memcpy-stub.o)
 .debug_frame   0x0000297c       0x20 c:/progra~2/microsoft visual studio/2019/community/linux/gcc_arm/bin/../lib/gcc/arm-none-eabi/8.2.1/../../../../arm-none-eabi/lib/thumb/v7e-m+fp/hard\libc_nano.a(lib_a-memset.o)
 .debug_frame   0x0000299c       0x38 c:/progra~2/microsoft visual studio/2019/community/linux/gcc_arm/bin/../lib/gcc/arm-none-eabi/8.2.1/../../../../arm-none-eabi/lib/thumb/v7e-m+fp/hard\libc_nano.a(lib_a-nano-freer.o)
 .debug_frame   0x000029d4       0x30 c:/progra~2/microsoft visual studio/2019/community/linux/gcc_arm/bin/../lib/gcc/arm-none-eabi/8.2.1/../../../../arm-none-eabi/lib/thumb/v7e-m+fp/hard\libc_nano.a(lib_a-nano-mallocr.o)
 .debug_frame   0x00002a04       0xcc c:/progra~2/microsoft visual studio/2019/community/linux/gcc_arm/bin/../lib/gcc/arm-none-eabi/8.2.1/../../../../arm-none-eabi/lib/thumb/v7e-m+fp/hard\libc_nano.a(lib_a-signal.o)
 .debug_frame   0x00002ad0       0x3c c:/progra~2/microsoft visual studio/2019/community/linux/gcc_arm/bin/../lib/gcc/arm-none-eabi/8.2.1/../../../../arm-none-eabi/lib/thumb/v7e-m+fp/hard\libc_nano.a(lib_a-signalr.o)
 .debug_frame   0x00002b0c       0x20 c:/progra~2/microsoft visual studio/2019/community/linux/gcc_arm/bin/../lib/gcc/arm-none-eabi/8.2.1/../../../../arm-none-eabi/lib/thumb/v7e-m+fp/hard\libc_nano.a(lib_a-strcmp.o)
 .debug_frame   0x00002b2c       0x30 c:/progra~2/microsoft visual studio/2019/community/linux/gcc_arm/bin/../lib/gcc/arm-none-eabi/8.2.1/../../../../arm-none-eabi/lib/thumb/v7e-m+fp/hard\libc_nano.a(lib_a-mlock.o)
 .debug_frame   0x00002b5c       0x5c c:/progra~2/microsoft visual studio/2019/community/linux/gcc_arm/bin/../lib/gcc/arm-none-eabi/8.2.1/../../../../arm-none-eabi/lib/thumb/v7e-m+fp/hard\libc_nano.a(lib_a-reent.o)
 .debug_frame   0x00002bb8       0xb0 c:/progra~2/microsoft visual studio/2019/community/linux/gcc_arm/bin/../lib/gcc/arm-none-eabi/8.2.1/../../../../arm-none-eabi/lib/thumb/v7e-m+fp/hard\libc_nano.a(lib_a-lock.o)
 .debug_frame   0x00002c68       0x20 c:/progra~2/microsoft visual studio/2019/community/linux/gcc_arm/bin/../lib/gcc/arm-none-eabi/8.2.1/../../../../arm-none-eabi/lib/thumb/v7e-m+fp/hard\libnosys.a(getpid.o)
 .debug_frame   0x00002c88       0x20 c:/progra~2/microsoft visual studio/2019/community/linux/gcc_arm/bin/../lib/gcc/arm-none-eabi/8.2.1/../../../../arm-none-eabi/lib/thumb/v7e-m+fp/hard\libnosys.a(kill.o)
 .debug_frame   0x00002ca8       0x20 c:/progra~2/microsoft visual studio/2019/community/linux/gcc_arm/bin/../lib/gcc/arm-none-eabi/8.2.1/../../../../arm-none-eabi/lib/thumb/v7e-m+fp/hard\libnosys.a(_exit.o)

.debug_ranges   0x00000000     0x1100
 .debug_ranges  0x00000000       0x68 CMakeFiles/azure-sphere-combo-cifar10-rtcore.dir/f0775b8a0a1a4f21b831569dbc2a2e8d/project/source/RTCORE_OS_HAL/src/os_hal_uart.c.obj
 .debug_ranges  0x00000068      0x250 CMakeFiles/azure-sphere-combo-cifar10-rtcore.dir/f0775b8a0a1a4f21b831569dbc2a2e8d/project/source/RTCORE_OS_HAL/src/os_hal_mbox.c.obj
 .debug_ranges  0x000002b8       0x60 CMakeFiles/azure-sphere-combo-cifar10-rtcore.dir/e19389ff1b18dd4296d4faeafb009a24/source/RTCORE_OS_HAL/src/os_hal_mbox_shared_mem.c.obj
 .debug_ranges  0x00000318      0x258 CMakeFiles/azure-sphere-combo-cifar10-rtcore.dir/f0775b8a0a1a4f21b831569dbc2a2e8d/project/app/lib_src/emergency_detect/main.cc.obj
 .debug_ranges  0x00000570      0x158 lib/MT3620_M4_Driver/libMT3620_M4_Driver.a(printf.c.obj)
 .debug_ranges  0x000006c8       0x30 lib/MT3620_M4_Driver/libMT3620_M4_Driver.a(mhal_uart.c.obj)
 .debug_ranges  0x000006f8       0x18 lib/MT3620_M4_Driver/libMT3620_M4_Driver.a(mhal_mbox.c.obj)
 .debug_ranges  0x00000710      0x188 lib/MT3620_M4_Driver/libMT3620_M4_Driver.a(hdl_mbox.c.obj)
 .debug_ranges  0x00000898      0x178 lib/MT3620_M4_Driver/lib/MT3620_M4_BSP/libMT3620_M4_BSP.a(nvic.c.obj)
 .debug_ranges  0x00000a10      0x208 lib/MT3620_M4_Driver/MT3620_M4_BSP/FreeRTOS/libMT3620_M4_FreeRTOS.a(queue.c.obj)
 .debug_ranges  0x00000c18      0x2f8 lib/MT3620_M4_Driver/MT3620_M4_BSP/FreeRTOS/libMT3620_M4_FreeRTOS.a(tasks.c.obj)
 .debug_ranges  0x00000f10      0x1c0 lib/MT3620_M4_Driver/MT3620_M4_BSP/FreeRTOS/libMT3620_M4_FreeRTOS.a(timers.c.obj)
 .debug_ranges  0x000010d0       0x30 lib/MT3620_M4_Driver/MT3620_M4_BSP/FreeRTOS/libMT3620_M4_FreeRTOS.a(heap_4.c.obj)

.stab           0x00000000       0x3c
 .stab          0x00000000       0x24 c:/progra~2/microsoft visual studio/2019/community/linux/gcc_arm/bin/../lib/gcc/arm-none-eabi/8.2.1/../../../../arm-none-eabi/lib/thumb/v7e-m+fp/hard\libnosys.a(getpid.o)
 .stab          0x00000024       0x18 c:/progra~2/microsoft visual studio/2019/community/linux/gcc_arm/bin/../lib/gcc/arm-none-eabi/8.2.1/../../../../arm-none-eabi/lib/thumb/v7e-m+fp/hard\libnosys.a(kill.o)
                                 0x24 (size before relaxing)

.stabstr        0x00000000       0x76
 .stabstr       0x00000000       0x76 c:/progra~2/microsoft visual studio/2019/community/linux/gcc_arm/bin/../lib/gcc/arm-none-eabi/8.2.1/../../../../arm-none-eabi/lib/thumb/v7e-m+fp/hard\libnosys.a(getpid.o)
